 ScriptsD

 Timestamp is 67aa2fed (Mon Feb 10 16:57:17 2025)

 Preferred load address is 10000000

 Start         Length     Name                   Class
 0001:00000000 002ca5a3H .text                   CODE
 0001:002ca5a3 00151e0dH .textbss                CODE
 0002:00000000 0005dd88H .rdata                  DATA
 0002:0005dd90 00000251H .edata                  DATA
 0003:00000000 00000104H .CRT$XCA                DATA
 0003:00000104 00002018H .CRT$XCU                DATA
 0003:0000211c 00000104H .CRT$XCZ                DATA
 0003:00002220 00000104H .CRT$XIA                DATA
 0003:00002324 0000010eH .CRT$XIC                DATA
 0003:00002434 00000104H .CRT$XIZ                DATA
 0003:00002538 00000104H .CRT$XPA                DATA
 0003:0000263c 00000104H .CRT$XPX                DATA
 0003:00002740 00000104H .CRT$XPZ                DATA
 0003:00002844 00000104H .CRT$XTA                DATA
 0003:00002948 00000104H .CRT$XTZ                DATA
 0003:00002a50 00004b89H .data                   DATA
 0003:000075e0 0000a520H .bss                    DATA
 0004:00000000 00000014H .idata$2                DATA
 0004:00000014 00000014H .idata$3                DATA
 0004:00000028 000001acH .idata$4                DATA
 0004:000001d4 000001acH .idata$5                DATA
 0004:00000380 00000736H .idata$6                DATA

  Address         Publics by Value              Rva+Base     Lib:Object

 0001:00028880       _DllMain@12                10029880 f   DLLmain.obj
 0001:000288c0       _Create_Script             100298c0 f   DLLmain.obj
 0001:000288f0       _Destroy_Script            100298f0 f   DLLmain.obj
 0001:00028970       _Get_Script_Count          10029970 f   DLLmain.obj
 0001:00028990       _Get_Script_Name           10029990 f   DLLmain.obj
 0001:000289d0       _Get_Script_Param_Description 100299d0 f   DLLmain.obj
 0001:00028a10       _Set_Script_Commands       10029a10 f   DLLmain.obj
 0001:00028ae0       _Set_Request_Destroy_Func  10029ae0 f   DLLmain.obj
 0001:00028b30       _DebugPrint                10029b30 f   DPrint.obj
 0001:00028c50       ??1?$ScriptRegistrant@VDr_Mobius_Script@@@@UAE@XZ 10029c50 f i DrMobius.obj
 0001:00028c80       ??0?$ScriptRegistrant@VDr_Mobius_Script@@@@QAE@PBD0@Z 10029c80 f i DrMobius.obj
 0001:00028cc0       ?Create@?$ScriptRegistrant@VDr_Mobius_Script@@@@UAEPAVScriptImpClass@@XZ 10029cc0 f i DrMobius.obj
 0001:00028d60       ??_E?$ScriptRegistrant@VDr_Mobius_Script@@@@UAEPAXI@Z 10029d60 f i DrMobius.obj
 0001:00028d60       ??_G?$ScriptRegistrant@VDr_Mobius_Script@@@@UAEPAXI@Z 10029d60 f i DrMobius.obj
 0001:00028db0       ??0Dr_Mobius_Script@@QAE@XZ 10029db0 f i DrMobius.obj
 0001:00028de0       ?Created@Dr_Mobius_Script@@EAEXPAVScriptableGameObj@@@Z 10029de0 f i DrMobius.obj
 0001:00028e30       ?Timer_Expired@Dr_Mobius_Script@@EAEXPAVScriptableGameObj@@H@Z 10029e30 f i DrMobius.obj
 0001:00028f90       ??_GDr_Mobius_Script@@UAEPAXI@Z 10029f90 f i DrMobius.obj
 0001:00028f90       ??_EDr_Mobius_Script@@UAEPAXI@Z 10029f90 f i DrMobius.obj
 0001:00028fe0       ??1Dr_Mobius_Script@@UAE@XZ 10029fe0 f i DrMobius.obj
 0001:00029010       ??0Vector3@@QAE@ABV0@@Z    1002a010 f i DrMobius.obj
 0001:00029060       ?Set_Basic@ActionParamsStruct@@QAEXPAVGameObjObserverClass@@MHW4SoldierAIState@@@Z 1002a060 f i DrMobius.obj
 0001:000290c0       ?Get_ID@GameObjObserverClass@@QAEHXZ 1002a0c0 f i DrMobius.obj
 0001:000290e0       ?Set_Movement@ActionParamsStruct@@QAEXPAVScriptableGameObj@@MM_N@Z 1002a0e0 f i DrMobius.obj
 0001:00029130       ??0ActionParamsStruct@@QAE@XZ 1002a130 f i DrMobius.obj
 0001:000293a0       ??0Vector3@@QAE@MMM@Z      1002a3a0 f i DrMobius.obj
 0001:000293e0       ?Owner@ScriptImpClass@@UAEPAVScriptableGameObj@@XZ 1002a3e0 f i DrMobius.obj
 0001:00029400       ?Get_Owner_Ptr@ScriptImpClass@@UAEPAPAVScriptableGameObj@@XZ 1002a400 f i DrMobius.obj
 0001:00029420       ?SetFactory@ScriptImpClass@@QAEXPAVScriptFactory@@@Z 1002a420 f i DrMobius.obj
 0001:00029450       ?Destroyed@ScriptImpClass@@UAEXPAVScriptableGameObj@@@Z 1002a450 f i DrMobius.obj
 0001:00029470       ?Killed@ScriptImpClass@@UAEXPAVScriptableGameObj@@0@Z 1002a470 f i DrMobius.obj
 0001:00029490       ?Damaged@ScriptImpClass@@UAEXPAVScriptableGameObj@@0M@Z 1002a490 f i DrMobius.obj
 0001:000294b0       ?Custom@ScriptImpClass@@UAEXPAVScriptableGameObj@@HH0@Z 1002a4b0 f i DrMobius.obj
 0001:000294d0       ?Sound_Heard@ScriptImpClass@@UAEXPAVScriptableGameObj@@ABVCombatSound@@@Z 1002a4d0 f i DrMobius.obj
 0001:000294f0       ?Enemy_Seen@ScriptImpClass@@UAEXPAVScriptableGameObj@@0@Z 1002a4f0 f i DrMobius.obj
 0001:00029510       ?Action_Complete@ScriptImpClass@@UAEXPAVScriptableGameObj@@HW4ActionCompleteReason@@@Z 1002a510 f i DrMobius.obj
 0001:00029530       ?Animation_Complete@ScriptImpClass@@UAEXPAVScriptableGameObj@@PBD@Z 1002a530 f i DrMobius.obj
 0001:00029550       ?Poked@ScriptImpClass@@UAEXPAVScriptableGameObj@@0@Z 1002a550 f i DrMobius.obj
 0001:00029570       ?Entered@ScriptImpClass@@UAEXPAVScriptableGameObj@@0@Z 1002a570 f i DrMobius.obj
 0001:00029590       ?Exited@ScriptImpClass@@UAEXPAVScriptableGameObj@@0@Z 1002a590 f i DrMobius.obj
 0001:000295b0       ?Save_Data@ScriptImpClass@@UAEXAAVScriptSaver@@@Z 1002a5b0 f i DrMobius.obj
 0001:000295d0       ?Load_Data@ScriptImpClass@@UAEXAAVScriptLoader@@@Z 1002a5d0 f i DrMobius.obj
 0001:000295f0       ?Register_Auto_Save_Variables@ScriptImpClass@@UAEXXZ 1002a5f0 f i DrMobius.obj
 0001:00029610       ??0ScriptFactory@@IAE@PBD0@Z 1002a610 f   ScriptFactory.obj
 0001:000296d0       ??_EScriptFactory@@UAEPAXI@Z 1002a6d0 f i ScriptFactory.obj
 0001:000296d0       ??_GScriptFactory@@UAEPAXI@Z 1002a6d0 f i ScriptFactory.obj
 0001:00029720       ??1ScriptFactory@@UAE@XZ   1002a720 f   ScriptFactory.obj
 0001:00029770       ?GetNext@ScriptFactory@@IBEPAV1@XZ 1002a770 f   ScriptFactory.obj
 0001:00029790       ?SetNext@ScriptFactory@@IAEXPAV1@@Z 1002a790 f   ScriptFactory.obj
 0001:00029800       ?GetName@ScriptFactory@@QAEPBDXZ 1002a800 f   ScriptFactory.obj
 0001:00029820       ?GetParamDescription@ScriptFactory@@QAEPBDXZ 1002a820 f   ScriptFactory.obj
 0001:00029840       ?RegisterScript@ScriptRegistrar@@SAXPAVScriptFactory@@@Z 1002a840 f   ScriptRegistrar.obj
 0001:00029880       ?UnregisterScript@ScriptRegistrar@@SAXPAVScriptFactory@@@Z 1002a880 f   ScriptRegistrar.obj
 0001:00029900       ?CreateScript@ScriptRegistrar@@SAPAVScriptImpClass@@PBD@Z 1002a900 f   ScriptRegistrar.obj
 0001:000299c0       ?GetScriptFactory@ScriptRegistrar@@SAPAVScriptFactory@@PBD@Z 1002a9c0 f   ScriptRegistrar.obj
 0001:00029a60       ?GetScriptFactory@ScriptRegistrar@@SAPAVScriptFactory@@H@Z 1002aa60 f   ScriptRegistrar.obj
 0001:00029ac0       ?Count@ScriptRegistrar@@SAHXZ 1002aac0 f   ScriptRegistrar.obj
 0001:00029b10       ?strtrim@@YAPADPAD@Z       1002ab10 f   strtrim.obj
 0001:00029c80       ??1?$ScriptRegistrant@VBMG_Test_Script@@@@UAE@XZ 1002ac80 f i Test_BMG.obj
 0001:00029cb0       ??0?$ScriptRegistrant@VBMG_Test_Script@@@@QAE@PBD0@Z 1002acb0 f i Test_BMG.obj
 0001:00029cf0       ?Create@?$ScriptRegistrant@VBMG_Test_Script@@@@UAEPAVScriptImpClass@@XZ 1002acf0 f i Test_BMG.obj
 0001:00029d90       ??_E?$ScriptRegistrant@VBMG_Test_Script@@@@UAEPAXI@Z 1002ad90 f i Test_BMG.obj
 0001:00029d90       ??_G?$ScriptRegistrant@VBMG_Test_Script@@@@UAEPAXI@Z 1002ad90 f i Test_BMG.obj
 0001:00029de0       ??0BMG_Test_Script@@QAE@XZ 1002ade0 f i Test_BMG.obj
 0001:00029e10       ?Created@BMG_Test_Script@@EAEXPAVScriptableGameObj@@@Z 1002ae10 f i Test_BMG.obj
 0001:00029e40       ?Sound_Heard@BMG_Test_Script@@EAEXPAVScriptableGameObj@@ABVCombatSound@@@Z 1002ae40 f i Test_BMG.obj
 0001:00029e80       ?Timer_Expired@BMG_Test_Script@@EAEXPAVScriptableGameObj@@H@Z 1002ae80 f i Test_BMG.obj
 0001:00029f30       ??_EBMG_Test_Script@@UAEPAXI@Z 1002af30 f i Test_BMG.obj
 0001:00029f30       ??_GBMG_Test_Script@@UAEPAXI@Z 1002af30 f i Test_BMG.obj
 0001:00029f80       ??1BMG_Test_Script@@UAE@XZ 1002af80 f i Test_BMG.obj
 0001:0002a050       ??1?$ScriptRegistrant@VM00_Cinematic_Attack_Command_DLS@@@@UAE@XZ 1002b050 f i Test_Cinematic.obj
 0001:0002a120       ??1?$ScriptRegistrant@VTest_Cinematic_Primary_Killed@@@@UAE@XZ 1002b120 f i Test_Cinematic.obj
 0001:0002a1f0       ??1?$ScriptRegistrant@VTest_Cinematic@@@@UAE@XZ 1002b1f0 f i Test_Cinematic.obj
 0001:0002a220       ??0?$ScriptRegistrant@VM00_Cinematic_Attack_Command_DLS@@@@QAE@PBD0@Z 1002b220 f i Test_Cinematic.obj
 0001:0002a260       ?Create@?$ScriptRegistrant@VM00_Cinematic_Attack_Command_DLS@@@@UAEPAVScriptImpClass@@XZ 1002b260 f i Test_Cinematic.obj
 0001:0002a300       ??0?$ScriptRegistrant@VTest_Cinematic_Primary_Killed@@@@QAE@PBD0@Z 1002b300 f i Test_Cinematic.obj
 0001:0002a340       ?Create@?$ScriptRegistrant@VTest_Cinematic_Primary_Killed@@@@UAEPAVScriptImpClass@@XZ 1002b340 f i Test_Cinematic.obj
 0001:0002a3e0       ??0?$ScriptRegistrant@VTest_Cinematic@@@@QAE@PBD0@Z 1002b3e0 f i Test_Cinematic.obj
 0001:0002a420       ?Create@?$ScriptRegistrant@VTest_Cinematic@@@@UAEPAVScriptImpClass@@XZ 1002b420 f i Test_Cinematic.obj
 0001:0002a4c0       ??_G?$ScriptRegistrant@VM00_Cinematic_Attack_Command_DLS@@@@UAEPAXI@Z 1002b4c0 f i Test_Cinematic.obj
 0001:0002a4c0       ??_E?$ScriptRegistrant@VM00_Cinematic_Attack_Command_DLS@@@@UAEPAXI@Z 1002b4c0 f i Test_Cinematic.obj
 0001:0002a510       ??0M00_Cinematic_Attack_Command_DLS@@QAE@XZ 1002b510 f i Test_Cinematic.obj
 0001:0002a540       ?Created@M00_Cinematic_Attack_Command_DLS@@EAEXPAVScriptableGameObj@@@Z 1002b540 f i Test_Cinematic.obj
 0001:0002a6f0       ?Custom@M00_Cinematic_Attack_Command_DLS@@EAEXPAVScriptableGameObj@@HH0@Z 1002b6f0 f i Test_Cinematic.obj
 0001:0002a730       ?Set_Attack@ActionParamsStruct@@QAEXABVVector3@@MM_N@Z 1002b730 f i Test_Cinematic.obj
 0001:0002a780       ??4Vector3@@QAEAAV0@ABV0@@Z 1002b780 f i Test_Cinematic.obj
 0001:0002a7d0       ??_G?$ScriptRegistrant@VTest_Cinematic_Primary_Killed@@@@UAEPAXI@Z 1002b7d0 f i Test_Cinematic.obj
 0001:0002a7d0       ??_E?$ScriptRegistrant@VTest_Cinematic_Primary_Killed@@@@UAEPAXI@Z 1002b7d0 f i Test_Cinematic.obj
 0001:0002a820       ??0Test_Cinematic_Primary_Killed@@QAE@XZ 1002b820 f i Test_Cinematic.obj
 0001:0002a850       ?Register_Auto_Save_Variables@Test_Cinematic_Primary_Killed@@UAEXXZ 1002b850 f i Test_Cinematic.obj
 0001:0002a880       ?Created@Test_Cinematic_Primary_Killed@@UAEXPAVScriptableGameObj@@@Z 1002b880 f i Test_Cinematic.obj
 0001:0002a8b0       ?Killed@Test_Cinematic_Primary_Killed@@UAEXPAVScriptableGameObj@@0@Z 1002b8b0 f i Test_Cinematic.obj
 0001:0002a960       ?Destroyed@Test_Cinematic_Primary_Killed@@UAEXPAVScriptableGameObj@@@Z 1002b960 f i Test_Cinematic.obj
 0001:0002aa10       ??_G?$ScriptRegistrant@VTest_Cinematic@@@@UAEPAXI@Z 1002ba10 f i Test_Cinematic.obj
 0001:0002aa10       ??_E?$ScriptRegistrant@VTest_Cinematic@@@@UAEPAXI@Z 1002ba10 f i Test_Cinematic.obj
 0001:0002aa60       ??0Test_Cinematic@@QAE@XZ  1002ba60 f i Test_Cinematic.obj
 0001:0002aa90       ?Save@Test_Cinematic@@UAEXAAVScriptSaver@@@Z 1002ba90 f i Test_Cinematic.obj
 0001:0002acf0       ?Load@Test_Cinematic@@UAEXAAVScriptLoader@@@Z 1002bcf0 f i Test_Cinematic.obj
 0001:0002b090       ?Add_Control_Line@Test_Cinematic@@QAEXMPBD@Z 1002c090 f i Test_Cinematic.obj
 0001:0002b1a0       ?Created@Test_Cinematic@@UAEXPAVScriptableGameObj@@@Z 1002c1a0 f i Test_Cinematic.obj
 0001:0002b290       ?Load_Control_File@Test_Cinematic@@QAEXPBD@Z 1002c290 f i Test_Cinematic.obj
 0001:0002b540       ?Parse_Commands@Test_Cinematic@@QAEXPAVScriptableGameObj@@@Z 1002c540 f i Test_Cinematic.obj
 0001:0002b7c0       ?Remove_Head_Control_Line@Test_Cinematic@@QAEXXZ 1002c7c0 f i Test_Cinematic.obj
 0001:0002b840       ?Parse_Command@Test_Cinematic@@QAEXPAD@Z 1002c840 f i Test_Cinematic.obj
 0001:0002bc10       ?Command_Create_Object@Test_Cinematic@@QAEXPAD@Z 1002cc10 f i Test_Cinematic.obj
 0001:0002bda0       ?Get_First_Parameter@Test_Cinematic@@QAEPADPAD@Z 1002cda0 f i Test_Cinematic.obj
 0001:0002bdd0       ?Get_Command_Parameter@Test_Cinematic@@QAEPADPAD@Z 1002cdd0 f i Test_Cinematic.obj
 0001:0002bfe0       ?Get_Next_Parameter@Test_Cinematic@@QAEPADXZ 1002cfe0 f i Test_Cinematic.obj
 0001:0002c010       ?Command_Create_Real_Object@Test_Cinematic@@QAEXPAD@Z 1002d010 f i Test_Cinematic.obj
 0001:0002c210       ?Command_Create_Explosion@Test_Cinematic@@QAEXPAD@Z 1002d210 f i Test_Cinematic.obj
 0001:0002c2b0       ?Command_Destroy_Object@Test_Cinematic@@QAEXPAD@Z 1002d2b0 f i Test_Cinematic.obj
 0001:0002c360       ?Command_Play_Animation@Test_Cinematic@@QAEXPAD@Z 1002d360 f i Test_Cinematic.obj
 0001:0002c4b0       ?Command_Play_Audio@Test_Cinematic@@QAEXPAD@Z 1002d4b0 f i Test_Cinematic.obj
 0001:0002c5c0       ?Command_Control_Camera@Test_Cinematic@@QAEXPAD@Z 1002d5c0 f i Test_Cinematic.obj
 0001:0002c730       ?Command_Send_Custom@Test_Cinematic@@QAEXPAD@Z 1002d730 f i Test_Cinematic.obj
 0001:0002c8d0       ?Command_Attach_To_Bone@Test_Cinematic@@QAEXPAD@Z 1002d8d0 f i Test_Cinematic.obj
 0001:0002ca20       ?Command_Attach_Script@Test_Cinematic@@QAEXPAD@Z 1002da20 f i Test_Cinematic.obj
 0001:0002cae0       ?Command_Set_Primary@Test_Cinematic@@QAEXPAD@Z 1002dae0 f i Test_Cinematic.obj
 0001:0002cbd0       ?Command_Move_Slot@Test_Cinematic@@QAEXPAD@Z 1002dbd0 f i Test_Cinematic.obj
 0001:0002cca0       ?Command_Sniper_Control@Test_Cinematic@@QAEXPAD@Z 1002dca0 f i Test_Cinematic.obj
 0001:0002cd20       ?Command_Shake_Camera@Test_Cinematic@@QAEXPAD@Z 1002dd20 f i Test_Cinematic.obj
 0001:0002ce30       ?Command_Enable_Shadow@Test_Cinematic@@QAEXPAD@Z 1002de30 f i Test_Cinematic.obj
 0001:0002cf00       ?Command_Enable_Letterbox@Test_Cinematic@@QAEXPAD@Z 1002df00 f i Test_Cinematic.obj
 0001:0002cf80       ?Command_Set_Screen_Fade_Color@Test_Cinematic@@QAEXPAD@Z 1002df80 f i Test_Cinematic.obj
 0001:0002d030       ?Command_Set_Screen_Fade_Opacity@Test_Cinematic@@QAEXPAD@Z 1002e030 f i Test_Cinematic.obj
 0001:0002d0a0       ?Title_Match@Test_Cinematic@@QAE_NPAPADPAD@Z 1002e0a0 f i Test_Cinematic.obj
 0001:0002d160       ?Timer_Expired@Test_Cinematic@@UAEXPAVScriptableGameObj@@H@Z 1002e160 f i Test_Cinematic.obj
 0001:0002d190       ?Custom@Test_Cinematic@@UAEXPAVScriptableGameObj@@HH0@Z 1002e190 f i Test_Cinematic.obj
 0001:0002d240       ??_GM00_Cinematic_Attack_Command_DLS@@UAEPAXI@Z 1002e240 f i Test_Cinematic.obj
 0001:0002d240       ??_EM00_Cinematic_Attack_Command_DLS@@UAEPAXI@Z 1002e240 f i Test_Cinematic.obj
 0001:0002d290       ??_ETest_Cinematic_Primary_Killed@@UAEPAXI@Z 1002e290 f i Test_Cinematic.obj
 0001:0002d290       ??_GTest_Cinematic_Primary_Killed@@UAEPAXI@Z 1002e290 f i Test_Cinematic.obj
 0001:0002d2e0       ??_ETest_Cinematic@@UAEPAXI@Z 1002e2e0 f i Test_Cinematic.obj
 0001:0002d2e0       ??_GTest_Cinematic@@UAEPAXI@Z 1002e2e0 f i Test_Cinematic.obj
 0001:0002d330       ??1M00_Cinematic_Attack_Command_DLS@@UAE@XZ 1002e330 f i Test_Cinematic.obj
 0001:0002d360       ??1Test_Cinematic_Primary_Killed@@UAE@XZ 1002e360 f i Test_Cinematic.obj
 0001:0002d390       ??1Test_Cinematic@@UAE@XZ  1002e390 f i Test_Cinematic.obj
 0001:0002d3c0       ?Timer_Expired@ScriptImpClass@@UAEXPAVScriptableGameObj@@H@Z 1002e3c0 f i Test_Cinematic.obj
 0001:0002d480       ??1?$ScriptRegistrant@VDAK_TestScriptOne@@@@UAE@XZ 1002e480 f i Test_DAK.obj
 0001:0002d550       ??1?$ScriptRegistrant@VDAK_PlayerSpotted@@@@UAE@XZ 1002e550 f i Test_DAK.obj
 0001:0002d620       ??1?$ScriptRegistrant@VDAK_Fire_Gas_Elec_Death_DAK@@@@UAE@XZ 1002e620 f i Test_DAK.obj
 0001:0002d6f0       ??1?$ScriptRegistrant@VDAK_Vehicle_Regen_DAK@@@@UAE@XZ 1002e6f0 f i Test_DAK.obj
 0001:0002d7c0       ??1?$ScriptRegistrant@VDAK_Electric_Death_DAK@@@@UAE@XZ 1002e7c0 f i Test_DAK.obj
 0001:0002d890       ??1?$ScriptRegistrant@VDAK_PCT_Pokable_DAK@@@@UAE@XZ 1002e890 f i Test_DAK.obj
 0001:0002d960       ??1?$ScriptRegistrant@VM00_BUILDING_EXPLODE_NO_DAMAGE_DAK@@@@UAE@XZ 1002e960 f i Test_DAK.obj
 0001:0002d990       ??0?$ScriptRegistrant@VDAK_TestScriptOne@@@@QAE@PBD0@Z 1002e990 f i Test_DAK.obj
 0001:0002d9d0       ?Create@?$ScriptRegistrant@VDAK_TestScriptOne@@@@UAEPAVScriptImpClass@@XZ 1002e9d0 f i Test_DAK.obj
 0001:0002da70       ??0?$ScriptRegistrant@VDAK_PlayerSpotted@@@@QAE@PBD0@Z 1002ea70 f i Test_DAK.obj
 0001:0002dab0       ?Create@?$ScriptRegistrant@VDAK_PlayerSpotted@@@@UAEPAVScriptImpClass@@XZ 1002eab0 f i Test_DAK.obj
 0001:0002db50       ??0?$ScriptRegistrant@VDAK_Fire_Gas_Elec_Death_DAK@@@@QAE@PBD0@Z 1002eb50 f i Test_DAK.obj
 0001:0002db90       ?Create@?$ScriptRegistrant@VDAK_Fire_Gas_Elec_Death_DAK@@@@UAEPAVScriptImpClass@@XZ 1002eb90 f i Test_DAK.obj
 0001:0002dc30       ??0?$ScriptRegistrant@VDAK_Vehicle_Regen_DAK@@@@QAE@PBD0@Z 1002ec30 f i Test_DAK.obj
 0001:0002dc70       ?Create@?$ScriptRegistrant@VDAK_Vehicle_Regen_DAK@@@@UAEPAVScriptImpClass@@XZ 1002ec70 f i Test_DAK.obj
 0001:0002dd10       ??0?$ScriptRegistrant@VDAK_Electric_Death_DAK@@@@QAE@PBD0@Z 1002ed10 f i Test_DAK.obj
 0001:0002dd50       ?Create@?$ScriptRegistrant@VDAK_Electric_Death_DAK@@@@UAEPAVScriptImpClass@@XZ 1002ed50 f i Test_DAK.obj
 0001:0002ddf0       ??0?$ScriptRegistrant@VDAK_PCT_Pokable_DAK@@@@QAE@PBD0@Z 1002edf0 f i Test_DAK.obj
 0001:0002de30       ?Create@?$ScriptRegistrant@VDAK_PCT_Pokable_DAK@@@@UAEPAVScriptImpClass@@XZ 1002ee30 f i Test_DAK.obj
 0001:0002ded0       ??0?$ScriptRegistrant@VM00_BUILDING_EXPLODE_NO_DAMAGE_DAK@@@@QAE@PBD0@Z 1002eed0 f i Test_DAK.obj
 0001:0002df10       ?Create@?$ScriptRegistrant@VM00_BUILDING_EXPLODE_NO_DAMAGE_DAK@@@@UAEPAVScriptImpClass@@XZ 1002ef10 f i Test_DAK.obj
 0001:0002dfb0       ??_G?$ScriptRegistrant@VDAK_TestScriptOne@@@@UAEPAXI@Z 1002efb0 f i Test_DAK.obj
 0001:0002dfb0       ??_E?$ScriptRegistrant@VDAK_TestScriptOne@@@@UAEPAXI@Z 1002efb0 f i Test_DAK.obj
 0001:0002e000       ??0DAK_TestScriptOne@@QAE@XZ 1002f000 f i Test_DAK.obj
 0001:0002e030       ?Damaged@DAK_TestScriptOne@@EAEXPAVScriptableGameObj@@0M@Z 1002f030 f i Test_DAK.obj
 0001:0002e0e0       ??_G?$ScriptRegistrant@VDAK_PlayerSpotted@@@@UAEPAXI@Z 1002f0e0 f i Test_DAK.obj
 0001:0002e0e0       ??_E?$ScriptRegistrant@VDAK_PlayerSpotted@@@@UAEPAXI@Z 1002f0e0 f i Test_DAK.obj
 0001:0002e130       ??0DAK_PlayerSpotted@@QAE@XZ 1002f130 f i Test_DAK.obj
 0001:0002e160       ?Damaged@DAK_PlayerSpotted@@EAEXPAVScriptableGameObj@@0M@Z 1002f160 f i Test_DAK.obj
 0001:0002e270       ??_G?$ScriptRegistrant@VDAK_Fire_Gas_Elec_Death_DAK@@@@UAEPAXI@Z 1002f270 f i Test_DAK.obj
 0001:0002e270       ??_E?$ScriptRegistrant@VDAK_Fire_Gas_Elec_Death_DAK@@@@UAEPAXI@Z 1002f270 f i Test_DAK.obj
 0001:0002e2c0       ??0DAK_Fire_Gas_Elec_Death_DAK@@QAE@XZ 1002f2c0 f i Test_DAK.obj
 0001:0002e2f0       ?Damaged@DAK_Fire_Gas_Elec_Death_DAK@@EAEXPAVScriptableGameObj@@0M@Z 1002f2f0 f i Test_DAK.obj
 0001:0002e4a0       ?Action_Complete@DAK_Fire_Gas_Elec_Death_DAK@@EAEXPAVScriptableGameObj@@HW4ActionCompleteReason@@@Z 1002f4a0 f i Test_DAK.obj
 0001:0002e4f0       ??_E?$ScriptRegistrant@VDAK_Vehicle_Regen_DAK@@@@UAEPAXI@Z 1002f4f0 f i Test_DAK.obj
 0001:0002e4f0       ??_G?$ScriptRegistrant@VDAK_Vehicle_Regen_DAK@@@@UAEPAXI@Z 1002f4f0 f i Test_DAK.obj
 0001:0002e540       ??0DAK_Vehicle_Regen_DAK@@QAE@XZ 1002f540 f i Test_DAK.obj
 0001:0002e570       ?Created@DAK_Vehicle_Regen_DAK@@EAEXPAVScriptableGameObj@@@Z 1002f570 f i Test_DAK.obj
 0001:0002e5b0       ?Custom@DAK_Vehicle_Regen_DAK@@EAEXPAVScriptableGameObj@@HH0@Z 1002f5b0 f i Test_DAK.obj
 0001:0002e660       ??_E?$ScriptRegistrant@VDAK_Electric_Death_DAK@@@@UAEPAXI@Z 1002f660 f i Test_DAK.obj
 0001:0002e660       ??_G?$ScriptRegistrant@VDAK_Electric_Death_DAK@@@@UAEPAXI@Z 1002f660 f i Test_DAK.obj
 0001:0002e6b0       ??0DAK_Electric_Death_DAK@@QAE@XZ 1002f6b0 f i Test_DAK.obj
 0001:0002e6e0       ?Created@DAK_Electric_Death_DAK@@EAEXPAVScriptableGameObj@@@Z 1002f6e0 f i Test_DAK.obj
 0001:0002e750       ?Damaged@DAK_Electric_Death_DAK@@EAEXPAVScriptableGameObj@@0M@Z 1002f750 f i Test_DAK.obj
 0001:0002e7a0       ?Custom@DAK_Electric_Death_DAK@@EAEXPAVScriptableGameObj@@HH0@Z 1002f7a0 f i Test_DAK.obj
 0001:0002e8d0       ??_G?$ScriptRegistrant@VDAK_PCT_Pokable_DAK@@@@UAEPAXI@Z 1002f8d0 f i Test_DAK.obj
 0001:0002e8d0       ??_E?$ScriptRegistrant@VDAK_PCT_Pokable_DAK@@@@UAEPAXI@Z 1002f8d0 f i Test_DAK.obj
 0001:0002e920       ??0DAK_PCT_Pokable_DAK@@QAE@XZ 1002f920 f i Test_DAK.obj
 0001:0002e950       ?Created@DAK_PCT_Pokable_DAK@@EAEXPAVScriptableGameObj@@@Z 1002f950 f i Test_DAK.obj
 0001:0002e990       ??_E?$ScriptRegistrant@VM00_BUILDING_EXPLODE_NO_DAMAGE_DAK@@@@UAEPAXI@Z 1002f990 f i Test_DAK.obj
 0001:0002e990       ??_G?$ScriptRegistrant@VM00_BUILDING_EXPLODE_NO_DAMAGE_DAK@@@@UAEPAXI@Z 1002f990 f i Test_DAK.obj
 0001:0002e9e0       ??0M00_BUILDING_EXPLODE_NO_DAMAGE_DAK@@QAE@XZ 1002f9e0 f i Test_DAK.obj
 0001:0002ea10       ?Killed@M00_BUILDING_EXPLODE_NO_DAMAGE_DAK@@EAEXPAVScriptableGameObj@@0@Z 1002fa10 f i Test_DAK.obj
 0001:0002ea70       ??_GDAK_TestScriptOne@@UAEPAXI@Z 1002fa70 f i Test_DAK.obj
 0001:0002ea70       ??_EDAK_TestScriptOne@@UAEPAXI@Z 1002fa70 f i Test_DAK.obj
 0001:0002eac0       ??_EDAK_PlayerSpotted@@UAEPAXI@Z 1002fac0 f i Test_DAK.obj
 0001:0002eac0       ??_GDAK_PlayerSpotted@@UAEPAXI@Z 1002fac0 f i Test_DAK.obj
 0001:0002eb10       ??_EDAK_Fire_Gas_Elec_Death_DAK@@UAEPAXI@Z 1002fb10 f i Test_DAK.obj
 0001:0002eb10       ??_GDAK_Fire_Gas_Elec_Death_DAK@@UAEPAXI@Z 1002fb10 f i Test_DAK.obj
 0001:0002eb60       ??_GDAK_Vehicle_Regen_DAK@@UAEPAXI@Z 1002fb60 f i Test_DAK.obj
 0001:0002eb60       ??_EDAK_Vehicle_Regen_DAK@@UAEPAXI@Z 1002fb60 f i Test_DAK.obj
 0001:0002ebb0       ??_EDAK_Electric_Death_DAK@@UAEPAXI@Z 1002fbb0 f i Test_DAK.obj
 0001:0002ebb0       ??_GDAK_Electric_Death_DAK@@UAEPAXI@Z 1002fbb0 f i Test_DAK.obj
 0001:0002ec00       ??_EDAK_PCT_Pokable_DAK@@UAEPAXI@Z 1002fc00 f i Test_DAK.obj
 0001:0002ec00       ??_GDAK_PCT_Pokable_DAK@@UAEPAXI@Z 1002fc00 f i Test_DAK.obj
 0001:0002ec50       ??_EM00_BUILDING_EXPLODE_NO_DAMAGE_DAK@@UAEPAXI@Z 1002fc50 f i Test_DAK.obj
 0001:0002ec50       ??_GM00_BUILDING_EXPLODE_NO_DAMAGE_DAK@@UAEPAXI@Z 1002fc50 f i Test_DAK.obj
 0001:0002eca0       ??1DAK_TestScriptOne@@UAE@XZ 1002fca0 f i Test_DAK.obj
 0001:0002ecd0       ??1DAK_PlayerSpotted@@UAE@XZ 1002fcd0 f i Test_DAK.obj
 0001:0002ed00       ??1DAK_Fire_Gas_Elec_Death_DAK@@UAE@XZ 1002fd00 f i Test_DAK.obj
 0001:0002ed30       ??1DAK_Vehicle_Regen_DAK@@UAE@XZ 1002fd30 f i Test_DAK.obj
 0001:0002ed60       ??1DAK_Electric_Death_DAK@@UAE@XZ 1002fd60 f i Test_DAK.obj
 0001:0002ed90       ??1DAK_PCT_Pokable_DAK@@UAE@XZ 1002fd90 f i Test_DAK.obj
 0001:0002edc0       ??1M00_BUILDING_EXPLODE_NO_DAMAGE_DAK@@UAE@XZ 1002fdc0 f i Test_DAK.obj
 0001:0002edf0       ?Set_Attack@ActionParamsStruct@@QAEXPAVScriptableGameObj@@MM_N@Z 1002fdf0 f i Test_DAK.obj
 0001:0002ee40       ?Set_Animation@ActionParamsStruct@@QAEXPBD_N@Z 1002fe40 f i Test_DAK.obj
 0001:0002ee80       ?Created@ScriptImpClass@@UAEXPAVScriptableGameObj@@@Z 1002fe80 f i Test_DAK.obj
 0001:0002ef40       ??1?$ScriptRegistrant@VM00_Screenshot_Poser_DAY@@@@UAE@XZ 1002ff40 f i Test_DAY.obj
 0001:0002f010       ??1?$ScriptRegistrant@VDAY_TestScriptOne@@@@UAE@XZ 10030010 f i Test_DAY.obj
 0001:0002f0e0       ??1?$ScriptRegistrant@VDAY_TestScriptTwo@@@@UAE@XZ 100300e0 f i Test_DAY.obj
 0001:0002f1b0       ??1?$ScriptRegistrant@VDAY_TestScriptThree@@@@UAE@XZ 100301b0 f i Test_DAY.obj
 0001:0002f280       ??1?$ScriptRegistrant@VDAY_VTOL_CircleAttack@@@@UAE@XZ 10030280 f i Test_DAY.obj
 0001:0002f350       ??1?$ScriptRegistrant@VM00_GrantPowerup_Created@@@@UAE@XZ 10030350 f i Test_DAY.obj
 0001:0002f420       ??1?$ScriptRegistrant@VM00_VisceroidInnate_DAY@@@@UAE@XZ 10030420 f i Test_DAY.obj
 0001:0002f4f0       ??1?$ScriptRegistrant@VM00_DestroyedStateObject_DAY@@@@UAE@XZ 100304f0 f i Test_DAY.obj
 0001:0002f5c0       ??1?$ScriptRegistrant@VM00_Play_Sound_Object_Bone_DAY@@@@UAE@XZ 100305c0 f i Test_DAY.obj
 0001:0002f690       ??1?$ScriptRegistrant@VM00_PlayAnimation_DestroyObject_DAY@@@@UAE@XZ 10030690 f i Test_DAY.obj
 0001:0002f760       ??1?$ScriptRegistrant@VM00_Disable_Loiter_DAY@@@@UAE@XZ 10030760 f i Test_DAY.obj
 0001:0002f830       ??1?$ScriptRegistrant@VM00_Cinematic_Kill_Object_DAY@@@@UAE@XZ 10030830 f i Test_DAY.obj
 0001:0002f900       ??1?$ScriptRegistrant@VM00_Set_Background_Music_DAY@@@@UAE@XZ 10030900 f i Test_DAY.obj
 0001:0002f930       ??0?$ScriptRegistrant@VM00_Screenshot_Poser_DAY@@@@QAE@PBD0@Z 10030930 f i Test_DAY.obj
 0001:0002f970       ?Create@?$ScriptRegistrant@VM00_Screenshot_Poser_DAY@@@@UAEPAVScriptImpClass@@XZ 10030970 f i Test_DAY.obj
 0001:0002fa10       ??0?$ScriptRegistrant@VDAY_TestScriptOne@@@@QAE@PBD0@Z 10030a10 f i Test_DAY.obj
 0001:0002fa50       ?Create@?$ScriptRegistrant@VDAY_TestScriptOne@@@@UAEPAVScriptImpClass@@XZ 10030a50 f i Test_DAY.obj
 0001:0002faf0       ??0?$ScriptRegistrant@VDAY_TestScriptTwo@@@@QAE@PBD0@Z 10030af0 f i Test_DAY.obj
 0001:0002fb30       ?Create@?$ScriptRegistrant@VDAY_TestScriptTwo@@@@UAEPAVScriptImpClass@@XZ 10030b30 f i Test_DAY.obj
 0001:0002fbd0       ??0?$ScriptRegistrant@VDAY_TestScriptThree@@@@QAE@PBD0@Z 10030bd0 f i Test_DAY.obj
 0001:0002fc10       ?Create@?$ScriptRegistrant@VDAY_TestScriptThree@@@@UAEPAVScriptImpClass@@XZ 10030c10 f i Test_DAY.obj
 0001:0002fcb0       ??0?$ScriptRegistrant@VDAY_VTOL_CircleAttack@@@@QAE@PBD0@Z 10030cb0 f i Test_DAY.obj
 0001:0002fcf0       ?Create@?$ScriptRegistrant@VDAY_VTOL_CircleAttack@@@@UAEPAVScriptImpClass@@XZ 10030cf0 f i Test_DAY.obj
 0001:0002fd90       ??0?$ScriptRegistrant@VM00_GrantPowerup_Created@@@@QAE@PBD0@Z 10030d90 f i Test_DAY.obj
 0001:0002fdd0       ?Create@?$ScriptRegistrant@VM00_GrantPowerup_Created@@@@UAEPAVScriptImpClass@@XZ 10030dd0 f i Test_DAY.obj
 0001:0002fe70       ??0?$ScriptRegistrant@VM00_VisceroidInnate_DAY@@@@QAE@PBD0@Z 10030e70 f i Test_DAY.obj
 0001:0002feb0       ?Create@?$ScriptRegistrant@VM00_VisceroidInnate_DAY@@@@UAEPAVScriptImpClass@@XZ 10030eb0 f i Test_DAY.obj
 0001:0002ff50       ??0?$ScriptRegistrant@VM00_DestroyedStateObject_DAY@@@@QAE@PBD0@Z 10030f50 f i Test_DAY.obj
 0001:0002ff90       ?Create@?$ScriptRegistrant@VM00_DestroyedStateObject_DAY@@@@UAEPAVScriptImpClass@@XZ 10030f90 f i Test_DAY.obj
 0001:00030030       ??0?$ScriptRegistrant@VM00_Play_Sound_Object_Bone_DAY@@@@QAE@PBD0@Z 10031030 f i Test_DAY.obj
 0001:00030070       ?Create@?$ScriptRegistrant@VM00_Play_Sound_Object_Bone_DAY@@@@UAEPAVScriptImpClass@@XZ 10031070 f i Test_DAY.obj
 0001:00030110       ??0?$ScriptRegistrant@VM00_PlayAnimation_DestroyObject_DAY@@@@QAE@PBD0@Z 10031110 f i Test_DAY.obj
 0001:00030150       ?Create@?$ScriptRegistrant@VM00_PlayAnimation_DestroyObject_DAY@@@@UAEPAVScriptImpClass@@XZ 10031150 f i Test_DAY.obj
 0001:000301f0       ??0?$ScriptRegistrant@VM00_Disable_Loiter_DAY@@@@QAE@PBD0@Z 100311f0 f i Test_DAY.obj
 0001:00030230       ?Create@?$ScriptRegistrant@VM00_Disable_Loiter_DAY@@@@UAEPAVScriptImpClass@@XZ 10031230 f i Test_DAY.obj
 0001:000302d0       ??0?$ScriptRegistrant@VM00_Cinematic_Kill_Object_DAY@@@@QAE@PBD0@Z 100312d0 f i Test_DAY.obj
 0001:00030310       ?Create@?$ScriptRegistrant@VM00_Cinematic_Kill_Object_DAY@@@@UAEPAVScriptImpClass@@XZ 10031310 f i Test_DAY.obj
 0001:000303b0       ??0?$ScriptRegistrant@VM00_Set_Background_Music_DAY@@@@QAE@PBD0@Z 100313b0 f i Test_DAY.obj
 0001:000303f0       ?Create@?$ScriptRegistrant@VM00_Set_Background_Music_DAY@@@@UAEPAVScriptImpClass@@XZ 100313f0 f i Test_DAY.obj
 0001:00030490       ??_G?$ScriptRegistrant@VM00_Screenshot_Poser_DAY@@@@UAEPAXI@Z 10031490 f i Test_DAY.obj
 0001:00030490       ??_E?$ScriptRegistrant@VM00_Screenshot_Poser_DAY@@@@UAEPAXI@Z 10031490 f i Test_DAY.obj
 0001:000304e0       ??0M00_Screenshot_Poser_DAY@@QAE@XZ 100314e0 f i Test_DAY.obj
 0001:00030510       ?Created@M00_Screenshot_Poser_DAY@@EAEXPAVScriptableGameObj@@@Z 10031510 f i Test_DAY.obj
 0001:00030650       ?Action_Complete@M00_Screenshot_Poser_DAY@@EAEXPAVScriptableGameObj@@HW4ActionCompleteReason@@@Z 10031650 f i Test_DAY.obj
 0001:000306e0       ??_G?$ScriptRegistrant@VDAY_TestScriptOne@@@@UAEPAXI@Z 100316e0 f i Test_DAY.obj
 0001:000306e0       ??_E?$ScriptRegistrant@VDAY_TestScriptOne@@@@UAEPAXI@Z 100316e0 f i Test_DAY.obj
 0001:00030730       ??0DAY_TestScriptOne@@QAE@XZ 10031730 f i Test_DAY.obj
 0001:00030760       ?Created@DAY_TestScriptOne@@EAEXPAVScriptableGameObj@@@Z 10031760 f i Test_DAY.obj
 0001:00030890       ?Custom@DAY_TestScriptOne@@EAEXPAVScriptableGameObj@@HH0@Z 10031890 f i Test_DAY.obj
 0001:00030ad0       ??_G?$ScriptRegistrant@VDAY_TestScriptTwo@@@@UAEPAXI@Z 10031ad0 f i Test_DAY.obj
 0001:00030ad0       ??_E?$ScriptRegistrant@VDAY_TestScriptTwo@@@@UAEPAXI@Z 10031ad0 f i Test_DAY.obj
 0001:00030b20       ??0DAY_TestScriptTwo@@QAE@XZ 10031b20 f i Test_DAY.obj
 0001:00030b50       ?Created@DAY_TestScriptTwo@@EAEXPAVScriptableGameObj@@@Z 10031b50 f i Test_DAY.obj
 0001:00030b90       ??_E?$ScriptRegistrant@VDAY_TestScriptThree@@@@UAEPAXI@Z 10031b90 f i Test_DAY.obj
 0001:00030b90       ??_G?$ScriptRegistrant@VDAY_TestScriptThree@@@@UAEPAXI@Z 10031b90 f i Test_DAY.obj
 0001:00030be0       ??0DAY_TestScriptThree@@QAE@XZ 10031be0 f i Test_DAY.obj
 0001:00030c10       ?Created@DAY_TestScriptThree@@EAEXPAVScriptableGameObj@@@Z 10031c10 f i Test_DAY.obj
 0001:00030c70       ??_G?$ScriptRegistrant@VDAY_VTOL_CircleAttack@@@@UAEPAXI@Z 10031c70 f i Test_DAY.obj
 0001:00030c70       ??_E?$ScriptRegistrant@VDAY_VTOL_CircleAttack@@@@UAEPAXI@Z 10031c70 f i Test_DAY.obj
 0001:00030cc0       ??0DAY_VTOL_CircleAttack@@QAE@XZ 10031cc0 f i Test_DAY.obj
 0001:00030cf0       ?Created@DAY_VTOL_CircleAttack@@EAEXPAVScriptableGameObj@@@Z 10031cf0 f i Test_DAY.obj
 0001:00030d10       ?Damaged@DAY_VTOL_CircleAttack@@EAEXPAVScriptableGameObj@@0M@Z 10031d10 f i Test_DAY.obj
 0001:00030d80       ?Custom@DAY_VTOL_CircleAttack@@EAEXPAVScriptableGameObj@@HH0@Z 10031d80 f i Test_DAY.obj
 0001:00030ec0       ?Get_Circle_Position@DAY_VTOL_CircleAttack@@AAE?AVVector3@@PAVScriptableGameObj@@0MM@Z 10031ec0 f i Test_DAY.obj
 0001:00031010       ??YVector3@@QAEAAV0@ABV0@@Z 10032010 f i Test_DAY.obj
 0001:00031070       ??XVector3@@QAEAAV0@M@Z    10032070 f i Test_DAY.obj
 0001:000310d0       ??G@YA?AVVector3@@ABV0@0@Z 100320d0 f i Test_DAY.obj
 0001:00031130       ?Normalize@Vector3@@QAEXXZ 10032130 f i Test_DAY.obj
 0001:000311c0       ?Inv_Sqrt@WWMath@@SIMM@Z   100321c0 f i Test_DAY.obj
 0001:00031230       ?Length2@Vector3@@QBEMXZ   10032230 f i Test_DAY.obj
 0001:00031280       ??_G?$ScriptRegistrant@VM00_GrantPowerup_Created@@@@UAEPAXI@Z 10032280 f i Test_DAY.obj
 0001:00031280       ??_E?$ScriptRegistrant@VM00_GrantPowerup_Created@@@@UAEPAXI@Z 10032280 f i Test_DAY.obj
 0001:000312d0       ??0M00_GrantPowerup_Created@@QAE@XZ 100322d0 f i Test_DAY.obj
 0001:00031300       ?Created@M00_GrantPowerup_Created@@EAEXPAVScriptableGameObj@@@Z 10032300 f i Test_DAY.obj
 0001:00031350       ??_G?$ScriptRegistrant@VM00_VisceroidInnate_DAY@@@@UAEPAXI@Z 10032350 f i Test_DAY.obj
 0001:00031350       ??_E?$ScriptRegistrant@VM00_VisceroidInnate_DAY@@@@UAEPAXI@Z 10032350 f i Test_DAY.obj
 0001:000313a0       ??0M00_VisceroidInnate_DAY@@QAE@XZ 100323a0 f i Test_DAY.obj
 0001:000313d0       ?Created@M00_VisceroidInnate_DAY@@EAEXPAVScriptableGameObj@@@Z 100323d0 f i Test_DAY.obj
 0001:00031440       ?Killed@M00_VisceroidInnate_DAY@@EAEXPAVScriptableGameObj@@0@Z 10032440 f i Test_DAY.obj
 0001:00031490       ??_E?$ScriptRegistrant@VM00_DestroyedStateObject_DAY@@@@UAEPAXI@Z 10032490 f i Test_DAY.obj
 0001:00031490       ??_G?$ScriptRegistrant@VM00_DestroyedStateObject_DAY@@@@UAEPAXI@Z 10032490 f i Test_DAY.obj
 0001:000314e0       ??0M00_DestroyedStateObject_DAY@@QAE@XZ 100324e0 f i Test_DAY.obj
 0001:00031510       ?Destroyed@M00_DestroyedStateObject_DAY@@EAEXPAVScriptableGameObj@@@Z 10032510 f i Test_DAY.obj
 0001:000315a0       ??_E?$ScriptRegistrant@VM00_Play_Sound_Object_Bone_DAY@@@@UAEPAXI@Z 100325a0 f i Test_DAY.obj
 0001:000315a0       ??_G?$ScriptRegistrant@VM00_Play_Sound_Object_Bone_DAY@@@@UAEPAXI@Z 100325a0 f i Test_DAY.obj
 0001:000315f0       ??0M00_Play_Sound_Object_Bone_DAY@@QAE@XZ 100325f0 f i Test_DAY.obj
 0001:00031620       ?Created@M00_Play_Sound_Object_Bone_DAY@@EAEXPAVScriptableGameObj@@@Z 10032620 f i Test_DAY.obj
 0001:000316d0       ?Timer_Expired@M00_Play_Sound_Object_Bone_DAY@@EAEXPAVScriptableGameObj@@H@Z 100326d0 f i Test_DAY.obj
 0001:000317a0       ?Custom@M00_Play_Sound_Object_Bone_DAY@@EAEXPAVScriptableGameObj@@HH0@Z 100327a0 f i Test_DAY.obj
 0001:00031840       ??_E?$ScriptRegistrant@VM00_PlayAnimation_DestroyObject_DAY@@@@UAEPAXI@Z 10032840 f i Test_DAY.obj
 0001:00031840       ??_G?$ScriptRegistrant@VM00_PlayAnimation_DestroyObject_DAY@@@@UAEPAXI@Z 10032840 f i Test_DAY.obj
 0001:00031890       ??0M00_PlayAnimation_DestroyObject_DAY@@QAE@XZ 10032890 f i Test_DAY.obj
 0001:000318c0       ?Created@M00_PlayAnimation_DestroyObject_DAY@@EAEXPAVScriptableGameObj@@@Z 100328c0 f i Test_DAY.obj
 0001:00031920       ?Animation_Complete@M00_PlayAnimation_DestroyObject_DAY@@EAEXPAVScriptableGameObj@@PBD@Z 10032920 f i Test_DAY.obj
 0001:00031950       ??_E?$ScriptRegistrant@VM00_Disable_Loiter_DAY@@@@UAEPAXI@Z 10032950 f i Test_DAY.obj
 0001:00031950       ??_G?$ScriptRegistrant@VM00_Disable_Loiter_DAY@@@@UAEPAXI@Z 10032950 f i Test_DAY.obj
 0001:000319a0       ??0M00_Disable_Loiter_DAY@@QAE@XZ 100329a0 f i Test_DAY.obj
 0001:000319d0       ?Created@M00_Disable_Loiter_DAY@@EAEXPAVScriptableGameObj@@@Z 100329d0 f i Test_DAY.obj
 0001:00031a10       ?Custom@M00_Disable_Loiter_DAY@@EAEXPAVScriptableGameObj@@HH0@Z 10032a10 f i Test_DAY.obj
 0001:00031a50       ??_E?$ScriptRegistrant@VM00_Cinematic_Kill_Object_DAY@@@@UAEPAXI@Z 10032a50 f i Test_DAY.obj
 0001:00031a50       ??_G?$ScriptRegistrant@VM00_Cinematic_Kill_Object_DAY@@@@UAEPAXI@Z 10032a50 f i Test_DAY.obj
 0001:00031aa0       ??0M00_Cinematic_Kill_Object_DAY@@QAE@XZ 10032aa0 f i Test_DAY.obj
 0001:00031ad0       ?Created@M00_Cinematic_Kill_Object_DAY@@EAEXPAVScriptableGameObj@@@Z 10032ad0 f i Test_DAY.obj
 0001:00031b20       ??_G?$ScriptRegistrant@VM00_Set_Background_Music_DAY@@@@UAEPAXI@Z 10032b20 f i Test_DAY.obj
 0001:00031b20       ??_E?$ScriptRegistrant@VM00_Set_Background_Music_DAY@@@@UAEPAXI@Z 10032b20 f i Test_DAY.obj
 0001:00031b70       ??0M00_Set_Background_Music_DAY@@QAE@XZ 10032b70 f i Test_DAY.obj
 0001:00031ba0       ?Created@M00_Set_Background_Music_DAY@@EAEXPAVScriptableGameObj@@@Z 10032ba0 f i Test_DAY.obj
 0001:00031be0       ??_EM00_Screenshot_Poser_DAY@@UAEPAXI@Z 10032be0 f i Test_DAY.obj
 0001:00031be0       ??_GM00_Screenshot_Poser_DAY@@UAEPAXI@Z 10032be0 f i Test_DAY.obj
 0001:00031c30       ??_EDAY_TestScriptOne@@UAEPAXI@Z 10032c30 f i Test_DAY.obj
 0001:00031c30       ??_GDAY_TestScriptOne@@UAEPAXI@Z 10032c30 f i Test_DAY.obj
 0001:00031c80       ??_EDAY_TestScriptTwo@@UAEPAXI@Z 10032c80 f i Test_DAY.obj
 0001:00031c80       ??_GDAY_TestScriptTwo@@UAEPAXI@Z 10032c80 f i Test_DAY.obj
 0001:00031cd0       ?Rotate_Z@Vector3@@QAEXM@Z 10032cd0 f i Test_DAY.obj
 0001:00031d20       _cosf                      10032d20 f i Test_DAY.obj
 0001:00031d50       _sinf                      10032d50 f i Test_DAY.obj
 0001:00031d80       ??_GDAY_TestScriptThree@@UAEPAXI@Z 10032d80 f i Test_DAY.obj
 0001:00031d80       ??_EDAY_TestScriptThree@@UAEPAXI@Z 10032d80 f i Test_DAY.obj
 0001:00031dd0       ?Rotate_Z@Vector3@@QAEXMM@Z 10032dd0 f i Test_DAY.obj
 0001:00031e30       ??_EDAY_VTOL_CircleAttack@@UAEPAXI@Z 10032e30 f i Test_DAY.obj
 0001:00031e30       ??_GDAY_VTOL_CircleAttack@@UAEPAXI@Z 10032e30 f i Test_DAY.obj
 0001:00031e80       ??_GM00_GrantPowerup_Created@@UAEPAXI@Z 10032e80 f i Test_DAY.obj
 0001:00031e80       ??_EM00_GrantPowerup_Created@@UAEPAXI@Z 10032e80 f i Test_DAY.obj
 0001:00031ed0       ??_GM00_VisceroidInnate_DAY@@UAEPAXI@Z 10032ed0 f i Test_DAY.obj
 0001:00031ed0       ??_EM00_VisceroidInnate_DAY@@UAEPAXI@Z 10032ed0 f i Test_DAY.obj
 0001:00031f20       ??_EM00_DestroyedStateObject_DAY@@UAEPAXI@Z 10032f20 f i Test_DAY.obj
 0001:00031f20       ??_GM00_DestroyedStateObject_DAY@@UAEPAXI@Z 10032f20 f i Test_DAY.obj
 0001:00031f70       ??_EM00_Play_Sound_Object_Bone_DAY@@UAEPAXI@Z 10032f70 f i Test_DAY.obj
 0001:00031f70       ??_GM00_Play_Sound_Object_Bone_DAY@@UAEPAXI@Z 10032f70 f i Test_DAY.obj
 0001:00031fc0       ??_EM00_PlayAnimation_DestroyObject_DAY@@UAEPAXI@Z 10032fc0 f i Test_DAY.obj
 0001:00031fc0       ??_GM00_PlayAnimation_DestroyObject_DAY@@UAEPAXI@Z 10032fc0 f i Test_DAY.obj
 0001:00032010       ??_EM00_Disable_Loiter_DAY@@UAEPAXI@Z 10033010 f i Test_DAY.obj
 0001:00032010       ??_GM00_Disable_Loiter_DAY@@UAEPAXI@Z 10033010 f i Test_DAY.obj
 0001:00032060       ??_EM00_Cinematic_Kill_Object_DAY@@UAEPAXI@Z 10033060 f i Test_DAY.obj
 0001:00032060       ??_GM00_Cinematic_Kill_Object_DAY@@UAEPAXI@Z 10033060 f i Test_DAY.obj
 0001:000320b0       ??_GM00_Set_Background_Music_DAY@@UAEPAXI@Z 100330b0 f i Test_DAY.obj
 0001:000320b0       ??_EM00_Set_Background_Music_DAY@@UAEPAXI@Z 100330b0 f i Test_DAY.obj
 0001:00032100       ??1M00_Screenshot_Poser_DAY@@UAE@XZ 10033100 f i Test_DAY.obj
 0001:00032130       ??1DAY_TestScriptOne@@UAE@XZ 10033130 f i Test_DAY.obj
 0001:00032160       ??1DAY_TestScriptTwo@@UAE@XZ 10033160 f i Test_DAY.obj
 0001:00032190       ??1DAY_TestScriptThree@@UAE@XZ 10033190 f i Test_DAY.obj
 0001:000321c0       ??1DAY_VTOL_CircleAttack@@UAE@XZ 100331c0 f i Test_DAY.obj
 0001:000321f0       ??1M00_GrantPowerup_Created@@UAE@XZ 100331f0 f i Test_DAY.obj
 0001:00032220       ??1M00_VisceroidInnate_DAY@@UAE@XZ 10033220 f i Test_DAY.obj
 0001:00032250       ??1M00_DestroyedStateObject_DAY@@UAE@XZ 10033250 f i Test_DAY.obj
 0001:00032280       ??1M00_Play_Sound_Object_Bone_DAY@@UAE@XZ 10033280 f i Test_DAY.obj
 0001:000322b0       ??1M00_PlayAnimation_DestroyObject_DAY@@UAE@XZ 100332b0 f i Test_DAY.obj
 0001:000322e0       ??1M00_Disable_Loiter_DAY@@UAE@XZ 100332e0 f i Test_DAY.obj
 0001:00032310       ??1M00_Cinematic_Kill_Object_DAY@@UAE@XZ 10033310 f i Test_DAY.obj
 0001:00032340       ??1M00_Set_Background_Music_DAY@@UAE@XZ 10033340 f i Test_DAY.obj
 0001:00032370       ?Set_Movement@ActionParamsStruct@@QAEXABVVector3@@MM_N@Z 10033370 f i Test_DAY.obj
 0001:00032460       ??1?$ScriptRegistrant@VDLS_SpawnTest@@@@UAE@XZ 10033460 f i Test_DLS.obj
 0001:00032530       ??1?$ScriptRegistrant@VDLS_Spawner@@@@UAE@XZ 10033530 f i Test_DLS.obj
 0001:00032600       ??1?$ScriptRegistrant@VDLS_Two_Way@@@@UAE@XZ 10033600 f i Test_DLS.obj
 0001:000326d0       ??1?$ScriptRegistrant@VDLS_Invulnerable_Test@@@@UAE@XZ 100336d0 f i Test_DLS.obj
 0001:000327a0       ??1?$ScriptRegistrant@VDLS_InnateIsStationary_Test@@@@UAE@XZ 100337a0 f i Test_DLS.obj
 0001:00032870       ??1?$ScriptRegistrant@VDLS_Camera_Test@@@@UAE@XZ 10033870 f i Test_DLS.obj
 0001:00032940       ??1?$ScriptRegistrant@VDLS_Gun_Test@@@@UAE@XZ 10033940 f i Test_DLS.obj
 0001:00032a10       ??1?$ScriptRegistrant@VDLS_Test_NULL@@@@UAE@XZ 10033a10 f i Test_DLS.obj
 0001:00032ae0       ??1?$ScriptRegistrant@VDLS_Rappelling_Activate@@@@UAE@XZ 10033ae0 f i Test_DLS.obj
 0001:00032bb0       ??1?$ScriptRegistrant@VDLS_Tank_Path_Test@@@@UAE@XZ 10033bb0 f i Test_DLS.obj
 0001:00032c80       ??1?$ScriptRegistrant@VDLS_Vehicle_Follow@@@@UAE@XZ 10033c80 f i Test_DLS.obj
 0001:00032d50       ??1?$ScriptRegistrant@VDLS_Filing_Cabinet@@@@UAE@XZ 10033d50 f i Test_DLS.obj
 0001:00032e20       ??1?$ScriptRegistrant@VDLS_Waypath_Test@@@@UAE@XZ 10033e20 f i Test_DLS.obj
 0001:00032ef0       ??1?$ScriptRegistrant@VM06_Camera_Behavior@@@@UAE@XZ 10033ef0 f i Test_DLS.obj
 0001:00032fc0       ??1?$ScriptRegistrant@VDLS_Test_Pickup@@@@UAE@XZ 10033fc0 f i Test_DLS.obj
 0001:00033090       ??1?$ScriptRegistrant@VDLS_Flame_Tank_Test@@@@UAE@XZ 10034090 f i Test_DLS.obj
 0001:00033160       ??1?$ScriptRegistrant@VDLS_Innate_Force_State@@@@UAE@XZ 10034160 f i Test_DLS.obj
 0001:00033230       ??1?$ScriptRegistrant@VDLS_Cargo_Plane_Test@@@@UAE@XZ 10034230 f i Test_DLS.obj
 0001:00033300       ??1?$ScriptRegistrant@VM00_C130_ParaDrop@@@@UAE@XZ 10034300 f i Test_DLS.obj
 0001:000333d0       ??1?$ScriptRegistrant@VM00_Reinforcement_C130@@@@UAE@XZ 100343d0 f i Test_DLS.obj
 0001:000334a0       ??1?$ScriptRegistrant@VDLS_Test_Conversation@@@@UAE@XZ 100344a0 f i Test_DLS.obj
 0001:00033570       ??1?$ScriptRegistrant@VDLS_Test_Zone_Timer@@@@UAE@XZ 10034570 f i Test_DLS.obj
 0001:00033640       ??1?$ScriptRegistrant@VDLS_Drop_Unit@@@@UAE@XZ 10034640 f i Test_DLS.obj
 0001:00033710       ??1?$ScriptRegistrant@VDLS_CNC_Sound@@@@UAE@XZ 10034710 f i Test_DLS.obj
 0001:000337e0       ??1?$ScriptRegistrant@VDLS_Spawn_Engineer@@@@UAE@XZ 100347e0 f i Test_DLS.obj
 0001:000338b0       ??1?$ScriptRegistrant@VDLS_Spawn_Engineer2@@@@UAE@XZ 100348b0 f i Test_DLS.obj
 0001:00033980       ??1?$ScriptRegistrant@VDLS_Test_Homepoint@@@@UAE@XZ 10034980 f i Test_DLS.obj
 0001:00033a50       ??1?$ScriptRegistrant@VDLS_Test_Apache@@@@UAE@XZ 10034a50 f i Test_DLS.obj
 0001:00033b20       ??1?$ScriptRegistrant@VDLS_Test_Tank@@@@UAE@XZ 10034b20 f i Test_DLS.obj
 0001:00033bf0       ??1?$ScriptRegistrant@VDLS_Goto_Unit@@@@UAE@XZ 10034bf0 f i Test_DLS.obj
 0001:00033cc0       ??1?$ScriptRegistrant@VDLS_Playertype@@@@UAE@XZ 10034cc0 f i Test_DLS.obj
 0001:00033d90       ??1?$ScriptRegistrant@VDLS_No_Innate@@@@UAE@XZ 10034d90 f i Test_DLS.obj
 0001:00033e60       ??1?$ScriptRegistrant@VDLS_ActionComplete_Test@@@@UAE@XZ 10034e60 f i Test_DLS.obj
 0001:00033f30       ??1?$ScriptRegistrant@VDLS_Artillery_Test@@@@UAE@XZ 10034f30 f i Test_DLS.obj
 0001:00034000       ??1?$ScriptRegistrant@VDLS_Cinematic_Test@@@@UAE@XZ 10035000 f i Test_DLS.obj
 0001:000340d0       ??1?$ScriptRegistrant@VDLS_SSM_Test@@@@UAE@XZ 100350d0 f i Test_DLS.obj
 0001:000341a0       ??1?$ScriptRegistrant@VDLS_Cinematic_Test2@@@@UAE@XZ 100351a0 f i Test_DLS.obj
 0001:00034270       ??1?$ScriptRegistrant@VDLS_Where_Am_I@@@@UAE@XZ 10035270 f i Test_DLS.obj
 0001:00034340       ??1?$ScriptRegistrant@VDLS_Test_Flyovers@@@@UAE@XZ 10035340 f i Test_DLS.obj
 0001:00034410       ??1?$ScriptRegistrant@VDLS_Test_Hand_Over_Head@@@@UAE@XZ 10035410 f i Test_DLS.obj
 0001:000344e0       ??1?$ScriptRegistrant@VDLS_Created_Too_Early@@@@UAE@XZ 100354e0 f i Test_DLS.obj
 0001:000345b0       ??1?$ScriptRegistrant@VDLS_Blink@@@@UAE@XZ 100355b0 f i Test_DLS.obj
 0001:00034680       ??1?$ScriptRegistrant@VDLS_Math@@@@UAE@XZ 10035680 f i Test_DLS.obj
 0001:00034750       ??1?$ScriptRegistrant@VDLS_Test_Evac@@@@UAE@XZ 10035750 f i Test_DLS.obj
 0001:00034820       ??1?$ScriptRegistrant@VDLS_Innate_Disable@@@@UAE@XZ 10035820 f i Test_DLS.obj
 0001:000348f0       ??1?$ScriptRegistrant@VMX0_Area4_Controller_DLS@@@@UAE@XZ 100358f0 f i Test_DLS.obj
 0001:000349c0       ??1?$ScriptRegistrant@VMX0_Area4_Zone_DLS@@@@UAE@XZ 100359c0 f i Test_DLS.obj
 0001:00034a90       ??1?$ScriptRegistrant@VMX0_Vehicle_DLS@@@@UAE@XZ 10035a90 f i Test_DLS.obj
 0001:00034b60       ??1?$ScriptRegistrant@VMX0_Obelisk_Weapon_DLS@@@@UAE@XZ 10035b60 f i Test_DLS.obj
 0001:00034c30       ??1?$ScriptRegistrant@VMX0_GDI_Killed_DLS@@@@UAE@XZ 10035c30 f i Test_DLS.obj
 0001:00034d00       ??1?$ScriptRegistrant@VMX0_GDI_Soldier_DLS@@@@UAE@XZ 10035d00 f i Test_DLS.obj
 0001:00034dd0       ??1?$ScriptRegistrant@VMX0_Gun_Emplacement_DLS@@@@UAE@XZ 10035dd0 f i Test_DLS.obj
 0001:00034ea0       ??1?$ScriptRegistrant@VMX0_Nod_RocketSoldier_DLS@@@@UAE@XZ 10035ea0 f i Test_DLS.obj
 0001:00034f70       ??1?$ScriptRegistrant@VMX0_SAM_DLS@@@@UAE@XZ 10035f70 f i Test_DLS.obj
 0001:00035040       ??1?$ScriptRegistrant@VMX0_Nod_Bunker_DLS@@@@UAE@XZ 10036040 f i Test_DLS.obj
 0001:00035110       ??1?$ScriptRegistrant@VMX0_Plant_Ion_Beacon_DLS@@@@UAE@XZ 10036110 f i Test_DLS.obj
 0001:000351e0       ??1?$ScriptRegistrant@VDLS_Star_No_Fall@@@@UAE@XZ 100361e0 f i Test_DLS.obj
 0001:000352b0       ??1?$ScriptRegistrant@VMX0_Explosive_Barrels_DLS@@@@UAE@XZ 100362b0 f i Test_DLS.obj
 0001:000352e0       ??0?$ScriptRegistrant@VDLS_SpawnTest@@@@QAE@PBD0@Z 100362e0 f i Test_DLS.obj
 0001:00035320       ?Create@?$ScriptRegistrant@VDLS_SpawnTest@@@@UAEPAVScriptImpClass@@XZ 10036320 f i Test_DLS.obj
 0001:000353c0       ??0?$ScriptRegistrant@VDLS_Spawner@@@@QAE@PBD0@Z 100363c0 f i Test_DLS.obj
 0001:00035400       ?Create@?$ScriptRegistrant@VDLS_Spawner@@@@UAEPAVScriptImpClass@@XZ 10036400 f i Test_DLS.obj
 0001:000354a0       ??0?$ScriptRegistrant@VDLS_Two_Way@@@@QAE@PBD0@Z 100364a0 f i Test_DLS.obj
 0001:000354e0       ?Create@?$ScriptRegistrant@VDLS_Two_Way@@@@UAEPAVScriptImpClass@@XZ 100364e0 f i Test_DLS.obj
 0001:00035580       ??0?$ScriptRegistrant@VDLS_Invulnerable_Test@@@@QAE@PBD0@Z 10036580 f i Test_DLS.obj
 0001:000355c0       ?Create@?$ScriptRegistrant@VDLS_Invulnerable_Test@@@@UAEPAVScriptImpClass@@XZ 100365c0 f i Test_DLS.obj
 0001:00035660       ??0?$ScriptRegistrant@VDLS_InnateIsStationary_Test@@@@QAE@PBD0@Z 10036660 f i Test_DLS.obj
 0001:000356a0       ?Create@?$ScriptRegistrant@VDLS_InnateIsStationary_Test@@@@UAEPAVScriptImpClass@@XZ 100366a0 f i Test_DLS.obj
 0001:00035740       ??0?$ScriptRegistrant@VDLS_Camera_Test@@@@QAE@PBD0@Z 10036740 f i Test_DLS.obj
 0001:00035780       ?Create@?$ScriptRegistrant@VDLS_Camera_Test@@@@UAEPAVScriptImpClass@@XZ 10036780 f i Test_DLS.obj
 0001:00035820       ??0?$ScriptRegistrant@VDLS_Gun_Test@@@@QAE@PBD0@Z 10036820 f i Test_DLS.obj
 0001:00035860       ?Create@?$ScriptRegistrant@VDLS_Gun_Test@@@@UAEPAVScriptImpClass@@XZ 10036860 f i Test_DLS.obj
 0001:00035900       ??0?$ScriptRegistrant@VDLS_Test_NULL@@@@QAE@PBD0@Z 10036900 f i Test_DLS.obj
 0001:00035940       ?Create@?$ScriptRegistrant@VDLS_Test_NULL@@@@UAEPAVScriptImpClass@@XZ 10036940 f i Test_DLS.obj
 0001:000359e0       ??0?$ScriptRegistrant@VDLS_Rappelling_Activate@@@@QAE@PBD0@Z 100369e0 f i Test_DLS.obj
 0001:00035a20       ?Create@?$ScriptRegistrant@VDLS_Rappelling_Activate@@@@UAEPAVScriptImpClass@@XZ 10036a20 f i Test_DLS.obj
 0001:00035ac0       ??0?$ScriptRegistrant@VDLS_Tank_Path_Test@@@@QAE@PBD0@Z 10036ac0 f i Test_DLS.obj
 0001:00035b00       ?Create@?$ScriptRegistrant@VDLS_Tank_Path_Test@@@@UAEPAVScriptImpClass@@XZ 10036b00 f i Test_DLS.obj
 0001:00035ba0       ??0?$ScriptRegistrant@VDLS_Vehicle_Follow@@@@QAE@PBD0@Z 10036ba0 f i Test_DLS.obj
 0001:00035be0       ?Create@?$ScriptRegistrant@VDLS_Vehicle_Follow@@@@UAEPAVScriptImpClass@@XZ 10036be0 f i Test_DLS.obj
 0001:00035c80       ??0?$ScriptRegistrant@VDLS_Filing_Cabinet@@@@QAE@PBD0@Z 10036c80 f i Test_DLS.obj
 0001:00035cc0       ?Create@?$ScriptRegistrant@VDLS_Filing_Cabinet@@@@UAEPAVScriptImpClass@@XZ 10036cc0 f i Test_DLS.obj
 0001:00035d60       ??0?$ScriptRegistrant@VDLS_Waypath_Test@@@@QAE@PBD0@Z 10036d60 f i Test_DLS.obj
 0001:00035da0       ?Create@?$ScriptRegistrant@VDLS_Waypath_Test@@@@UAEPAVScriptImpClass@@XZ 10036da0 f i Test_DLS.obj
 0001:00035e40       ??0?$ScriptRegistrant@VM06_Camera_Behavior@@@@QAE@PBD0@Z 10036e40 f i Test_DLS.obj
 0001:00035e80       ?Create@?$ScriptRegistrant@VM06_Camera_Behavior@@@@UAEPAVScriptImpClass@@XZ 10036e80 f i Test_DLS.obj
 0001:00035f20       ??0?$ScriptRegistrant@VDLS_Test_Pickup@@@@QAE@PBD0@Z 10036f20 f i Test_DLS.obj
 0001:00035f60       ?Create@?$ScriptRegistrant@VDLS_Test_Pickup@@@@UAEPAVScriptImpClass@@XZ 10036f60 f i Test_DLS.obj
 0001:00036000       ??0?$ScriptRegistrant@VDLS_Flame_Tank_Test@@@@QAE@PBD0@Z 10037000 f i Test_DLS.obj
 0001:00036040       ?Create@?$ScriptRegistrant@VDLS_Flame_Tank_Test@@@@UAEPAVScriptImpClass@@XZ 10037040 f i Test_DLS.obj
 0001:000360e0       ??0?$ScriptRegistrant@VDLS_Innate_Force_State@@@@QAE@PBD0@Z 100370e0 f i Test_DLS.obj
 0001:00036120       ?Create@?$ScriptRegistrant@VDLS_Innate_Force_State@@@@UAEPAVScriptImpClass@@XZ 10037120 f i Test_DLS.obj
 0001:000361c0       ??0?$ScriptRegistrant@VDLS_Cargo_Plane_Test@@@@QAE@PBD0@Z 100371c0 f i Test_DLS.obj
 0001:00036200       ?Create@?$ScriptRegistrant@VDLS_Cargo_Plane_Test@@@@UAEPAVScriptImpClass@@XZ 10037200 f i Test_DLS.obj
 0001:000362a0       ??0?$ScriptRegistrant@VM00_C130_ParaDrop@@@@QAE@PBD0@Z 100372a0 f i Test_DLS.obj
 0001:000362e0       ?Create@?$ScriptRegistrant@VM00_C130_ParaDrop@@@@UAEPAVScriptImpClass@@XZ 100372e0 f i Test_DLS.obj
 0001:00036380       ??0?$ScriptRegistrant@VM00_Reinforcement_C130@@@@QAE@PBD0@Z 10037380 f i Test_DLS.obj
 0001:000363c0       ?Create@?$ScriptRegistrant@VM00_Reinforcement_C130@@@@UAEPAVScriptImpClass@@XZ 100373c0 f i Test_DLS.obj
 0001:00036460       ??0?$ScriptRegistrant@VDLS_Test_Conversation@@@@QAE@PBD0@Z 10037460 f i Test_DLS.obj
 0001:000364a0       ?Create@?$ScriptRegistrant@VDLS_Test_Conversation@@@@UAEPAVScriptImpClass@@XZ 100374a0 f i Test_DLS.obj
 0001:00036540       ??0?$ScriptRegistrant@VDLS_Test_Zone_Timer@@@@QAE@PBD0@Z 10037540 f i Test_DLS.obj
 0001:00036580       ?Create@?$ScriptRegistrant@VDLS_Test_Zone_Timer@@@@UAEPAVScriptImpClass@@XZ 10037580 f i Test_DLS.obj
 0001:00036620       ??0?$ScriptRegistrant@VDLS_Drop_Unit@@@@QAE@PBD0@Z 10037620 f i Test_DLS.obj
 0001:00036660       ?Create@?$ScriptRegistrant@VDLS_Drop_Unit@@@@UAEPAVScriptImpClass@@XZ 10037660 f i Test_DLS.obj
 0001:00036700       ??0?$ScriptRegistrant@VDLS_CNC_Sound@@@@QAE@PBD0@Z 10037700 f i Test_DLS.obj
 0001:00036740       ?Create@?$ScriptRegistrant@VDLS_CNC_Sound@@@@UAEPAVScriptImpClass@@XZ 10037740 f i Test_DLS.obj
 0001:000367e0       ??0?$ScriptRegistrant@VDLS_Spawn_Engineer@@@@QAE@PBD0@Z 100377e0 f i Test_DLS.obj
 0001:00036820       ?Create@?$ScriptRegistrant@VDLS_Spawn_Engineer@@@@UAEPAVScriptImpClass@@XZ 10037820 f i Test_DLS.obj
 0001:000368c0       ??0?$ScriptRegistrant@VDLS_Spawn_Engineer2@@@@QAE@PBD0@Z 100378c0 f i Test_DLS.obj
 0001:00036900       ?Create@?$ScriptRegistrant@VDLS_Spawn_Engineer2@@@@UAEPAVScriptImpClass@@XZ 10037900 f i Test_DLS.obj
 0001:000369a0       ??0?$ScriptRegistrant@VDLS_Test_Homepoint@@@@QAE@PBD0@Z 100379a0 f i Test_DLS.obj
 0001:000369e0       ?Create@?$ScriptRegistrant@VDLS_Test_Homepoint@@@@UAEPAVScriptImpClass@@XZ 100379e0 f i Test_DLS.obj
 0001:00036a80       ??0?$ScriptRegistrant@VDLS_Test_Apache@@@@QAE@PBD0@Z 10037a80 f i Test_DLS.obj
 0001:00036ac0       ?Create@?$ScriptRegistrant@VDLS_Test_Apache@@@@UAEPAVScriptImpClass@@XZ 10037ac0 f i Test_DLS.obj
 0001:00036b60       ??0?$ScriptRegistrant@VDLS_Test_Tank@@@@QAE@PBD0@Z 10037b60 f i Test_DLS.obj
 0001:00036ba0       ?Create@?$ScriptRegistrant@VDLS_Test_Tank@@@@UAEPAVScriptImpClass@@XZ 10037ba0 f i Test_DLS.obj
 0001:00036c40       ??0?$ScriptRegistrant@VDLS_Goto_Unit@@@@QAE@PBD0@Z 10037c40 f i Test_DLS.obj
 0001:00036c80       ?Create@?$ScriptRegistrant@VDLS_Goto_Unit@@@@UAEPAVScriptImpClass@@XZ 10037c80 f i Test_DLS.obj
 0001:00036d20       ??0?$ScriptRegistrant@VDLS_Playertype@@@@QAE@PBD0@Z 10037d20 f i Test_DLS.obj
 0001:00036d60       ?Create@?$ScriptRegistrant@VDLS_Playertype@@@@UAEPAVScriptImpClass@@XZ 10037d60 f i Test_DLS.obj
 0001:00036e00       ??0?$ScriptRegistrant@VDLS_No_Innate@@@@QAE@PBD0@Z 10037e00 f i Test_DLS.obj
 0001:00036e40       ?Create@?$ScriptRegistrant@VDLS_No_Innate@@@@UAEPAVScriptImpClass@@XZ 10037e40 f i Test_DLS.obj
 0001:00036ee0       ??0?$ScriptRegistrant@VDLS_ActionComplete_Test@@@@QAE@PBD0@Z 10037ee0 f i Test_DLS.obj
 0001:00036f20       ?Create@?$ScriptRegistrant@VDLS_ActionComplete_Test@@@@UAEPAVScriptImpClass@@XZ 10037f20 f i Test_DLS.obj
 0001:00036fc0       ??0?$ScriptRegistrant@VDLS_Artillery_Test@@@@QAE@PBD0@Z 10037fc0 f i Test_DLS.obj
 0001:00037000       ?Create@?$ScriptRegistrant@VDLS_Artillery_Test@@@@UAEPAVScriptImpClass@@XZ 10038000 f i Test_DLS.obj
 0001:000370a0       ??0?$ScriptRegistrant@VDLS_Cinematic_Test@@@@QAE@PBD0@Z 100380a0 f i Test_DLS.obj
 0001:000370e0       ?Create@?$ScriptRegistrant@VDLS_Cinematic_Test@@@@UAEPAVScriptImpClass@@XZ 100380e0 f i Test_DLS.obj
 0001:00037180       ??0?$ScriptRegistrant@VDLS_SSM_Test@@@@QAE@PBD0@Z 10038180 f i Test_DLS.obj
 0001:000371c0       ?Create@?$ScriptRegistrant@VDLS_SSM_Test@@@@UAEPAVScriptImpClass@@XZ 100381c0 f i Test_DLS.obj
 0001:00037260       ??0?$ScriptRegistrant@VDLS_Cinematic_Test2@@@@QAE@PBD0@Z 10038260 f i Test_DLS.obj
 0001:000372a0       ?Create@?$ScriptRegistrant@VDLS_Cinematic_Test2@@@@UAEPAVScriptImpClass@@XZ 100382a0 f i Test_DLS.obj
 0001:00037340       ??0?$ScriptRegistrant@VDLS_Where_Am_I@@@@QAE@PBD0@Z 10038340 f i Test_DLS.obj
 0001:00037380       ?Create@?$ScriptRegistrant@VDLS_Where_Am_I@@@@UAEPAVScriptImpClass@@XZ 10038380 f i Test_DLS.obj
 0001:00037420       ??0?$ScriptRegistrant@VDLS_Test_Flyovers@@@@QAE@PBD0@Z 10038420 f i Test_DLS.obj
 0001:00037460       ?Create@?$ScriptRegistrant@VDLS_Test_Flyovers@@@@UAEPAVScriptImpClass@@XZ 10038460 f i Test_DLS.obj
 0001:00037500       ??0?$ScriptRegistrant@VDLS_Test_Hand_Over_Head@@@@QAE@PBD0@Z 10038500 f i Test_DLS.obj
 0001:00037540       ?Create@?$ScriptRegistrant@VDLS_Test_Hand_Over_Head@@@@UAEPAVScriptImpClass@@XZ 10038540 f i Test_DLS.obj
 0001:000375e0       ??0?$ScriptRegistrant@VDLS_Created_Too_Early@@@@QAE@PBD0@Z 100385e0 f i Test_DLS.obj
 0001:00037620       ?Create@?$ScriptRegistrant@VDLS_Created_Too_Early@@@@UAEPAVScriptImpClass@@XZ 10038620 f i Test_DLS.obj
 0001:000376c0       ??0?$ScriptRegistrant@VDLS_Blink@@@@QAE@PBD0@Z 100386c0 f i Test_DLS.obj
 0001:00037700       ?Create@?$ScriptRegistrant@VDLS_Blink@@@@UAEPAVScriptImpClass@@XZ 10038700 f i Test_DLS.obj
 0001:000377a0       ??0?$ScriptRegistrant@VDLS_Math@@@@QAE@PBD0@Z 100387a0 f i Test_DLS.obj
 0001:000377e0       ?Create@?$ScriptRegistrant@VDLS_Math@@@@UAEPAVScriptImpClass@@XZ 100387e0 f i Test_DLS.obj
 0001:00037880       ??0?$ScriptRegistrant@VDLS_Test_Evac@@@@QAE@PBD0@Z 10038880 f i Test_DLS.obj
 0001:000378c0       ?Create@?$ScriptRegistrant@VDLS_Test_Evac@@@@UAEPAVScriptImpClass@@XZ 100388c0 f i Test_DLS.obj
 0001:00037960       ??0?$ScriptRegistrant@VDLS_Innate_Disable@@@@QAE@PBD0@Z 10038960 f i Test_DLS.obj
 0001:000379a0       ?Create@?$ScriptRegistrant@VDLS_Innate_Disable@@@@UAEPAVScriptImpClass@@XZ 100389a0 f i Test_DLS.obj
 0001:00037a40       ??0?$ScriptRegistrant@VMX0_Area4_Controller_DLS@@@@QAE@PBD0@Z 10038a40 f i Test_DLS.obj
 0001:00037a80       ?Create@?$ScriptRegistrant@VMX0_Area4_Controller_DLS@@@@UAEPAVScriptImpClass@@XZ 10038a80 f i Test_DLS.obj
 0001:00037b20       ??0?$ScriptRegistrant@VMX0_Area4_Zone_DLS@@@@QAE@PBD0@Z 10038b20 f i Test_DLS.obj
 0001:00037b60       ?Create@?$ScriptRegistrant@VMX0_Area4_Zone_DLS@@@@UAEPAVScriptImpClass@@XZ 10038b60 f i Test_DLS.obj
 0001:00037c00       ??0?$ScriptRegistrant@VMX0_Vehicle_DLS@@@@QAE@PBD0@Z 10038c00 f i Test_DLS.obj
 0001:00037c40       ?Create@?$ScriptRegistrant@VMX0_Vehicle_DLS@@@@UAEPAVScriptImpClass@@XZ 10038c40 f i Test_DLS.obj
 0001:00037ce0       ??0?$ScriptRegistrant@VMX0_Obelisk_Weapon_DLS@@@@QAE@PBD0@Z 10038ce0 f i Test_DLS.obj
 0001:00037d20       ?Create@?$ScriptRegistrant@VMX0_Obelisk_Weapon_DLS@@@@UAEPAVScriptImpClass@@XZ 10038d20 f i Test_DLS.obj
 0001:00037dc0       ??0?$ScriptRegistrant@VMX0_GDI_Killed_DLS@@@@QAE@PBD0@Z 10038dc0 f i Test_DLS.obj
 0001:00037e00       ?Create@?$ScriptRegistrant@VMX0_GDI_Killed_DLS@@@@UAEPAVScriptImpClass@@XZ 10038e00 f i Test_DLS.obj
 0001:00037ea0       ??0?$ScriptRegistrant@VMX0_GDI_Soldier_DLS@@@@QAE@PBD0@Z 10038ea0 f i Test_DLS.obj
 0001:00037ee0       ?Create@?$ScriptRegistrant@VMX0_GDI_Soldier_DLS@@@@UAEPAVScriptImpClass@@XZ 10038ee0 f i Test_DLS.obj
 0001:00037f80       ??0?$ScriptRegistrant@VMX0_Gun_Emplacement_DLS@@@@QAE@PBD0@Z 10038f80 f i Test_DLS.obj
 0001:00037fc0       ?Create@?$ScriptRegistrant@VMX0_Gun_Emplacement_DLS@@@@UAEPAVScriptImpClass@@XZ 10038fc0 f i Test_DLS.obj
 0001:00038060       ??0?$ScriptRegistrant@VMX0_Nod_RocketSoldier_DLS@@@@QAE@PBD0@Z 10039060 f i Test_DLS.obj
 0001:000380a0       ?Create@?$ScriptRegistrant@VMX0_Nod_RocketSoldier_DLS@@@@UAEPAVScriptImpClass@@XZ 100390a0 f i Test_DLS.obj
 0001:00038140       ??0?$ScriptRegistrant@VMX0_SAM_DLS@@@@QAE@PBD0@Z 10039140 f i Test_DLS.obj
 0001:00038180       ?Create@?$ScriptRegistrant@VMX0_SAM_DLS@@@@UAEPAVScriptImpClass@@XZ 10039180 f i Test_DLS.obj
 0001:00038220       ??0?$ScriptRegistrant@VMX0_Nod_Bunker_DLS@@@@QAE@PBD0@Z 10039220 f i Test_DLS.obj
 0001:00038260       ?Create@?$ScriptRegistrant@VMX0_Nod_Bunker_DLS@@@@UAEPAVScriptImpClass@@XZ 10039260 f i Test_DLS.obj
 0001:00038300       ??0?$ScriptRegistrant@VMX0_Plant_Ion_Beacon_DLS@@@@QAE@PBD0@Z 10039300 f i Test_DLS.obj
 0001:00038340       ?Create@?$ScriptRegistrant@VMX0_Plant_Ion_Beacon_DLS@@@@UAEPAVScriptImpClass@@XZ 10039340 f i Test_DLS.obj
 0001:000383e0       ??0?$ScriptRegistrant@VDLS_Star_No_Fall@@@@QAE@PBD0@Z 100393e0 f i Test_DLS.obj
 0001:00038420       ?Create@?$ScriptRegistrant@VDLS_Star_No_Fall@@@@UAEPAVScriptImpClass@@XZ 10039420 f i Test_DLS.obj
 0001:000384c0       ??0?$ScriptRegistrant@VMX0_Explosive_Barrels_DLS@@@@QAE@PBD0@Z 100394c0 f i Test_DLS.obj
 0001:00038500       ?Create@?$ScriptRegistrant@VMX0_Explosive_Barrels_DLS@@@@UAEPAVScriptImpClass@@XZ 10039500 f i Test_DLS.obj
 0001:000385a0       ??_G?$ScriptRegistrant@VDLS_SpawnTest@@@@UAEPAXI@Z 100395a0 f i Test_DLS.obj
 0001:000385a0       ??_E?$ScriptRegistrant@VDLS_SpawnTest@@@@UAEPAXI@Z 100395a0 f i Test_DLS.obj
 0001:000385f0       ??0DLS_SpawnTest@@QAE@XZ   100395f0 f i Test_DLS.obj
 0001:00038620       ?Register_Auto_Save_Variables@DLS_SpawnTest@@UAEXXZ 10039620 f i Test_DLS.obj
 0001:00038650       ?Created@DLS_SpawnTest@@UAEXPAVScriptableGameObj@@@Z 10039650 f i Test_DLS.obj
 0001:00038690       ?Entered@DLS_SpawnTest@@UAEXPAVScriptableGameObj@@0@Z 10039690 f i Test_DLS.obj
 0001:00038700       ??_G?$ScriptRegistrant@VDLS_Spawner@@@@UAEPAXI@Z 10039700 f i Test_DLS.obj
 0001:00038700       ??_E?$ScriptRegistrant@VDLS_Spawner@@@@UAEPAXI@Z 10039700 f i Test_DLS.obj
 0001:00038750       ??0DLS_Spawner@@QAE@XZ     10039750 f i Test_DLS.obj
 0001:00038780       ?Register_Auto_Save_Variables@DLS_Spawner@@UAEXXZ 10039780 f i Test_DLS.obj
 0001:000387a0       ?Created@DLS_Spawner@@UAEXPAVScriptableGameObj@@@Z 100397a0 f i Test_DLS.obj
 0001:000387f0       ??_G?$ScriptRegistrant@VDLS_Two_Way@@@@UAEPAXI@Z 100397f0 f i Test_DLS.obj
 0001:000387f0       ??_E?$ScriptRegistrant@VDLS_Two_Way@@@@UAEPAXI@Z 100397f0 f i Test_DLS.obj
 0001:00038840       ??0DLS_Two_Way@@QAE@XZ     10039840 f i Test_DLS.obj
 0001:00038870       ?Register_Auto_Save_Variables@DLS_Two_Way@@UAEXXZ 10039870 f i Test_DLS.obj
 0001:00038890       ?Created@DLS_Two_Way@@UAEXPAVScriptableGameObj@@@Z 10039890 f i Test_DLS.obj
 0001:00038930       ?Action_Complete@DLS_Two_Way@@UAEXPAVScriptableGameObj@@HW4ActionCompleteReason@@@Z 10039930 f i Test_DLS.obj
 0001:00038a80       ??_G?$ScriptRegistrant@VDLS_Invulnerable_Test@@@@UAEPAXI@Z 10039a80 f i Test_DLS.obj
 0001:00038a80       ??_E?$ScriptRegistrant@VDLS_Invulnerable_Test@@@@UAEPAXI@Z 10039a80 f i Test_DLS.obj
 0001:00038ad0       ??0DLS_Invulnerable_Test@@QAE@XZ 10039ad0 f i Test_DLS.obj
 0001:00038b00       ?Register_Auto_Save_Variables@DLS_Invulnerable_Test@@UAEXXZ 10039b00 f i Test_DLS.obj
 0001:00038b30       ?Created@DLS_Invulnerable_Test@@UAEXPAVScriptableGameObj@@@Z 10039b30 f i Test_DLS.obj
 0001:00038b90       ??_E?$ScriptRegistrant@VDLS_InnateIsStationary_Test@@@@UAEPAXI@Z 10039b90 f i Test_DLS.obj
 0001:00038b90       ??_G?$ScriptRegistrant@VDLS_InnateIsStationary_Test@@@@UAEPAXI@Z 10039b90 f i Test_DLS.obj
 0001:00038be0       ??0DLS_InnateIsStationary_Test@@QAE@XZ 10039be0 f i Test_DLS.obj
 0001:00038c10       ?Register_Auto_Save_Variables@DLS_InnateIsStationary_Test@@UAEXXZ 10039c10 f i Test_DLS.obj
 0001:00038c40       ?Created@DLS_InnateIsStationary_Test@@UAEXPAVScriptableGameObj@@@Z 10039c40 f i Test_DLS.obj
 0001:00038c80       ?Poked@DLS_InnateIsStationary_Test@@UAEXPAVScriptableGameObj@@0@Z 10039c80 f i Test_DLS.obj
 0001:00038d50       ??_G?$ScriptRegistrant@VDLS_Camera_Test@@@@UAEPAXI@Z 10039d50 f i Test_DLS.obj
 0001:00038d50       ??_E?$ScriptRegistrant@VDLS_Camera_Test@@@@UAEPAXI@Z 10039d50 f i Test_DLS.obj
 0001:00038da0       ??0DLS_Camera_Test@@QAE@XZ 10039da0 f i Test_DLS.obj
 0001:00038dd0       ?Register_Auto_Save_Variables@DLS_Camera_Test@@UAEXXZ 10039dd0 f i Test_DLS.obj
 0001:00038e00       ?Created@DLS_Camera_Test@@UAEXPAVScriptableGameObj@@@Z 10039e00 f i Test_DLS.obj
 0001:00038f10       ?Action_Complete@DLS_Camera_Test@@UAEXPAVScriptableGameObj@@HW4ActionCompleteReason@@@Z 10039f10 f i Test_DLS.obj
 0001:000390e0       ?Timer_Expired@DLS_Camera_Test@@UAEXPAVScriptableGameObj@@H@Z 1003a0e0 f i Test_DLS.obj
 0001:00039180       ?Enemy_Seen@DLS_Camera_Test@@UAEXPAVScriptableGameObj@@0@Z 1003a180 f i Test_DLS.obj
 0001:000392e0       ??_E?$ScriptRegistrant@VDLS_Gun_Test@@@@UAEPAXI@Z 1003a2e0 f i Test_DLS.obj
 0001:000392e0       ??_G?$ScriptRegistrant@VDLS_Gun_Test@@@@UAEPAXI@Z 1003a2e0 f i Test_DLS.obj
 0001:00039330       ??0DLS_Gun_Test@@QAE@XZ    1003a330 f i Test_DLS.obj
 0001:00039360       ?Register_Auto_Save_Variables@DLS_Gun_Test@@UAEXXZ 1003a360 f i Test_DLS.obj
 0001:00039390       ?Action_Complete@DLS_Gun_Test@@UAEXPAVScriptableGameObj@@HW4ActionCompleteReason@@@Z 1003a390 f i Test_DLS.obj
 0001:000393c0       ?Custom@DLS_Gun_Test@@UAEXPAVScriptableGameObj@@HH0@Z 1003a3c0 f i Test_DLS.obj
 0001:000394a0       ??_E?$ScriptRegistrant@VDLS_Test_NULL@@@@UAEPAXI@Z 1003a4a0 f i Test_DLS.obj
 0001:000394a0       ??_G?$ScriptRegistrant@VDLS_Test_NULL@@@@UAEPAXI@Z 1003a4a0 f i Test_DLS.obj
 0001:000394f0       ??0DLS_Test_NULL@@QAE@XZ   1003a4f0 f i Test_DLS.obj
 0001:00039520       ?Register_Auto_Save_Variables@DLS_Test_NULL@@UAEXXZ 1003a520 f i Test_DLS.obj
 0001:00039550       ?Created@DLS_Test_NULL@@UAEXPAVScriptableGameObj@@@Z 1003a550 f i Test_DLS.obj
 0001:00039570       ?Poked@DLS_Test_NULL@@UAEXPAVScriptableGameObj@@0@Z 1003a570 f i Test_DLS.obj
 0001:00039610       ??_G?$ScriptRegistrant@VDLS_Rappelling_Activate@@@@UAEPAXI@Z 1003a610 f i Test_DLS.obj
 0001:00039610       ??_E?$ScriptRegistrant@VDLS_Rappelling_Activate@@@@UAEPAXI@Z 1003a610 f i Test_DLS.obj
 0001:00039660       ??0DLS_Rappelling_Activate@@QAE@XZ 1003a660 f i Test_DLS.obj
 0001:00039690       ?Register_Auto_Save_Variables@DLS_Rappelling_Activate@@UAEXXZ 1003a690 f i Test_DLS.obj
 0001:000396e0       ?Damaged@DLS_Rappelling_Activate@@UAEXPAVScriptableGameObj@@0M@Z 1003a6e0 f i Test_DLS.obj
 0001:00039760       ??_E?$ScriptRegistrant@VDLS_Tank_Path_Test@@@@UAEPAXI@Z 1003a760 f i Test_DLS.obj
 0001:00039760       ??_G?$ScriptRegistrant@VDLS_Tank_Path_Test@@@@UAEPAXI@Z 1003a760 f i Test_DLS.obj
 0001:000397b0       ??0DLS_Tank_Path_Test@@QAE@XZ 1003a7b0 f i Test_DLS.obj
 0001:000397e0       ?Register_Auto_Save_Variables@DLS_Tank_Path_Test@@UAEXXZ 1003a7e0 f i Test_DLS.obj
 0001:00039810       ?Created@DLS_Tank_Path_Test@@UAEXPAVScriptableGameObj@@@Z 1003a810 f i Test_DLS.obj
 0001:00039850       ?Damaged@DLS_Tank_Path_Test@@UAEXPAVScriptableGameObj@@0M@Z 1003a850 f i Test_DLS.obj
 0001:00039920       ?Timer_Expired@DLS_Tank_Path_Test@@UAEXPAVScriptableGameObj@@H@Z 1003a920 f i Test_DLS.obj
 0001:000399f0       ??_E?$ScriptRegistrant@VDLS_Vehicle_Follow@@@@UAEPAXI@Z 1003a9f0 f i Test_DLS.obj
 0001:000399f0       ??_G?$ScriptRegistrant@VDLS_Vehicle_Follow@@@@UAEPAXI@Z 1003a9f0 f i Test_DLS.obj
 0001:00039a40       ??0DLS_Vehicle_Follow@@QAE@XZ 1003aa40 f i Test_DLS.obj
 0001:00039a70       ?Register_Auto_Save_Variables@DLS_Vehicle_Follow@@UAEXXZ 1003aa70 f i Test_DLS.obj
 0001:00039aa0       ?Created@DLS_Vehicle_Follow@@UAEXPAVScriptableGameObj@@@Z 1003aaa0 f i Test_DLS.obj
 0001:00039ae0       ?Timer_Expired@DLS_Vehicle_Follow@@UAEXPAVScriptableGameObj@@H@Z 1003aae0 f i Test_DLS.obj
 0001:00039b40       ??_E?$ScriptRegistrant@VDLS_Filing_Cabinet@@@@UAEPAXI@Z 1003ab40 f i Test_DLS.obj
 0001:00039b40       ??_G?$ScriptRegistrant@VDLS_Filing_Cabinet@@@@UAEPAXI@Z 1003ab40 f i Test_DLS.obj
 0001:00039b90       ??0DLS_Filing_Cabinet@@QAE@XZ 1003ab90 f i Test_DLS.obj
 0001:00039bc0       ?Register_Auto_Save_Variables@DLS_Filing_Cabinet@@UAEXXZ 1003abc0 f i Test_DLS.obj
 0001:00039bf0       ?Created@DLS_Filing_Cabinet@@UAEXPAVScriptableGameObj@@@Z 1003abf0 f i Test_DLS.obj
 0001:00039c40       ?Damaged@DLS_Filing_Cabinet@@UAEXPAVScriptableGameObj@@0M@Z 1003ac40 f i Test_DLS.obj
 0001:00039d50       ?Timer_Expired@DLS_Filing_Cabinet@@UAEXPAVScriptableGameObj@@H@Z 1003ad50 f i Test_DLS.obj
 0001:00039fa0       ?Killed@DLS_Filing_Cabinet@@UAEXPAVScriptableGameObj@@0@Z 1003afa0 f i Test_DLS.obj
 0001:0003a000       ??_G?$ScriptRegistrant@VDLS_Waypath_Test@@@@UAEPAXI@Z 1003b000 f i Test_DLS.obj
 0001:0003a000       ??_E?$ScriptRegistrant@VDLS_Waypath_Test@@@@UAEPAXI@Z 1003b000 f i Test_DLS.obj
 0001:0003a050       ??0DLS_Waypath_Test@@QAE@XZ 1003b050 f i Test_DLS.obj
 0001:0003a080       ?Register_Auto_Save_Variables@DLS_Waypath_Test@@UAEXXZ 1003b080 f i Test_DLS.obj
 0001:0003a0b0       ?Created@DLS_Waypath_Test@@UAEXPAVScriptableGameObj@@@Z 1003b0b0 f i Test_DLS.obj
 0001:0003a1a0       ?Action_Complete@DLS_Waypath_Test@@UAEXPAVScriptableGameObj@@HW4ActionCompleteReason@@@Z 1003b1a0 f i Test_DLS.obj
 0001:0003a380       ??_G?$ScriptRegistrant@VM06_Camera_Behavior@@@@UAEPAXI@Z 1003b380 f i Test_DLS.obj
 0001:0003a380       ??_E?$ScriptRegistrant@VM06_Camera_Behavior@@@@UAEPAXI@Z 1003b380 f i Test_DLS.obj
 0001:0003a3d0       ??0M06_Camera_Behavior@@QAE@XZ 1003b3d0 f i Test_DLS.obj
 0001:0003a400       ?Register_Auto_Save_Variables@M06_Camera_Behavior@@UAEXXZ 1003b400 f i Test_DLS.obj
 0001:0003a490       ?Created@M06_Camera_Behavior@@UAEXPAVScriptableGameObj@@@Z 1003b490 f i Test_DLS.obj
 0001:0003a5c0       ?Get_First_Target@M06_Camera_Behavior@@QAE?AVVector3@@XZ 1003b5c0 f i Test_DLS.obj
 0001:0003a770       ??ZVector3@@QAEAAV0@ABV0@@Z 1003b770 f i Test_DLS.obj
 0001:0003a7d0       ?Timer_Expired@M06_Camera_Behavior@@UAEXPAVScriptableGameObj@@H@Z 1003b7d0 f i Test_DLS.obj
 0001:0003a940       ?Get_Target@M06_Camera_Behavior@@QAE?AVVector3@@XZ 1003b940 f i Test_DLS.obj
 0001:0003abc0       ?Clamp@WWMath@@SAMMMM@Z    1003bbc0 f i Test_DLS.obj
 0001:0003ac10       ?Resume@M06_Camera_Behavior@@QAEXXZ 1003bc10 f i Test_DLS.obj
 0001:0003ac90       ?Alarm@M06_Camera_Behavior@@QAEXXZ 1003bc90 f i Test_DLS.obj
 0001:0003acf0       ?Enemy_Seen@M06_Camera_Behavior@@UAEXPAVScriptableGameObj@@0@Z 1003bcf0 f i Test_DLS.obj
 0001:0003ae40       ?Get_Int_Parameter@ScriptImpClass@@QAEHH@Z 1003be40 f i Test_DLS.obj
 0001:0003ae80       ?Get_Float_Parameter@ScriptImpClass@@QAEMH@Z 1003be80 f i Test_DLS.obj
 0001:0003aec0       ??_E?$ScriptRegistrant@VDLS_Test_Pickup@@@@UAEPAXI@Z 1003bec0 f i Test_DLS.obj
 0001:0003aec0       ??_G?$ScriptRegistrant@VDLS_Test_Pickup@@@@UAEPAXI@Z 1003bec0 f i Test_DLS.obj
 0001:0003af10       ??0DLS_Test_Pickup@@QAE@XZ 1003bf10 f i Test_DLS.obj
 0001:0003af40       ?Register_Auto_Save_Variables@DLS_Test_Pickup@@UAEXXZ 1003bf40 f i Test_DLS.obj
 0001:0003af70       ?Created@DLS_Test_Pickup@@UAEXPAVScriptableGameObj@@@Z 1003bf70 f i Test_DLS.obj
 0001:0003afc0       ?Timer_Expired@DLS_Test_Pickup@@UAEXPAVScriptableGameObj@@H@Z 1003bfc0 f i Test_DLS.obj
 0001:0003b1a0       ?Entered@DLS_Test_Pickup@@UAEXPAVScriptableGameObj@@0@Z 1003c1a0 f i Test_DLS.obj
 0001:0003b200       ?Custom@DLS_Test_Pickup@@UAEXPAVScriptableGameObj@@HH0@Z 1003c200 f i Test_DLS.obj
 0001:0003b2b0       ??_G?$ScriptRegistrant@VDLS_Flame_Tank_Test@@@@UAEPAXI@Z 1003c2b0 f i Test_DLS.obj
 0001:0003b2b0       ??_E?$ScriptRegistrant@VDLS_Flame_Tank_Test@@@@UAEPAXI@Z 1003c2b0 f i Test_DLS.obj
 0001:0003b300       ??0DLS_Flame_Tank_Test@@QAE@XZ 1003c300 f i Test_DLS.obj
 0001:0003b330       ?Register_Auto_Save_Variables@DLS_Flame_Tank_Test@@UAEXXZ 1003c330 f i Test_DLS.obj
 0001:0003b350       ?Created@DLS_Flame_Tank_Test@@UAEXPAVScriptableGameObj@@@Z 1003c350 f i Test_DLS.obj
 0001:0003b430       ??_E?$ScriptRegistrant@VDLS_Innate_Force_State@@@@UAEPAXI@Z 1003c430 f i Test_DLS.obj
 0001:0003b430       ??_G?$ScriptRegistrant@VDLS_Innate_Force_State@@@@UAEPAXI@Z 1003c430 f i Test_DLS.obj
 0001:0003b480       ??0DLS_Innate_Force_State@@QAE@XZ 1003c480 f i Test_DLS.obj
 0001:0003b4b0       ?Created@DLS_Innate_Force_State@@EAEXPAVScriptableGameObj@@@Z 1003c4b0 f i Test_DLS.obj
 0001:0003b4f0       ?Timer_Expired@DLS_Innate_Force_State@@EAEXPAVScriptableGameObj@@H@Z 1003c4f0 f i Test_DLS.obj
 0001:0003b700       ??_E?$ScriptRegistrant@VDLS_Cargo_Plane_Test@@@@UAEPAXI@Z 1003c700 f i Test_DLS.obj
 0001:0003b700       ??_G?$ScriptRegistrant@VDLS_Cargo_Plane_Test@@@@UAEPAXI@Z 1003c700 f i Test_DLS.obj
 0001:0003b750       ??0DLS_Cargo_Plane_Test@@QAE@XZ 1003c750 f i Test_DLS.obj
 0001:0003b780       ?Register_Auto_Save_Variables@DLS_Cargo_Plane_Test@@UAEXXZ 1003c780 f i Test_DLS.obj
 0001:0003b7a0       ?Damaged@DLS_Cargo_Plane_Test@@UAEXPAVScriptableGameObj@@0M@Z 1003c7a0 f i Test_DLS.obj
 0001:0003b830       ??_E?$ScriptRegistrant@VM00_C130_ParaDrop@@@@UAEPAXI@Z 1003c830 f i Test_DLS.obj
 0001:0003b830       ??_G?$ScriptRegistrant@VM00_C130_ParaDrop@@@@UAEPAXI@Z 1003c830 f i Test_DLS.obj
 0001:0003b880       ??0M00_C130_ParaDrop@@QAE@XZ 1003c880 f i Test_DLS.obj
 0001:0003b8b0       ?Register_Auto_Save_Variables@M00_C130_ParaDrop@@UAEXXZ 1003c8b0 f i Test_DLS.obj
 0001:0003b910       ?Created@M00_C130_ParaDrop@@UAEXPAVScriptableGameObj@@@Z 1003c910 f i Test_DLS.obj
 0001:0003bbf0       ?Timer_Expired@M00_C130_ParaDrop@@UAEXPAVScriptableGameObj@@H@Z 1003cbf0 f i Test_DLS.obj
 0001:0003c390       ?Custom@M00_C130_ParaDrop@@UAEXPAVScriptableGameObj@@HH0@Z 1003d390 f i Test_DLS.obj
 0001:0003c3d0       ??_G?$ScriptRegistrant@VM00_Reinforcement_C130@@@@UAEPAXI@Z 1003d3d0 f i Test_DLS.obj
 0001:0003c3d0       ??_E?$ScriptRegistrant@VM00_Reinforcement_C130@@@@UAEPAXI@Z 1003d3d0 f i Test_DLS.obj
 0001:0003c420       ??0M00_Reinforcement_C130@@QAE@XZ 1003d420 f i Test_DLS.obj
 0001:0003c450       ?Register_Auto_Save_Variables@M00_Reinforcement_C130@@UAEXXZ 1003d450 f i Test_DLS.obj
 0001:0003c480       ?Created@M00_Reinforcement_C130@@UAEXPAVScriptableGameObj@@@Z 1003d480 f i Test_DLS.obj
 0001:0003c4d0       ?Killed@M00_Reinforcement_C130@@UAEXPAVScriptableGameObj@@0@Z 1003d4d0 f i Test_DLS.obj
 0001:0003c550       ??_E?$ScriptRegistrant@VDLS_Test_Conversation@@@@UAEPAXI@Z 1003d550 f i Test_DLS.obj
 0001:0003c550       ??_G?$ScriptRegistrant@VDLS_Test_Conversation@@@@UAEPAXI@Z 1003d550 f i Test_DLS.obj
 0001:0003c5a0       ??0DLS_Test_Conversation@@QAE@XZ 1003d5a0 f i Test_DLS.obj
 0001:0003c5d0       ?Created@DLS_Test_Conversation@@EAEXPAVScriptableGameObj@@@Z 1003d5d0 f i Test_DLS.obj
 0001:0003c610       ?Poked@DLS_Test_Conversation@@EAEXPAVScriptableGameObj@@0@Z 1003d610 f i Test_DLS.obj
 0001:0003c700       ?Action_Complete@DLS_Test_Conversation@@EAEXPAVScriptableGameObj@@HW4ActionCompleteReason@@@Z 1003d700 f i Test_DLS.obj
 0001:0003c720       ??_G?$ScriptRegistrant@VDLS_Test_Zone_Timer@@@@UAEPAXI@Z 1003d720 f i Test_DLS.obj
 0001:0003c720       ??_E?$ScriptRegistrant@VDLS_Test_Zone_Timer@@@@UAEPAXI@Z 1003d720 f i Test_DLS.obj
 0001:0003c770       ??0DLS_Test_Zone_Timer@@QAE@XZ 1003d770 f i Test_DLS.obj
 0001:0003c7a0       ?Created@DLS_Test_Zone_Timer@@EAEXPAVScriptableGameObj@@@Z 1003d7a0 f i Test_DLS.obj
 0001:0003c800       ?Timer_Expired@DLS_Test_Zone_Timer@@EAEXPAVScriptableGameObj@@H@Z 1003d800 f i Test_DLS.obj
 0001:0003c850       ??_G?$ScriptRegistrant@VDLS_Drop_Unit@@@@UAEPAXI@Z 1003d850 f i Test_DLS.obj
 0001:0003c850       ??_E?$ScriptRegistrant@VDLS_Drop_Unit@@@@UAEPAXI@Z 1003d850 f i Test_DLS.obj
 0001:0003c8a0       ??0DLS_Drop_Unit@@QAE@XZ   1003d8a0 f i Test_DLS.obj
 0001:0003c8d0       ?Damaged@DLS_Drop_Unit@@EAEXPAVScriptableGameObj@@0M@Z 1003d8d0 f i Test_DLS.obj
 0001:0003c9e0       ??_G?$ScriptRegistrant@VDLS_CNC_Sound@@@@UAEPAXI@Z 1003d9e0 f i Test_DLS.obj
 0001:0003c9e0       ??_E?$ScriptRegistrant@VDLS_CNC_Sound@@@@UAEPAXI@Z 1003d9e0 f i Test_DLS.obj
 0001:0003ca30       ??0DLS_CNC_Sound@@QAE@XZ   1003da30 f i Test_DLS.obj
 0001:0003ca60       ?Damaged@DLS_CNC_Sound@@EAEXPAVScriptableGameObj@@0M@Z 1003da60 f i Test_DLS.obj
 0001:0003cac0       ??_E?$ScriptRegistrant@VDLS_Spawn_Engineer@@@@UAEPAXI@Z 1003dac0 f i Test_DLS.obj
 0001:0003cac0       ??_G?$ScriptRegistrant@VDLS_Spawn_Engineer@@@@UAEPAXI@Z 1003dac0 f i Test_DLS.obj
 0001:0003cb10       ??0DLS_Spawn_Engineer@@QAE@XZ 1003db10 f i Test_DLS.obj
 0001:0003cb40       ?Damaged@DLS_Spawn_Engineer@@EAEXPAVScriptableGameObj@@0M@Z 1003db40 f i Test_DLS.obj
 0001:0003cbb0       ??_G?$ScriptRegistrant@VDLS_Spawn_Engineer2@@@@UAEPAXI@Z 1003dbb0 f i Test_DLS.obj
 0001:0003cbb0       ??_E?$ScriptRegistrant@VDLS_Spawn_Engineer2@@@@UAEPAXI@Z 1003dbb0 f i Test_DLS.obj
 0001:0003cc00       ??0DLS_Spawn_Engineer2@@QAE@XZ 1003dc00 f i Test_DLS.obj
 0001:0003cc30       ?Damaged@DLS_Spawn_Engineer2@@EAEXPAVScriptableGameObj@@0M@Z 1003dc30 f i Test_DLS.obj
 0001:0003cca0       ??_E?$ScriptRegistrant@VDLS_Test_Homepoint@@@@UAEPAXI@Z 1003dca0 f i Test_DLS.obj
 0001:0003cca0       ??_G?$ScriptRegistrant@VDLS_Test_Homepoint@@@@UAEPAXI@Z 1003dca0 f i Test_DLS.obj
 0001:0003ccf0       ??0DLS_Test_Homepoint@@QAE@XZ 1003dcf0 f i Test_DLS.obj
 0001:0003cd20       ?Created@DLS_Test_Homepoint@@EAEXPAVScriptableGameObj@@@Z 1003dd20 f i Test_DLS.obj
 0001:0003cd80       ??_G?$ScriptRegistrant@VDLS_Test_Apache@@@@UAEPAXI@Z 1003dd80 f i Test_DLS.obj
 0001:0003cd80       ??_E?$ScriptRegistrant@VDLS_Test_Apache@@@@UAEPAXI@Z 1003dd80 f i Test_DLS.obj
 0001:0003cdd0       ??0DLS_Test_Apache@@QAE@XZ 1003ddd0 f i Test_DLS.obj
 0001:0003ce00       ?Created@DLS_Test_Apache@@EAEXPAVScriptableGameObj@@@Z 1003de00 f i Test_DLS.obj
 0001:0003ceb0       ??_E?$ScriptRegistrant@VDLS_Test_Tank@@@@UAEPAXI@Z 1003deb0 f i Test_DLS.obj
 0001:0003ceb0       ??_G?$ScriptRegistrant@VDLS_Test_Tank@@@@UAEPAXI@Z 1003deb0 f i Test_DLS.obj
 0001:0003cf00       ??0DLS_Test_Tank@@QAE@XZ   1003df00 f i Test_DLS.obj
 0001:0003cf30       ?Created@DLS_Test_Tank@@EAEXPAVScriptableGameObj@@@Z 1003df30 f i Test_DLS.obj
 0001:0003cfe0       ??_G?$ScriptRegistrant@VDLS_Goto_Unit@@@@UAEPAXI@Z 1003dfe0 f i Test_DLS.obj
 0001:0003cfe0       ??_E?$ScriptRegistrant@VDLS_Goto_Unit@@@@UAEPAXI@Z 1003dfe0 f i Test_DLS.obj
 0001:0003d030       ??0DLS_Goto_Unit@@QAE@XZ   1003e030 f i Test_DLS.obj
 0001:0003d060       ?Created@DLS_Goto_Unit@@EAEXPAVScriptableGameObj@@@Z 1003e060 f i Test_DLS.obj
 0001:0003d0c0       ?Timer_Expired@DLS_Goto_Unit@@EAEXPAVScriptableGameObj@@H@Z 1003e0c0 f i Test_DLS.obj
 0001:0003d190       ??_G?$ScriptRegistrant@VDLS_Playertype@@@@UAEPAXI@Z 1003e190 f i Test_DLS.obj
 0001:0003d190       ??_E?$ScriptRegistrant@VDLS_Playertype@@@@UAEPAXI@Z 1003e190 f i Test_DLS.obj
 0001:0003d1e0       ??0DLS_Playertype@@QAE@XZ  1003e1e0 f i Test_DLS.obj
 0001:0003d210       ?Created@DLS_Playertype@@EAEXPAVScriptableGameObj@@@Z 1003e210 f i Test_DLS.obj
 0001:0003d230       ?Poked@DLS_Playertype@@EAEXPAVScriptableGameObj@@0@Z 1003e230 f i Test_DLS.obj
 0001:0003d2b0       ??_G?$ScriptRegistrant@VDLS_No_Innate@@@@UAEPAXI@Z 1003e2b0 f i Test_DLS.obj
 0001:0003d2b0       ??_E?$ScriptRegistrant@VDLS_No_Innate@@@@UAEPAXI@Z 1003e2b0 f i Test_DLS.obj
 0001:0003d300       ??0DLS_No_Innate@@QAE@XZ   1003e300 f i Test_DLS.obj
 0001:0003d330       ?Created@DLS_No_Innate@@EAEXPAVScriptableGameObj@@@Z 1003e330 f i Test_DLS.obj
 0001:0003d370       ??_E?$ScriptRegistrant@VDLS_ActionComplete_Test@@@@UAEPAXI@Z 1003e370 f i Test_DLS.obj
 0001:0003d370       ??_G?$ScriptRegistrant@VDLS_ActionComplete_Test@@@@UAEPAXI@Z 1003e370 f i Test_DLS.obj
 0001:0003d3c0       ??0DLS_ActionComplete_Test@@QAE@XZ 1003e3c0 f i Test_DLS.obj
 0001:0003d3f0       ?Created@DLS_ActionComplete_Test@@EAEXPAVScriptableGameObj@@@Z 1003e3f0 f i Test_DLS.obj
 0001:0003d4a0       ?Action_Complete@DLS_ActionComplete_Test@@EAEXPAVScriptableGameObj@@HW4ActionCompleteReason@@@Z 1003e4a0 f i Test_DLS.obj
 0001:0003d4e0       ??_E?$ScriptRegistrant@VDLS_Artillery_Test@@@@UAEPAXI@Z 1003e4e0 f i Test_DLS.obj
 0001:0003d4e0       ??_G?$ScriptRegistrant@VDLS_Artillery_Test@@@@UAEPAXI@Z 1003e4e0 f i Test_DLS.obj
 0001:0003d530       ??0DLS_Artillery_Test@@QAE@XZ 1003e530 f i Test_DLS.obj
 0001:0003d560       ?Register_Auto_Save_Variables@DLS_Artillery_Test@@UAEXXZ 1003e560 f i Test_DLS.obj
 0001:0003d580       ?Created@DLS_Artillery_Test@@UAEXPAVScriptableGameObj@@@Z 1003e580 f i Test_DLS.obj
 0001:0003d5e0       ?Timer_Expired@DLS_Artillery_Test@@UAEXPAVScriptableGameObj@@H@Z 1003e5e0 f i Test_DLS.obj
 0001:0003d600       ??_G?$ScriptRegistrant@VDLS_Cinematic_Test@@@@UAEPAXI@Z 1003e600 f i Test_DLS.obj
 0001:0003d600       ??_E?$ScriptRegistrant@VDLS_Cinematic_Test@@@@UAEPAXI@Z 1003e600 f i Test_DLS.obj
 0001:0003d650       ??0DLS_Cinematic_Test@@QAE@XZ 1003e650 f i Test_DLS.obj
 0001:0003d680       ?Created@DLS_Cinematic_Test@@EAEXPAVScriptableGameObj@@@Z 1003e680 f i Test_DLS.obj
 0001:0003d6a0       ?Damaged@DLS_Cinematic_Test@@EAEXPAVScriptableGameObj@@0M@Z 1003e6a0 f i Test_DLS.obj
 0001:0003d720       ??_E?$ScriptRegistrant@VDLS_SSM_Test@@@@UAEPAXI@Z 1003e720 f i Test_DLS.obj
 0001:0003d720       ??_G?$ScriptRegistrant@VDLS_SSM_Test@@@@UAEPAXI@Z 1003e720 f i Test_DLS.obj
 0001:0003d770       ??0DLS_SSM_Test@@QAE@XZ    1003e770 f i Test_DLS.obj
 0001:0003d7a0       ?Created@DLS_SSM_Test@@EAEXPAVScriptableGameObj@@@Z 1003e7a0 f i Test_DLS.obj
 0001:0003d840       ??_G?$ScriptRegistrant@VDLS_Cinematic_Test2@@@@UAEPAXI@Z 1003e840 f i Test_DLS.obj
 0001:0003d840       ??_E?$ScriptRegistrant@VDLS_Cinematic_Test2@@@@UAEPAXI@Z 1003e840 f i Test_DLS.obj
 0001:0003d890       ??0DLS_Cinematic_Test2@@QAE@XZ 1003e890 f i Test_DLS.obj
 0001:0003d8c0       ?Created@DLS_Cinematic_Test2@@EAEXPAVScriptableGameObj@@@Z 1003e8c0 f i Test_DLS.obj
 0001:0003d8e0       ?Damaged@DLS_Cinematic_Test2@@EAEXPAVScriptableGameObj@@0M@Z 1003e8e0 f i Test_DLS.obj
 0001:0003d960       ??_E?$ScriptRegistrant@VDLS_Where_Am_I@@@@UAEPAXI@Z 1003e960 f i Test_DLS.obj
 0001:0003d960       ??_G?$ScriptRegistrant@VDLS_Where_Am_I@@@@UAEPAXI@Z 1003e960 f i Test_DLS.obj
 0001:0003d9b0       ??0DLS_Where_Am_I@@QAE@XZ  1003e9b0 f i Test_DLS.obj
 0001:0003d9e0       ?Register_Auto_Save_Variables@DLS_Where_Am_I@@UAEXXZ 1003e9e0 f i Test_DLS.obj
 0001:0003da00       ?Created@DLS_Where_Am_I@@UAEXPAVScriptableGameObj@@@Z 1003ea00 f i Test_DLS.obj
 0001:0003dac0       ?Timer_Expired@DLS_Where_Am_I@@UAEXPAVScriptableGameObj@@H@Z 1003eac0 f i Test_DLS.obj
 0001:0003dbb0       ??_G?$ScriptRegistrant@VDLS_Test_Flyovers@@@@UAEPAXI@Z 1003ebb0 f i Test_DLS.obj
 0001:0003dbb0       ??_E?$ScriptRegistrant@VDLS_Test_Flyovers@@@@UAEPAXI@Z 1003ebb0 f i Test_DLS.obj
 0001:0003dc00       ??0DLS_Test_Flyovers@@QAE@XZ 1003ec00 f i Test_DLS.obj
 0001:0003dc30       ?Register_Auto_Save_Variables@DLS_Test_Flyovers@@UAEXXZ 1003ec30 f i Test_DLS.obj
 0001:0003dc50       ?Created@DLS_Test_Flyovers@@UAEXPAVScriptableGameObj@@@Z 1003ec50 f i Test_DLS.obj
 0001:0003dc90       ?Timer_Expired@DLS_Test_Flyovers@@UAEXPAVScriptableGameObj@@H@Z 1003ec90 f i Test_DLS.obj
 0001:0003de40       ??_E?$ScriptRegistrant@VDLS_Test_Hand_Over_Head@@@@UAEPAXI@Z 1003ee40 f i Test_DLS.obj
 0001:0003de40       ??_G?$ScriptRegistrant@VDLS_Test_Hand_Over_Head@@@@UAEPAXI@Z 1003ee40 f i Test_DLS.obj
 0001:0003de90       ??0DLS_Test_Hand_Over_Head@@QAE@XZ 1003ee90 f i Test_DLS.obj
 0001:0003dec0       ?Register_Auto_Save_Variables@DLS_Test_Hand_Over_Head@@UAEXXZ 1003eec0 f i Test_DLS.obj
 0001:0003dee0       ?Created@DLS_Test_Hand_Over_Head@@UAEXPAVScriptableGameObj@@@Z 1003eee0 f i Test_DLS.obj
 0001:0003df80       ??_G?$ScriptRegistrant@VDLS_Created_Too_Early@@@@UAEPAXI@Z 1003ef80 f i Test_DLS.obj
 0001:0003df80       ??_E?$ScriptRegistrant@VDLS_Created_Too_Early@@@@UAEPAXI@Z 1003ef80 f i Test_DLS.obj
 0001:0003dfd0       ??0DLS_Created_Too_Early@@QAE@XZ 1003efd0 f i Test_DLS.obj
 0001:0003e000       ?Created@DLS_Created_Too_Early@@EAEXPAVScriptableGameObj@@@Z 1003f000 f i Test_DLS.obj
 0001:0003e020       ?Damaged@DLS_Created_Too_Early@@EAEXPAVScriptableGameObj@@0M@Z 1003f020 f i Test_DLS.obj
 0001:0003e0a0       ??_E?$ScriptRegistrant@VDLS_Blink@@@@UAEPAXI@Z 1003f0a0 f i Test_DLS.obj
 0001:0003e0a0       ??_G?$ScriptRegistrant@VDLS_Blink@@@@UAEPAXI@Z 1003f0a0 f i Test_DLS.obj
 0001:0003e0f0       ??0DLS_Blink@@QAE@XZ       1003f0f0 f i Test_DLS.obj
 0001:0003e120       ?Created@DLS_Blink@@EAEXPAVScriptableGameObj@@@Z 1003f120 f i Test_DLS.obj
 0001:0003e140       ?Damaged@DLS_Blink@@EAEXPAVScriptableGameObj@@0M@Z 1003f140 f i Test_DLS.obj
 0001:0003e1c0       ??_E?$ScriptRegistrant@VDLS_Math@@@@UAEPAXI@Z 1003f1c0 f i Test_DLS.obj
 0001:0003e1c0       ??_G?$ScriptRegistrant@VDLS_Math@@@@UAEPAXI@Z 1003f1c0 f i Test_DLS.obj
 0001:0003e210       ??0DLS_Math@@QAE@XZ        1003f210 f i Test_DLS.obj
 0001:0003e240       ?Created@DLS_Math@@EAEXPAVScriptableGameObj@@@Z 1003f240 f i Test_DLS.obj
 0001:0003e330       ??_E?$ScriptRegistrant@VDLS_Test_Evac@@@@UAEPAXI@Z 1003f330 f i Test_DLS.obj
 0001:0003e330       ??_G?$ScriptRegistrant@VDLS_Test_Evac@@@@UAEPAXI@Z 1003f330 f i Test_DLS.obj
 0001:0003e380       ??0DLS_Test_Evac@@QAE@XZ   1003f380 f i Test_DLS.obj
 0001:0003e3b0       ?Register_Auto_Save_Variables@DLS_Test_Evac@@UAEXXZ 1003f3b0 f i Test_DLS.obj
 0001:0003e3d0       ?Created@DLS_Test_Evac@@UAEXPAVScriptableGameObj@@@Z 1003f3d0 f i Test_DLS.obj
 0001:0003e4c0       ?Action_Complete@DLS_Test_Evac@@UAEXPAVScriptableGameObj@@HW4ActionCompleteReason@@@Z 1003f4c0 f i Test_DLS.obj
 0001:0003e540       ??_E?$ScriptRegistrant@VDLS_Innate_Disable@@@@UAEPAXI@Z 1003f540 f i Test_DLS.obj
 0001:0003e540       ??_G?$ScriptRegistrant@VDLS_Innate_Disable@@@@UAEPAXI@Z 1003f540 f i Test_DLS.obj
 0001:0003e590       ??0DLS_Innate_Disable@@QAE@XZ 1003f590 f i Test_DLS.obj
 0001:0003e5c0       ?Created@DLS_Innate_Disable@@EAEXPAVScriptableGameObj@@@Z 1003f5c0 f i Test_DLS.obj
 0001:0003e600       ??_G?$ScriptRegistrant@VMX0_Area4_Controller_DLS@@@@UAEPAXI@Z 1003f600 f i Test_DLS.obj
 0001:0003e600       ??_E?$ScriptRegistrant@VMX0_Area4_Controller_DLS@@@@UAEPAXI@Z 1003f600 f i Test_DLS.obj
 0001:0003e650       ??0MX0_Area4_Controller_DLS@@QAE@XZ 1003f650 f i Test_DLS.obj
 0001:0003e680       ?Register_Auto_Save_Variables@MX0_Area4_Controller_DLS@@UAEXXZ 1003f680 f i Test_DLS.obj
 0001:0003e8f0       ?Created@MX0_Area4_Controller_DLS@@UAEXPAVScriptableGameObj@@@Z 1003f8f0 f i Test_DLS.obj
 0001:0003e980       ?Custom@MX0_Area4_Controller_DLS@@UAEXPAVScriptableGameObj@@HH0@Z 1003f980 f i Test_DLS.obj
 0001:0003f080       ?Timer_Expired@MX0_Area4_Controller_DLS@@UAEXPAVScriptableGameObj@@H@Z 10040080 f i Test_DLS.obj
 0001:00040500       ?Relocate_Soldiers@MX0_Area4_Controller_DLS@@QAEXPAVScriptableGameObj@@@Z 10041500 f i Test_DLS.obj
 0001:00040630       ?Wrong_Way@MX0_Area4_Controller_DLS@@QAEXPAVScriptableGameObj@@@Z 10041630 f i Test_DLS.obj
 0001:000406f0       ??_E?$ScriptRegistrant@VMX0_Area4_Zone_DLS@@@@UAEPAXI@Z 100416f0 f i Test_DLS.obj
 0001:000406f0       ??_G?$ScriptRegistrant@VMX0_Area4_Zone_DLS@@@@UAEPAXI@Z 100416f0 f i Test_DLS.obj
 0001:00040740       ??0MX0_Area4_Zone_DLS@@QAE@XZ 10041740 f i Test_DLS.obj
 0001:00040770       ?Register_Auto_Save_Variables@MX0_Area4_Zone_DLS@@UAEXXZ 10041770 f i Test_DLS.obj
 0001:000407a0       ?Created@MX0_Area4_Zone_DLS@@UAEXPAVScriptableGameObj@@@Z 100417a0 f i Test_DLS.obj
 0001:000407d0       ?Entered@MX0_Area4_Zone_DLS@@UAEXPAVScriptableGameObj@@0@Z 100417d0 f i Test_DLS.obj
 0001:00040880       ??_E?$ScriptRegistrant@VMX0_Vehicle_DLS@@@@UAEPAXI@Z 10041880 f i Test_DLS.obj
 0001:00040880       ??_G?$ScriptRegistrant@VMX0_Vehicle_DLS@@@@UAEPAXI@Z 10041880 f i Test_DLS.obj
 0001:000408d0       ??0MX0_Vehicle_DLS@@QAE@XZ 100418d0 f i Test_DLS.obj
 0001:00040900       ?Register_Auto_Save_Variables@MX0_Vehicle_DLS@@UAEXXZ 10041900 f i Test_DLS.obj
 0001:00040960       ?Created@MX0_Vehicle_DLS@@UAEXPAVScriptableGameObj@@@Z 10041960 f i Test_DLS.obj
 0001:00040b00       ?Enemy_Seen@MX0_Vehicle_DLS@@UAEXPAVScriptableGameObj@@0@Z 10041b00 f i Test_DLS.obj
 0001:00040c20       ?Custom@MX0_Vehicle_DLS@@UAEXPAVScriptableGameObj@@HH0@Z 10041c20 f i Test_DLS.obj
 0001:00040ea0       ?Action_Complete@MX0_Vehicle_DLS@@UAEXPAVScriptableGameObj@@HW4ActionCompleteReason@@@Z 10041ea0 f i Test_DLS.obj
 0001:00040fd0       ??_E?$ScriptRegistrant@VMX0_Obelisk_Weapon_DLS@@@@UAEPAXI@Z 10041fd0 f i Test_DLS.obj
 0001:00040fd0       ??_G?$ScriptRegistrant@VMX0_Obelisk_Weapon_DLS@@@@UAEPAXI@Z 10041fd0 f i Test_DLS.obj
 0001:00041020       ??0MX0_Obelisk_Weapon_DLS@@QAE@XZ 10042020 f i Test_DLS.obj
 0001:00041050       ?Register_Auto_Save_Variables@MX0_Obelisk_Weapon_DLS@@UAEXXZ 10042050 f i Test_DLS.obj
 0001:00041100       ?Created@MX0_Obelisk_Weapon_DLS@@UAEXPAVScriptableGameObj@@@Z 10042100 f i Test_DLS.obj
 0001:00041210       ?Custom@MX0_Obelisk_Weapon_DLS@@UAEXPAVScriptableGameObj@@HH0@Z 10042210 f i Test_DLS.obj
 0001:00041690       ?Timer_Expired@MX0_Obelisk_Weapon_DLS@@UAEXPAVScriptableGameObj@@H@Z 10042690 f i Test_DLS.obj
 0001:000418f0       ?Action_Complete@MX0_Obelisk_Weapon_DLS@@UAEXPAVScriptableGameObj@@HW4ActionCompleteReason@@@Z 100428f0 f i Test_DLS.obj
 0001:00041930       ?Destroy_Obelisk_Effect@MX0_Obelisk_Weapon_DLS@@QAEXXZ 10042930 f i Test_DLS.obj
 0001:000419a0       ?Destroyed@MX0_Obelisk_Weapon_DLS@@UAEXPAVScriptableGameObj@@@Z 100429a0 f i Test_DLS.obj
 0001:00041a10       ??_G?$ScriptRegistrant@VMX0_GDI_Killed_DLS@@@@UAEPAXI@Z 10042a10 f i Test_DLS.obj
 0001:00041a10       ??_E?$ScriptRegistrant@VMX0_GDI_Killed_DLS@@@@UAEPAXI@Z 10042a10 f i Test_DLS.obj
 0001:00041a60       ??0MX0_GDI_Killed_DLS@@QAE@XZ 10042a60 f i Test_DLS.obj
 0001:00041a90       ?Register_Auto_Save_Variables@MX0_GDI_Killed_DLS@@UAEXXZ 10042a90 f i Test_DLS.obj
 0001:00041ab0       ?Created@MX0_GDI_Killed_DLS@@UAEXPAVScriptableGameObj@@@Z 10042ab0 f i Test_DLS.obj
 0001:00041ad0       ?Damaged@MX0_GDI_Killed_DLS@@UAEXPAVScriptableGameObj@@0M@Z 10042ad0 f i Test_DLS.obj
 0001:00041b50       ?Killed@MX0_GDI_Killed_DLS@@UAEXPAVScriptableGameObj@@0@Z 10042b50 f i Test_DLS.obj
 0001:00041d40       ??_E?$ScriptRegistrant@VMX0_GDI_Soldier_DLS@@@@UAEPAXI@Z 10042d40 f i Test_DLS.obj
 0001:00041d40       ??_G?$ScriptRegistrant@VMX0_GDI_Soldier_DLS@@@@UAEPAXI@Z 10042d40 f i Test_DLS.obj
 0001:00041d90       ??0MX0_GDI_Soldier_DLS@@QAE@XZ 10042d90 f i Test_DLS.obj
 0001:00041dc0       ?Register_Auto_Save_Variables@MX0_GDI_Soldier_DLS@@UAEXXZ 10042dc0 f i Test_DLS.obj
 0001:00041e40       ?Created@MX0_GDI_Soldier_DLS@@UAEXPAVScriptableGameObj@@@Z 10042e40 f i Test_DLS.obj
 0001:00041fe0       ?Enemy_Seen@MX0_GDI_Soldier_DLS@@UAEXPAVScriptableGameObj@@0@Z 10042fe0 f i Test_DLS.obj
 0001:00042100       ?Custom@MX0_GDI_Soldier_DLS@@UAEXPAVScriptableGameObj@@HH0@Z 10043100 f i Test_DLS.obj
 0001:00042790       ?Timer_Expired@MX0_GDI_Soldier_DLS@@UAEXPAVScriptableGameObj@@H@Z 10043790 f i Test_DLS.obj
 0001:00042890       ?Action_Complete@MX0_GDI_Soldier_DLS@@UAEXPAVScriptableGameObj@@HW4ActionCompleteReason@@@Z 10043890 f i Test_DLS.obj
 0001:00042940       ??_E?$ScriptRegistrant@VMX0_Gun_Emplacement_DLS@@@@UAEPAXI@Z 10043940 f i Test_DLS.obj
 0001:00042940       ??_G?$ScriptRegistrant@VMX0_Gun_Emplacement_DLS@@@@UAEPAXI@Z 10043940 f i Test_DLS.obj
 0001:00042990       ??0MX0_Gun_Emplacement_DLS@@QAE@XZ 10043990 f i Test_DLS.obj
 0001:000429c0       ?Register_Auto_Save_Variables@MX0_Gun_Emplacement_DLS@@UAEXXZ 100439c0 f i Test_DLS.obj
 0001:000429f0       ?Created@MX0_Gun_Emplacement_DLS@@UAEXPAVScriptableGameObj@@@Z 100439f0 f i Test_DLS.obj
 0001:00042a20       ?Custom@MX0_Gun_Emplacement_DLS@@UAEXPAVScriptableGameObj@@HH0@Z 10043a20 f i Test_DLS.obj
 0001:00042a70       ?Timer_Expired@MX0_Gun_Emplacement_DLS@@UAEXPAVScriptableGameObj@@H@Z 10043a70 f i Test_DLS.obj
 0001:00042bf0       ??_G?$ScriptRegistrant@VMX0_Nod_RocketSoldier_DLS@@@@UAEPAXI@Z 10043bf0 f i Test_DLS.obj
 0001:00042bf0       ??_E?$ScriptRegistrant@VMX0_Nod_RocketSoldier_DLS@@@@UAEPAXI@Z 10043bf0 f i Test_DLS.obj
 0001:00042c40       ??0MX0_Nod_RocketSoldier_DLS@@QAE@XZ 10043c40 f i Test_DLS.obj
 0001:00042c70       ?Register_Auto_Save_Variables@MX0_Nod_RocketSoldier_DLS@@UAEXXZ 10043c70 f i Test_DLS.obj
 0001:00042c90       ?Created@MX0_Nod_RocketSoldier_DLS@@UAEXPAVScriptableGameObj@@@Z 10043c90 f i Test_DLS.obj
 0001:00042d40       ?Custom@MX0_Nod_RocketSoldier_DLS@@UAEXPAVScriptableGameObj@@HH0@Z 10043d40 f i Test_DLS.obj
 0001:00042df0       ?Action_Complete@MX0_Nod_RocketSoldier_DLS@@UAEXPAVScriptableGameObj@@HW4ActionCompleteReason@@@Z 10043df0 f i Test_DLS.obj
 0001:00042e50       ?Enemy_Seen@MX0_Nod_RocketSoldier_DLS@@UAEXPAVScriptableGameObj@@0@Z 10043e50 f i Test_DLS.obj
 0001:00042ee0       ??_E?$ScriptRegistrant@VMX0_SAM_DLS@@@@UAEPAXI@Z 10043ee0 f i Test_DLS.obj
 0001:00042ee0       ??_G?$ScriptRegistrant@VMX0_SAM_DLS@@@@UAEPAXI@Z 10043ee0 f i Test_DLS.obj
 0001:00042f30       ??0MX0_SAM_DLS@@QAE@XZ     10043f30 f i Test_DLS.obj
 0001:00042f60       ?Register_Auto_Save_Variables@MX0_SAM_DLS@@UAEXXZ 10043f60 f i Test_DLS.obj
 0001:00042f80       ?Created@MX0_SAM_DLS@@UAEXPAVScriptableGameObj@@@Z 10043f80 f i Test_DLS.obj
 0001:00042fc0       ?Custom@MX0_SAM_DLS@@UAEXPAVScriptableGameObj@@HH0@Z 10043fc0 f i Test_DLS.obj
 0001:00043070       ??_G?$ScriptRegistrant@VMX0_Nod_Bunker_DLS@@@@UAEPAXI@Z 10044070 f i Test_DLS.obj
 0001:00043070       ??_E?$ScriptRegistrant@VMX0_Nod_Bunker_DLS@@@@UAEPAXI@Z 10044070 f i Test_DLS.obj
 0001:000430c0       ??0MX0_Nod_Bunker_DLS@@QAE@XZ 100440c0 f i Test_DLS.obj
 0001:000430f0       ?Register_Auto_Save_Variables@MX0_Nod_Bunker_DLS@@UAEXXZ 100440f0 f i Test_DLS.obj
 0001:00043110       ?Created@MX0_Nod_Bunker_DLS@@UAEXPAVScriptableGameObj@@@Z 10044110 f i Test_DLS.obj
 0001:00043150       ?Enemy_Seen@MX0_Nod_Bunker_DLS@@UAEXPAVScriptableGameObj@@0@Z 10044150 f i Test_DLS.obj
 0001:000431e0       ??_E?$ScriptRegistrant@VMX0_Plant_Ion_Beacon_DLS@@@@UAEPAXI@Z 100441e0 f i Test_DLS.obj
 0001:000431e0       ??_G?$ScriptRegistrant@VMX0_Plant_Ion_Beacon_DLS@@@@UAEPAXI@Z 100441e0 f i Test_DLS.obj
 0001:00043230       ??0MX0_Plant_Ion_Beacon_DLS@@QAE@XZ 10044230 f i Test_DLS.obj
 0001:00043260       ?Register_Auto_Save_Variables@MX0_Plant_Ion_Beacon_DLS@@UAEXXZ 10044260 f i Test_DLS.obj
 0001:00043280       ?Created@MX0_Plant_Ion_Beacon_DLS@@UAEXPAVScriptableGameObj@@@Z 10044280 f i Test_DLS.obj
 0001:00043360       ??_E?$ScriptRegistrant@VDLS_Star_No_Fall@@@@UAEPAXI@Z 10044360 f i Test_DLS.obj
 0001:00043360       ??_G?$ScriptRegistrant@VDLS_Star_No_Fall@@@@UAEPAXI@Z 10044360 f i Test_DLS.obj
 0001:000433b0       ??0DLS_Star_No_Fall@@QAE@XZ 100443b0 f i Test_DLS.obj
 0001:000433e0       ?Register_Auto_Save_Variables@DLS_Star_No_Fall@@UAEXXZ 100443e0 f i Test_DLS.obj
 0001:00043400       ?Created@DLS_Star_No_Fall@@UAEXPAVScriptableGameObj@@@Z 10044400 f i Test_DLS.obj
 0001:00043440       ?Timer_Expired@DLS_Star_No_Fall@@UAEXPAVScriptableGameObj@@H@Z 10044440 f i Test_DLS.obj
 0001:00043520       ??_G?$ScriptRegistrant@VMX0_Explosive_Barrels_DLS@@@@UAEPAXI@Z 10044520 f i Test_DLS.obj
 0001:00043520       ??_E?$ScriptRegistrant@VMX0_Explosive_Barrels_DLS@@@@UAEPAXI@Z 10044520 f i Test_DLS.obj
 0001:00043570       ??0MX0_Explosive_Barrels_DLS@@QAE@XZ 10044570 f i Test_DLS.obj
 0001:000435a0       ?Register_Auto_Save_Variables@MX0_Explosive_Barrels_DLS@@UAEXXZ 100445a0 f i Test_DLS.obj
 0001:000435c0       ?Created@MX0_Explosive_Barrels_DLS@@UAEXPAVScriptableGameObj@@@Z 100445c0 f i Test_DLS.obj
 0001:000435e0       ?Custom@MX0_Explosive_Barrels_DLS@@UAEXPAVScriptableGameObj@@HH0@Z 100445e0 f i Test_DLS.obj
 0001:00043600       ?Sound_Heard@MX0_Explosive_Barrels_DLS@@UAEXPAVScriptableGameObj@@ABVCombatSound@@@Z 10044600 f i Test_DLS.obj
 0001:00043660       ?Killed@MX0_Explosive_Barrels_DLS@@UAEXPAVScriptableGameObj@@0@Z 10044660 f i Test_DLS.obj
 0001:00043710       ??_GDLS_SpawnTest@@UAEPAXI@Z 10044710 f i Test_DLS.obj
 0001:00043710       ??_EDLS_SpawnTest@@UAEPAXI@Z 10044710 f i Test_DLS.obj
 0001:00043760       ??_EDLS_Spawner@@UAEPAXI@Z 10044760 f i Test_DLS.obj
 0001:00043760       ??_GDLS_Spawner@@UAEPAXI@Z 10044760 f i Test_DLS.obj
 0001:000437b0       ??_GDLS_Two_Way@@UAEPAXI@Z 100447b0 f i Test_DLS.obj
 0001:000437b0       ??_EDLS_Two_Way@@UAEPAXI@Z 100447b0 f i Test_DLS.obj
 0001:00043800       ??_GDLS_Invulnerable_Test@@UAEPAXI@Z 10044800 f i Test_DLS.obj
 0001:00043800       ??_EDLS_Invulnerable_Test@@UAEPAXI@Z 10044800 f i Test_DLS.obj
 0001:00043850       ??_EDLS_InnateIsStationary_Test@@UAEPAXI@Z 10044850 f i Test_DLS.obj
 0001:00043850       ??_GDLS_InnateIsStationary_Test@@UAEPAXI@Z 10044850 f i Test_DLS.obj
 0001:000438a0       ??_GDLS_Camera_Test@@UAEPAXI@Z 100448a0 f i Test_DLS.obj
 0001:000438a0       ??_EDLS_Camera_Test@@UAEPAXI@Z 100448a0 f i Test_DLS.obj
 0001:000438f0       ??_GDLS_Gun_Test@@UAEPAXI@Z 100448f0 f i Test_DLS.obj
 0001:000438f0       ??_EDLS_Gun_Test@@UAEPAXI@Z 100448f0 f i Test_DLS.obj
 0001:00043940       ??_EDLS_Test_NULL@@UAEPAXI@Z 10044940 f i Test_DLS.obj
 0001:00043940       ??_GDLS_Test_NULL@@UAEPAXI@Z 10044940 f i Test_DLS.obj
 0001:00043990       ??_EDLS_Rappelling_Activate@@UAEPAXI@Z 10044990 f i Test_DLS.obj
 0001:00043990       ??_GDLS_Rappelling_Activate@@UAEPAXI@Z 10044990 f i Test_DLS.obj
 0001:000439e0       ??_EDLS_Tank_Path_Test@@UAEPAXI@Z 100449e0 f i Test_DLS.obj
 0001:000439e0       ??_GDLS_Tank_Path_Test@@UAEPAXI@Z 100449e0 f i Test_DLS.obj
 0001:00043a30       ??_EDLS_Vehicle_Follow@@UAEPAXI@Z 10044a30 f i Test_DLS.obj
 0001:00043a30       ??_GDLS_Vehicle_Follow@@UAEPAXI@Z 10044a30 f i Test_DLS.obj
 0001:00043a80       ??_GDLS_Filing_Cabinet@@UAEPAXI@Z 10044a80 f i Test_DLS.obj
 0001:00043a80       ??_EDLS_Filing_Cabinet@@UAEPAXI@Z 10044a80 f i Test_DLS.obj
 0001:00043ad0       ??_GDLS_Waypath_Test@@UAEPAXI@Z 10044ad0 f i Test_DLS.obj
 0001:00043ad0       ??_EDLS_Waypath_Test@@UAEPAXI@Z 10044ad0 f i Test_DLS.obj
 0001:00043b20       ??_GM06_Camera_Behavior@@UAEPAXI@Z 10044b20 f i Test_DLS.obj
 0001:00043b20       ??_EM06_Camera_Behavior@@UAEPAXI@Z 10044b20 f i Test_DLS.obj
 0001:00043b70       ??_GDLS_Test_Pickup@@UAEPAXI@Z 10044b70 f i Test_DLS.obj
 0001:00043b70       ??_EDLS_Test_Pickup@@UAEPAXI@Z 10044b70 f i Test_DLS.obj
 0001:00043bc0       ??_EDLS_Flame_Tank_Test@@UAEPAXI@Z 10044bc0 f i Test_DLS.obj
 0001:00043bc0       ??_GDLS_Flame_Tank_Test@@UAEPAXI@Z 10044bc0 f i Test_DLS.obj
 0001:00043c10       ??_GDLS_Innate_Force_State@@UAEPAXI@Z 10044c10 f i Test_DLS.obj
 0001:00043c10       ??_EDLS_Innate_Force_State@@UAEPAXI@Z 10044c10 f i Test_DLS.obj
 0001:00043c60       ??_GDLS_Cargo_Plane_Test@@UAEPAXI@Z 10044c60 f i Test_DLS.obj
 0001:00043c60       ??_EDLS_Cargo_Plane_Test@@UAEPAXI@Z 10044c60 f i Test_DLS.obj
 0001:00043cb0       ??_GM00_C130_ParaDrop@@UAEPAXI@Z 10044cb0 f i Test_DLS.obj
 0001:00043cb0       ??_EM00_C130_ParaDrop@@UAEPAXI@Z 10044cb0 f i Test_DLS.obj
 0001:00043d00       ??_EM00_Reinforcement_C130@@UAEPAXI@Z 10044d00 f i Test_DLS.obj
 0001:00043d00       ??_GM00_Reinforcement_C130@@UAEPAXI@Z 10044d00 f i Test_DLS.obj
 0001:00043d50       ??_GDLS_Test_Conversation@@UAEPAXI@Z 10044d50 f i Test_DLS.obj
 0001:00043d50       ??_EDLS_Test_Conversation@@UAEPAXI@Z 10044d50 f i Test_DLS.obj
 0001:00043da0       ??_GDLS_Test_Zone_Timer@@UAEPAXI@Z 10044da0 f i Test_DLS.obj
 0001:00043da0       ??_EDLS_Test_Zone_Timer@@UAEPAXI@Z 10044da0 f i Test_DLS.obj
 0001:00043df0       ??_EDLS_Drop_Unit@@UAEPAXI@Z 10044df0 f i Test_DLS.obj
 0001:00043df0       ??_GDLS_Drop_Unit@@UAEPAXI@Z 10044df0 f i Test_DLS.obj
 0001:00043e40       ??_GDLS_CNC_Sound@@UAEPAXI@Z 10044e40 f i Test_DLS.obj
 0001:00043e40       ??_EDLS_CNC_Sound@@UAEPAXI@Z 10044e40 f i Test_DLS.obj
 0001:00043e90       ??_EDLS_Spawn_Engineer@@UAEPAXI@Z 10044e90 f i Test_DLS.obj
 0001:00043e90       ??_GDLS_Spawn_Engineer@@UAEPAXI@Z 10044e90 f i Test_DLS.obj
 0001:00043ee0       ??_GDLS_Spawn_Engineer2@@UAEPAXI@Z 10044ee0 f i Test_DLS.obj
 0001:00043ee0       ??_EDLS_Spawn_Engineer2@@UAEPAXI@Z 10044ee0 f i Test_DLS.obj
 0001:00043f30       ??_GDLS_Test_Homepoint@@UAEPAXI@Z 10044f30 f i Test_DLS.obj
 0001:00043f30       ??_EDLS_Test_Homepoint@@UAEPAXI@Z 10044f30 f i Test_DLS.obj
 0001:00043f80       ??_GDLS_Test_Apache@@UAEPAXI@Z 10044f80 f i Test_DLS.obj
 0001:00043f80       ??_EDLS_Test_Apache@@UAEPAXI@Z 10044f80 f i Test_DLS.obj
 0001:00043fd0       ??_GDLS_Test_Tank@@UAEPAXI@Z 10044fd0 f i Test_DLS.obj
 0001:00043fd0       ??_EDLS_Test_Tank@@UAEPAXI@Z 10044fd0 f i Test_DLS.obj
 0001:00044020       ??_GDLS_Goto_Unit@@UAEPAXI@Z 10045020 f i Test_DLS.obj
 0001:00044020       ??_EDLS_Goto_Unit@@UAEPAXI@Z 10045020 f i Test_DLS.obj
 0001:00044070       ??_GDLS_Playertype@@UAEPAXI@Z 10045070 f i Test_DLS.obj
 0001:00044070       ??_EDLS_Playertype@@UAEPAXI@Z 10045070 f i Test_DLS.obj
 0001:000440c0       ??_EDLS_No_Innate@@UAEPAXI@Z 100450c0 f i Test_DLS.obj
 0001:000440c0       ??_GDLS_No_Innate@@UAEPAXI@Z 100450c0 f i Test_DLS.obj
 0001:00044110       ??_GDLS_ActionComplete_Test@@UAEPAXI@Z 10045110 f i Test_DLS.obj
 0001:00044110       ??_EDLS_ActionComplete_Test@@UAEPAXI@Z 10045110 f i Test_DLS.obj
 0001:00044160       ??_GDLS_Artillery_Test@@UAEPAXI@Z 10045160 f i Test_DLS.obj
 0001:00044160       ??_EDLS_Artillery_Test@@UAEPAXI@Z 10045160 f i Test_DLS.obj
 0001:000441b0       ??_GDLS_Cinematic_Test@@UAEPAXI@Z 100451b0 f i Test_DLS.obj
 0001:000441b0       ??_EDLS_Cinematic_Test@@UAEPAXI@Z 100451b0 f i Test_DLS.obj
 0001:00044200       ??_GDLS_SSM_Test@@UAEPAXI@Z 10045200 f i Test_DLS.obj
 0001:00044200       ??_EDLS_SSM_Test@@UAEPAXI@Z 10045200 f i Test_DLS.obj
 0001:00044250       ??_GDLS_Cinematic_Test2@@UAEPAXI@Z 10045250 f i Test_DLS.obj
 0001:00044250       ??_EDLS_Cinematic_Test2@@UAEPAXI@Z 10045250 f i Test_DLS.obj
 0001:000442a0       ??_EDLS_Where_Am_I@@UAEPAXI@Z 100452a0 f i Test_DLS.obj
 0001:000442a0       ??_GDLS_Where_Am_I@@UAEPAXI@Z 100452a0 f i Test_DLS.obj
 0001:000442f0       ??_GDLS_Test_Flyovers@@UAEPAXI@Z 100452f0 f i Test_DLS.obj
 0001:000442f0       ??_EDLS_Test_Flyovers@@UAEPAXI@Z 100452f0 f i Test_DLS.obj
 0001:00044340       ??_GDLS_Test_Hand_Over_Head@@UAEPAXI@Z 10045340 f i Test_DLS.obj
 0001:00044340       ??_EDLS_Test_Hand_Over_Head@@UAEPAXI@Z 10045340 f i Test_DLS.obj
 0001:00044390       ??_EDLS_Created_Too_Early@@UAEPAXI@Z 10045390 f i Test_DLS.obj
 0001:00044390       ??_GDLS_Created_Too_Early@@UAEPAXI@Z 10045390 f i Test_DLS.obj
 0001:000443e0       ??_EDLS_Blink@@UAEPAXI@Z   100453e0 f i Test_DLS.obj
 0001:000443e0       ??_GDLS_Blink@@UAEPAXI@Z   100453e0 f i Test_DLS.obj
 0001:00044430       ??_GDLS_Math@@UAEPAXI@Z    10045430 f i Test_DLS.obj
 0001:00044430       ??_EDLS_Math@@UAEPAXI@Z    10045430 f i Test_DLS.obj
 0001:00044480       ??_EDLS_Test_Evac@@UAEPAXI@Z 10045480 f i Test_DLS.obj
 0001:00044480       ??_GDLS_Test_Evac@@UAEPAXI@Z 10045480 f i Test_DLS.obj
 0001:000444d0       ??_GDLS_Innate_Disable@@UAEPAXI@Z 100454d0 f i Test_DLS.obj
 0001:000444d0       ??_EDLS_Innate_Disable@@UAEPAXI@Z 100454d0 f i Test_DLS.obj
 0001:00044520       ??_GMX0_Area4_Controller_DLS@@UAEPAXI@Z 10045520 f i Test_DLS.obj
 0001:00044520       ??_EMX0_Area4_Controller_DLS@@UAEPAXI@Z 10045520 f i Test_DLS.obj
 0001:00044570       ??_GMX0_Area4_Zone_DLS@@UAEPAXI@Z 10045570 f i Test_DLS.obj
 0001:00044570       ??_EMX0_Area4_Zone_DLS@@UAEPAXI@Z 10045570 f i Test_DLS.obj
 0001:000445c0       ??_GMX0_Vehicle_DLS@@UAEPAXI@Z 100455c0 f i Test_DLS.obj
 0001:000445c0       ??_EMX0_Vehicle_DLS@@UAEPAXI@Z 100455c0 f i Test_DLS.obj
 0001:00044610       ??_EMX0_Obelisk_Weapon_DLS@@UAEPAXI@Z 10045610 f i Test_DLS.obj
 0001:00044610       ??_GMX0_Obelisk_Weapon_DLS@@UAEPAXI@Z 10045610 f i Test_DLS.obj
 0001:00044660       ??_EMX0_GDI_Killed_DLS@@UAEPAXI@Z 10045660 f i Test_DLS.obj
 0001:00044660       ??_GMX0_GDI_Killed_DLS@@UAEPAXI@Z 10045660 f i Test_DLS.obj
 0001:000446b0       ??_EMX0_GDI_Soldier_DLS@@UAEPAXI@Z 100456b0 f i Test_DLS.obj
 0001:000446b0       ??_GMX0_GDI_Soldier_DLS@@UAEPAXI@Z 100456b0 f i Test_DLS.obj
 0001:00044700       ??_GMX0_Gun_Emplacement_DLS@@UAEPAXI@Z 10045700 f i Test_DLS.obj
 0001:00044700       ??_EMX0_Gun_Emplacement_DLS@@UAEPAXI@Z 10045700 f i Test_DLS.obj
 0001:00044750       ??_EMX0_Nod_RocketSoldier_DLS@@UAEPAXI@Z 10045750 f i Test_DLS.obj
 0001:00044750       ??_GMX0_Nod_RocketSoldier_DLS@@UAEPAXI@Z 10045750 f i Test_DLS.obj
 0001:000447a0       ??_GMX0_SAM_DLS@@UAEPAXI@Z 100457a0 f i Test_DLS.obj
 0001:000447a0       ??_EMX0_SAM_DLS@@UAEPAXI@Z 100457a0 f i Test_DLS.obj
 0001:000447f0       ??_EMX0_Nod_Bunker_DLS@@UAEPAXI@Z 100457f0 f i Test_DLS.obj
 0001:000447f0       ??_GMX0_Nod_Bunker_DLS@@UAEPAXI@Z 100457f0 f i Test_DLS.obj
 0001:00044840       ??_EMX0_Plant_Ion_Beacon_DLS@@UAEPAXI@Z 10045840 f i Test_DLS.obj
 0001:00044840       ??_GMX0_Plant_Ion_Beacon_DLS@@UAEPAXI@Z 10045840 f i Test_DLS.obj
 0001:00044890       ??_EDLS_Star_No_Fall@@UAEPAXI@Z 10045890 f i Test_DLS.obj
 0001:00044890       ??_GDLS_Star_No_Fall@@UAEPAXI@Z 10045890 f i Test_DLS.obj
 0001:000448e0       ??_EMX0_Explosive_Barrels_DLS@@UAEPAXI@Z 100458e0 f i Test_DLS.obj
 0001:000448e0       ??_GMX0_Explosive_Barrels_DLS@@UAEPAXI@Z 100458e0 f i Test_DLS.obj
 0001:00044930       ??1DLS_SpawnTest@@UAE@XZ   10045930 f i Test_DLS.obj
 0001:00044960       ??1DLS_Spawner@@UAE@XZ     10045960 f i Test_DLS.obj
 0001:00044990       ??1DLS_Two_Way@@UAE@XZ     10045990 f i Test_DLS.obj
 0001:000449c0       ??1DLS_Invulnerable_Test@@UAE@XZ 100459c0 f i Test_DLS.obj
 0001:000449f0       ??1DLS_InnateIsStationary_Test@@UAE@XZ 100459f0 f i Test_DLS.obj
 0001:00044a20       ??1DLS_Camera_Test@@UAE@XZ 10045a20 f i Test_DLS.obj
 0001:00044a50       ??1DLS_Gun_Test@@UAE@XZ    10045a50 f i Test_DLS.obj
 0001:00044a80       ??1DLS_Test_NULL@@UAE@XZ   10045a80 f i Test_DLS.obj
 0001:00044ab0       ??1DLS_Rappelling_Activate@@UAE@XZ 10045ab0 f i Test_DLS.obj
 0001:00044ae0       ??1DLS_Tank_Path_Test@@UAE@XZ 10045ae0 f i Test_DLS.obj
 0001:00044b10       ??1DLS_Vehicle_Follow@@UAE@XZ 10045b10 f i Test_DLS.obj
 0001:00044b40       ??1DLS_Filing_Cabinet@@UAE@XZ 10045b40 f i Test_DLS.obj
 0001:00044b70       ??1DLS_Waypath_Test@@UAE@XZ 10045b70 f i Test_DLS.obj
 0001:00044ba0       ??1M06_Camera_Behavior@@UAE@XZ 10045ba0 f i Test_DLS.obj
 0001:00044bd0       ??1DLS_Test_Pickup@@UAE@XZ 10045bd0 f i Test_DLS.obj
 0001:00044c00       ??1DLS_Flame_Tank_Test@@UAE@XZ 10045c00 f i Test_DLS.obj
 0001:00044c30       ??1DLS_Innate_Force_State@@UAE@XZ 10045c30 f i Test_DLS.obj
 0001:00044c60       ??1DLS_Cargo_Plane_Test@@UAE@XZ 10045c60 f i Test_DLS.obj
 0001:00044c90       ??1M00_C130_ParaDrop@@UAE@XZ 10045c90 f i Test_DLS.obj
 0001:00044cc0       ??1M00_Reinforcement_C130@@UAE@XZ 10045cc0 f i Test_DLS.obj
 0001:00044cf0       ??1DLS_Test_Conversation@@UAE@XZ 10045cf0 f i Test_DLS.obj
 0001:00044d20       ??1DLS_Test_Zone_Timer@@UAE@XZ 10045d20 f i Test_DLS.obj
 0001:00044d50       ??1DLS_Drop_Unit@@UAE@XZ   10045d50 f i Test_DLS.obj
 0001:00044d80       ??1DLS_CNC_Sound@@UAE@XZ   10045d80 f i Test_DLS.obj
 0001:00044db0       ??1DLS_Spawn_Engineer@@UAE@XZ 10045db0 f i Test_DLS.obj
 0001:00044de0       ??1DLS_Spawn_Engineer2@@UAE@XZ 10045de0 f i Test_DLS.obj
 0001:00044e10       ??1DLS_Test_Homepoint@@UAE@XZ 10045e10 f i Test_DLS.obj
 0001:00044e40       ??1DLS_Test_Apache@@UAE@XZ 10045e40 f i Test_DLS.obj
 0001:00044e70       ??1DLS_Test_Tank@@UAE@XZ   10045e70 f i Test_DLS.obj
 0001:00044ea0       ??1DLS_Goto_Unit@@UAE@XZ   10045ea0 f i Test_DLS.obj
 0001:00044ed0       ??1DLS_Playertype@@UAE@XZ  10045ed0 f i Test_DLS.obj
 0001:00044f00       ??1DLS_No_Innate@@UAE@XZ   10045f00 f i Test_DLS.obj
 0001:00044f30       ??1DLS_ActionComplete_Test@@UAE@XZ 10045f30 f i Test_DLS.obj
 0001:00044f60       ??1DLS_Artillery_Test@@UAE@XZ 10045f60 f i Test_DLS.obj
 0001:00044f90       ??1DLS_Cinematic_Test@@UAE@XZ 10045f90 f i Test_DLS.obj
 0001:00044fc0       ??1DLS_SSM_Test@@UAE@XZ    10045fc0 f i Test_DLS.obj
 0001:00044ff0       ??1DLS_Cinematic_Test2@@UAE@XZ 10045ff0 f i Test_DLS.obj
 0001:00045020       ??1DLS_Where_Am_I@@UAE@XZ  10046020 f i Test_DLS.obj
 0001:00045050       ??1DLS_Test_Flyovers@@UAE@XZ 10046050 f i Test_DLS.obj
 0001:00045080       ??1DLS_Test_Hand_Over_Head@@UAE@XZ 10046080 f i Test_DLS.obj
 0001:000450b0       ??1DLS_Created_Too_Early@@UAE@XZ 100460b0 f i Test_DLS.obj
 0001:000450e0       ??1DLS_Blink@@UAE@XZ       100460e0 f i Test_DLS.obj
 0001:00045110       ??1DLS_Math@@UAE@XZ        10046110 f i Test_DLS.obj
 0001:00045140       ??1DLS_Test_Evac@@UAE@XZ   10046140 f i Test_DLS.obj
 0001:00045170       ??1DLS_Innate_Disable@@UAE@XZ 10046170 f i Test_DLS.obj
 0001:000451a0       ??1MX0_Area4_Controller_DLS@@UAE@XZ 100461a0 f i Test_DLS.obj
 0001:000451d0       ??1MX0_Area4_Zone_DLS@@UAE@XZ 100461d0 f i Test_DLS.obj
 0001:00045200       ??1MX0_Vehicle_DLS@@UAE@XZ 10046200 f i Test_DLS.obj
 0001:00045230       ??1MX0_Obelisk_Weapon_DLS@@UAE@XZ 10046230 f i Test_DLS.obj
 0001:00045260       ??1MX0_GDI_Killed_DLS@@UAE@XZ 10046260 f i Test_DLS.obj
 0001:00045290       ??1MX0_GDI_Soldier_DLS@@UAE@XZ 10046290 f i Test_DLS.obj
 0001:000452c0       ??1MX0_Gun_Emplacement_DLS@@UAE@XZ 100462c0 f i Test_DLS.obj
 0001:000452f0       ??1MX0_Nod_RocketSoldier_DLS@@UAE@XZ 100462f0 f i Test_DLS.obj
 0001:00045320       ??1MX0_SAM_DLS@@UAE@XZ     10046320 f i Test_DLS.obj
 0001:00045350       ??1MX0_Nod_Bunker_DLS@@UAE@XZ 10046350 f i Test_DLS.obj
 0001:00045380       ??1MX0_Plant_Ion_Beacon_DLS@@UAE@XZ 10046380 f i Test_DLS.obj
 0001:000453b0       ??1DLS_Star_No_Fall@@UAE@XZ 100463b0 f i Test_DLS.obj
 0001:000453e0       ??1MX0_Explosive_Barrels_DLS@@UAE@XZ 100463e0 f i Test_DLS.obj
 0001:000454b0       ??1?$ScriptRegistrant@VDME_Test_Powerup@@@@UAE@XZ 100464b0 f i Test_DME.obj
 0001:00045580       ??1?$ScriptRegistrant@VDME_Destroy_Item@@@@UAE@XZ 10046580 f i Test_DME.obj
 0001:00045650       ??1?$ScriptRegistrant@VDME_Waypath_test@@@@UAE@XZ 10046650 f i Test_DME.obj
 0001:00045720       ??1?$ScriptRegistrant@VDME_Test_Ejected_Soldier@@@@UAE@XZ 10046720 f i Test_DME.obj
 0001:000457f0       ??1?$ScriptRegistrant@VDME_Test_Paradrop@@@@UAE@XZ 100467f0 f i Test_DME.obj
 0001:000458c0       ??1?$ScriptRegistrant@VDME_Test_Worker_Wander@@@@UAE@XZ 100468c0 f i Test_DME.obj
 0001:00045990       ??1?$ScriptRegistrant@VDME_Test_Work_Area@@@@UAE@XZ 10046990 f i Test_DME.obj
 0001:00045a60       ??1?$ScriptRegistrant@VM05_Tank_Drop_01_DME@@@@UAE@XZ 10046a60 f i Test_DME.obj
 0001:00045b30       ??1?$ScriptRegistrant@VM05_Tank_Attack_DME@@@@UAE@XZ 10046b30 f i Test_DME.obj
 0001:00045c00       ??1?$ScriptRegistrant@VM05_Tech_Wander_DME@@@@UAE@XZ 10046c00 f i Test_DME.obj
 0001:00045cd0       ??1?$ScriptRegistrant@Vtest_Ssm_Trigger@@@@UAE@XZ 10046cd0 f i Test_DME.obj
 0001:00045da0       ??1?$ScriptRegistrant@VDME_Cinematic_Test@@@@UAE@XZ 10046da0 f i Test_DME.obj
 0001:00045dd0       ??0?$ScriptRegistrant@VDME_Test_Powerup@@@@QAE@PBD0@Z 10046dd0 f i Test_DME.obj
 0001:00045e10       ?Create@?$ScriptRegistrant@VDME_Test_Powerup@@@@UAEPAVScriptImpClass@@XZ 10046e10 f i Test_DME.obj
 0001:00045eb0       ??0?$ScriptRegistrant@VDME_Destroy_Item@@@@QAE@PBD0@Z 10046eb0 f i Test_DME.obj
 0001:00045ef0       ?Create@?$ScriptRegistrant@VDME_Destroy_Item@@@@UAEPAVScriptImpClass@@XZ 10046ef0 f i Test_DME.obj
 0001:00045f90       ??0?$ScriptRegistrant@VDME_Waypath_test@@@@QAE@PBD0@Z 10046f90 f i Test_DME.obj
 0001:00045fd0       ?Create@?$ScriptRegistrant@VDME_Waypath_test@@@@UAEPAVScriptImpClass@@XZ 10046fd0 f i Test_DME.obj
 0001:00046070       ??0?$ScriptRegistrant@VDME_Test_Ejected_Soldier@@@@QAE@PBD0@Z 10047070 f i Test_DME.obj
 0001:000460b0       ?Create@?$ScriptRegistrant@VDME_Test_Ejected_Soldier@@@@UAEPAVScriptImpClass@@XZ 100470b0 f i Test_DME.obj
 0001:00046150       ??0?$ScriptRegistrant@VDME_Test_Paradrop@@@@QAE@PBD0@Z 10047150 f i Test_DME.obj
 0001:00046190       ?Create@?$ScriptRegistrant@VDME_Test_Paradrop@@@@UAEPAVScriptImpClass@@XZ 10047190 f i Test_DME.obj
 0001:00046230       ??0?$ScriptRegistrant@VDME_Test_Worker_Wander@@@@QAE@PBD0@Z 10047230 f i Test_DME.obj
 0001:00046270       ?Create@?$ScriptRegistrant@VDME_Test_Worker_Wander@@@@UAEPAVScriptImpClass@@XZ 10047270 f i Test_DME.obj
 0001:00046310       ??0?$ScriptRegistrant@VDME_Test_Work_Area@@@@QAE@PBD0@Z 10047310 f i Test_DME.obj
 0001:00046350       ?Create@?$ScriptRegistrant@VDME_Test_Work_Area@@@@UAEPAVScriptImpClass@@XZ 10047350 f i Test_DME.obj
 0001:000463f0       ??0?$ScriptRegistrant@VM05_Tank_Drop_01_DME@@@@QAE@PBD0@Z 100473f0 f i Test_DME.obj
 0001:00046430       ?Create@?$ScriptRegistrant@VM05_Tank_Drop_01_DME@@@@UAEPAVScriptImpClass@@XZ 10047430 f i Test_DME.obj
 0001:000464d0       ??0?$ScriptRegistrant@VM05_Tank_Attack_DME@@@@QAE@PBD0@Z 100474d0 f i Test_DME.obj
 0001:00046510       ?Create@?$ScriptRegistrant@VM05_Tank_Attack_DME@@@@UAEPAVScriptImpClass@@XZ 10047510 f i Test_DME.obj
 0001:000465b0       ??0?$ScriptRegistrant@VM05_Tech_Wander_DME@@@@QAE@PBD0@Z 100475b0 f i Test_DME.obj
 0001:000465f0       ?Create@?$ScriptRegistrant@VM05_Tech_Wander_DME@@@@UAEPAVScriptImpClass@@XZ 100475f0 f i Test_DME.obj
 0001:00046690       ??0?$ScriptRegistrant@Vtest_Ssm_Trigger@@@@QAE@PBD0@Z 10047690 f i Test_DME.obj
 0001:000466d0       ?Create@?$ScriptRegistrant@Vtest_Ssm_Trigger@@@@UAEPAVScriptImpClass@@XZ 100476d0 f i Test_DME.obj
 0001:00046770       ??0?$ScriptRegistrant@VDME_Cinematic_Test@@@@QAE@PBD0@Z 10047770 f i Test_DME.obj
 0001:000467b0       ?Create@?$ScriptRegistrant@VDME_Cinematic_Test@@@@UAEPAVScriptImpClass@@XZ 100477b0 f i Test_DME.obj
 0001:00046850       ??_G?$ScriptRegistrant@VDME_Test_Powerup@@@@UAEPAXI@Z 10047850 f i Test_DME.obj
 0001:00046850       ??_E?$ScriptRegistrant@VDME_Test_Powerup@@@@UAEPAXI@Z 10047850 f i Test_DME.obj
 0001:000468a0       ??0DME_Test_Powerup@@QAE@XZ 100478a0 f i Test_DME.obj
 0001:000468d0       ?Register_Auto_Save_Variables@DME_Test_Powerup@@UAEXXZ 100478d0 f i Test_DME.obj
 0001:00046900       ?Killed@DME_Test_Powerup@@UAEXPAVScriptableGameObj@@0@Z 10047900 f i Test_DME.obj
 0001:00046e20       ?Get_Int_Random@@YAHHH@Z   10047e20 f i Test_DME.obj
 0001:00046ea0       ??_E?$ScriptRegistrant@VDME_Destroy_Item@@@@UAEPAXI@Z 10047ea0 f i Test_DME.obj
 0001:00046ea0       ??_G?$ScriptRegistrant@VDME_Destroy_Item@@@@UAEPAXI@Z 10047ea0 f i Test_DME.obj
 0001:00046ef0       ??0DME_Destroy_Item@@QAE@XZ 10047ef0 f i Test_DME.obj
 0001:00046f20       ?Created@DME_Destroy_Item@@EAEXPAVScriptableGameObj@@@Z 10047f20 f i Test_DME.obj
 0001:00046f80       ?Timer_Expired@DME_Destroy_Item@@EAEXPAVScriptableGameObj@@H@Z 10047f80 f i Test_DME.obj
 0001:00046fc0       ??_E?$ScriptRegistrant@VDME_Waypath_test@@@@UAEPAXI@Z 10047fc0 f i Test_DME.obj
 0001:00046fc0       ??_G?$ScriptRegistrant@VDME_Waypath_test@@@@UAEPAXI@Z 10047fc0 f i Test_DME.obj
 0001:00047010       ??0DME_Waypath_test@@QAE@XZ 10048010 f i Test_DME.obj
 0001:00047040       ?Created@DME_Waypath_test@@EAEXPAVScriptableGameObj@@@Z 10048040 f i Test_DME.obj
 0001:00047100       ??_G?$ScriptRegistrant@VDME_Test_Ejected_Soldier@@@@UAEPAXI@Z 10048100 f i Test_DME.obj
 0001:00047100       ??_E?$ScriptRegistrant@VDME_Test_Ejected_Soldier@@@@UAEPAXI@Z 10048100 f i Test_DME.obj
 0001:00047150       ??0DME_Test_Ejected_Soldier@@QAE@XZ 10048150 f i Test_DME.obj
 0001:00047180       ?Killed@DME_Test_Ejected_Soldier@@EAEXPAVScriptableGameObj@@0@Z 10048180 f i Test_DME.obj
 0001:00047230       ??_E?$ScriptRegistrant@VDME_Test_Paradrop@@@@UAEPAXI@Z 10048230 f i Test_DME.obj
 0001:00047230       ??_G?$ScriptRegistrant@VDME_Test_Paradrop@@@@UAEPAXI@Z 10048230 f i Test_DME.obj
 0001:00047280       ??0DME_Test_Paradrop@@QAE@XZ 10048280 f i Test_DME.obj
 0001:000472b0       ?Created@DME_Test_Paradrop@@EAEXPAVScriptableGameObj@@@Z 100482b0 f i Test_DME.obj
 0001:00047460       ?Timer_Expired@DME_Test_Paradrop@@EAEXPAVScriptableGameObj@@H@Z 10048460 f i Test_DME.obj
 0001:000475a0       ??_E?$ScriptRegistrant@VDME_Test_Worker_Wander@@@@UAEPAXI@Z 100485a0 f i Test_DME.obj
 0001:000475a0       ??_G?$ScriptRegistrant@VDME_Test_Worker_Wander@@@@UAEPAXI@Z 100485a0 f i Test_DME.obj
 0001:000475f0       ??0DME_Test_Worker_Wander@@QAE@XZ 100485f0 f i Test_DME.obj
 0001:00047640       ?Custom@DME_Test_Worker_Wander@@EAEXPAVScriptableGameObj@@HH0@Z 10048640 f i Test_DME.obj
 0001:000476f0       ?Worker_Loop@DME_Test_Worker_Wander@@AAEXPAVScriptableGameObj@@@Z 100486f0 f i Test_DME.obj
 0001:00047920       ?init@DME_Test_Worker_Wander@@AAEXXZ 10048920 f i Test_DME.obj
 0001:00047990       ?Action_Complete@DME_Test_Worker_Wander@@EAEXPAVScriptableGameObj@@HW4ActionCompleteReason@@@Z 10048990 f i Test_DME.obj
 0001:00047b00       ?Created@DME_Test_Worker_Wander@@EAEXPAVScriptableGameObj@@@Z 10048b00 f i Test_DME.obj
 0001:00047dc0       ?Timer_Expired@DME_Test_Worker_Wander@@EAEXPAVScriptableGameObj@@H@Z 10048dc0 f i Test_DME.obj
 0001:00047fb0       ??0Vector3@@QAE@XZ         10048fb0 f i Test_DME.obj
 0001:00047fd0       ?Enemy_Seen@DME_Test_Worker_Wander@@EAEXPAVScriptableGameObj@@0@Z 10048fd0 f i Test_DME.obj
 0001:00048180       ?Poked@DME_Test_Worker_Wander@@EAEXPAVScriptableGameObj@@0@Z 10049180 f i Test_DME.obj
 0001:00048720       ??H@YA?AVVector3@@ABV0@0@Z 10049720 f i Test_DME.obj
 0001:00048780       ??_E?$ScriptRegistrant@VDME_Test_Work_Area@@@@UAEPAXI@Z 10049780 f i Test_DME.obj
 0001:00048780       ??_G?$ScriptRegistrant@VDME_Test_Work_Area@@@@UAEPAXI@Z 10049780 f i Test_DME.obj
 0001:000487d0       ??0DME_Test_Work_Area@@QAE@XZ 100497d0 f i Test_DME.obj
 0001:00048800       ?Created@DME_Test_Work_Area@@EAEXPAVScriptableGameObj@@@Z 10049800 f i Test_DME.obj
 0001:00048830       ?Custom@DME_Test_Work_Area@@EAEXPAVScriptableGameObj@@HH0@Z 10049830 f i Test_DME.obj
 0001:00048920       ??_E?$ScriptRegistrant@VM05_Tank_Drop_01_DME@@@@UAEPAXI@Z 10049920 f i Test_DME.obj
 0001:00048920       ??_G?$ScriptRegistrant@VM05_Tank_Drop_01_DME@@@@UAEPAXI@Z 10049920 f i Test_DME.obj
 0001:00048970       ??0M05_Tank_Drop_01_DME@@QAE@XZ 10049970 f i Test_DME.obj
 0001:000489a0       ?Created@M05_Tank_Drop_01_DME@@EAEXPAVScriptableGameObj@@@Z 100499a0 f i Test_DME.obj
 0001:000489d0       ?Custom@M05_Tank_Drop_01_DME@@EAEXPAVScriptableGameObj@@HH0@Z 100499d0 f i Test_DME.obj
 0001:00048ac0       ??_E?$ScriptRegistrant@VM05_Tank_Attack_DME@@@@UAEPAXI@Z 10049ac0 f i Test_DME.obj
 0001:00048ac0       ??_G?$ScriptRegistrant@VM05_Tank_Attack_DME@@@@UAEPAXI@Z 10049ac0 f i Test_DME.obj
 0001:00048b10       ??0M05_Tank_Attack_DME@@QAE@XZ 10049b10 f i Test_DME.obj
 0001:00048b40       ?Register_Auto_Save_Variables@M05_Tank_Attack_DME@@UAEXXZ 10049b40 f i Test_DME.obj
 0001:00048b70       ?Created@M05_Tank_Attack_DME@@UAEXPAVScriptableGameObj@@@Z 10049b70 f i Test_DME.obj
 0001:00048bc0       ?Enemy_Seen@M05_Tank_Attack_DME@@UAEXPAVScriptableGameObj@@0@Z 10049bc0 f i Test_DME.obj
 0001:00048e10       ?Timer_Expired@M05_Tank_Attack_DME@@UAEXPAVScriptableGameObj@@H@Z 10049e10 f i Test_DME.obj
 0001:00048e50       ??_E?$ScriptRegistrant@VM05_Tech_Wander_DME@@@@UAEPAXI@Z 10049e50 f i Test_DME.obj
 0001:00048e50       ??_G?$ScriptRegistrant@VM05_Tech_Wander_DME@@@@UAEPAXI@Z 10049e50 f i Test_DME.obj
 0001:00048ea0       ??0M05_Tech_Wander_DME@@QAE@XZ 10049ea0 f i Test_DME.obj
 0001:00048ee0       ?Custom@M05_Tech_Wander_DME@@EAEXPAVScriptableGameObj@@HH0@Z 10049ee0 f i Test_DME.obj
 0001:00048f90       ?Worker_Loop@M05_Tech_Wander_DME@@AAEXPAVScriptableGameObj@@@Z 10049f90 f i Test_DME.obj
 0001:000491a0       ?init@M05_Tech_Wander_DME@@AAEXXZ 1004a1a0 f i Test_DME.obj
 0001:00049200       ?Action_Complete@M05_Tech_Wander_DME@@EAEXPAVScriptableGameObj@@HW4ActionCompleteReason@@@Z 1004a200 f i Test_DME.obj
 0001:00049360       ?Created@M05_Tech_Wander_DME@@EAEXPAVScriptableGameObj@@@Z 1004a360 f i Test_DME.obj
 0001:000494b0       ?Timer_Expired@M05_Tech_Wander_DME@@EAEXPAVScriptableGameObj@@H@Z 1004a4b0 f i Test_DME.obj
 0001:00049620       ?Enemy_Seen@M05_Tech_Wander_DME@@EAEXPAVScriptableGameObj@@0@Z 1004a620 f i Test_DME.obj
 0001:000497c0       ??_G?$ScriptRegistrant@Vtest_Ssm_Trigger@@@@UAEPAXI@Z 1004a7c0 f i Test_DME.obj
 0001:000497c0       ??_E?$ScriptRegistrant@Vtest_Ssm_Trigger@@@@UAEPAXI@Z 1004a7c0 f i Test_DME.obj
 0001:00049810       ??0test_Ssm_Trigger@@QAE@XZ 1004a810 f i Test_DME.obj
 0001:00049840       ?Damaged@test_Ssm_Trigger@@EAEXPAVScriptableGameObj@@0M@Z 1004a840 f i Test_DME.obj
 0001:000498c0       ??_E?$ScriptRegistrant@VDME_Cinematic_Test@@@@UAEPAXI@Z 1004a8c0 f i Test_DME.obj
 0001:000498c0       ??_G?$ScriptRegistrant@VDME_Cinematic_Test@@@@UAEPAXI@Z 1004a8c0 f i Test_DME.obj
 0001:00049910       ??0DME_Cinematic_Test@@QAE@XZ 1004a910 f i Test_DME.obj
 0001:00049940       ?Created@DME_Cinematic_Test@@EAEXPAVScriptableGameObj@@@Z 1004a940 f i Test_DME.obj
 0001:00049960       ?Damaged@DME_Cinematic_Test@@EAEXPAVScriptableGameObj@@0M@Z 1004a960 f i Test_DME.obj
 0001:000499e0       ??_GDME_Test_Powerup@@UAEPAXI@Z 1004a9e0 f i Test_DME.obj
 0001:000499e0       ??_EDME_Test_Powerup@@UAEPAXI@Z 1004a9e0 f i Test_DME.obj
 0001:00049a30       ??_EDME_Destroy_Item@@UAEPAXI@Z 1004aa30 f i Test_DME.obj
 0001:00049a30       ??_GDME_Destroy_Item@@UAEPAXI@Z 1004aa30 f i Test_DME.obj
 0001:00049a80       ??_EDME_Waypath_test@@UAEPAXI@Z 1004aa80 f i Test_DME.obj
 0001:00049a80       ??_GDME_Waypath_test@@UAEPAXI@Z 1004aa80 f i Test_DME.obj
 0001:00049ad0       ??_GDME_Test_Ejected_Soldier@@UAEPAXI@Z 1004aad0 f i Test_DME.obj
 0001:00049ad0       ??_EDME_Test_Ejected_Soldier@@UAEPAXI@Z 1004aad0 f i Test_DME.obj
 0001:00049b20       ??_EDME_Test_Paradrop@@UAEPAXI@Z 1004ab20 f i Test_DME.obj
 0001:00049b20       ??_GDME_Test_Paradrop@@UAEPAXI@Z 1004ab20 f i Test_DME.obj
 0001:00049b70       ??_EDME_Test_Worker_Wander@@UAEPAXI@Z 1004ab70 f i Test_DME.obj
 0001:00049b70       ??_GDME_Test_Worker_Wander@@UAEPAXI@Z 1004ab70 f i Test_DME.obj
 0001:00049bc0       ??_GDME_Test_Work_Area@@UAEPAXI@Z 1004abc0 f i Test_DME.obj
 0001:00049bc0       ??_EDME_Test_Work_Area@@UAEPAXI@Z 1004abc0 f i Test_DME.obj
 0001:00049c10       ??_GM05_Tank_Drop_01_DME@@UAEPAXI@Z 1004ac10 f i Test_DME.obj
 0001:00049c10       ??_EM05_Tank_Drop_01_DME@@UAEPAXI@Z 1004ac10 f i Test_DME.obj
 0001:00049c60       ??_EM05_Tank_Attack_DME@@UAEPAXI@Z 1004ac60 f i Test_DME.obj
 0001:00049c60       ??_GM05_Tank_Attack_DME@@UAEPAXI@Z 1004ac60 f i Test_DME.obj
 0001:00049cb0       ??_GM05_Tech_Wander_DME@@UAEPAXI@Z 1004acb0 f i Test_DME.obj
 0001:00049cb0       ??_EM05_Tech_Wander_DME@@UAEPAXI@Z 1004acb0 f i Test_DME.obj
 0001:00049d00       ??_Etest_Ssm_Trigger@@UAEPAXI@Z 1004ad00 f i Test_DME.obj
 0001:00049d00       ??_Gtest_Ssm_Trigger@@UAEPAXI@Z 1004ad00 f i Test_DME.obj
 0001:00049d50       ??_EDME_Cinematic_Test@@UAEPAXI@Z 1004ad50 f i Test_DME.obj
 0001:00049d50       ??_GDME_Cinematic_Test@@UAEPAXI@Z 1004ad50 f i Test_DME.obj
 0001:00049da0       ??1DME_Test_Powerup@@UAE@XZ 1004ada0 f i Test_DME.obj
 0001:00049dd0       ??1DME_Destroy_Item@@UAE@XZ 1004add0 f i Test_DME.obj
 0001:00049e00       ??1DME_Waypath_test@@UAE@XZ 1004ae00 f i Test_DME.obj
 0001:00049e30       ??1DME_Test_Ejected_Soldier@@UAE@XZ 1004ae30 f i Test_DME.obj
 0001:00049e60       ??1DME_Test_Paradrop@@UAE@XZ 1004ae60 f i Test_DME.obj
 0001:00049e90       ??1DME_Test_Worker_Wander@@UAE@XZ 1004ae90 f i Test_DME.obj
 0001:00049ec0       ??1DME_Test_Work_Area@@UAE@XZ 1004aec0 f i Test_DME.obj
 0001:00049ef0       ??1M05_Tank_Drop_01_DME@@UAE@XZ 1004aef0 f i Test_DME.obj
 0001:00049f20       ??1M05_Tank_Attack_DME@@UAE@XZ 1004af20 f i Test_DME.obj
 0001:00049f50       ??1M05_Tech_Wander_DME@@UAE@XZ 1004af50 f i Test_DME.obj
 0001:00049f80       ??1test_Ssm_Trigger@@UAE@XZ 1004af80 f i Test_DME.obj
 0001:00049fb0       ??1DME_Cinematic_Test@@UAE@XZ 1004afb0 f i Test_DME.obj
 0001:0004a080       ??1?$ScriptRegistrant@VGTH_Drop_Object_On_Death@@@@UAE@XZ 1004b080 f i Test_GTH.obj
 0001:0004a150       ??1?$ScriptRegistrant@VGTH_Drop_Object_On_Death_Zone@@@@UAE@XZ 1004b150 f i Test_GTH.obj
 0001:0004a220       ??1?$ScriptRegistrant@VGTH_Zone_Send_Custom@@@@UAE@XZ 1004b220 f i Test_GTH.obj
 0001:0004a2f0       ??1?$ScriptRegistrant@VGTH_Create_Object_On_Enter@@@@UAE@XZ 1004b2f0 f i Test_GTH.obj
 0001:0004a3c0       ??1?$ScriptRegistrant@VGTH_On_Enter_Mission_Complete@@@@UAE@XZ 1004b3c0 f i Test_GTH.obj
 0001:0004a490       ??1?$ScriptRegistrant@VGTH_On_Killed_Mission_Complete@@@@UAE@XZ 1004b490 f i Test_GTH.obj
 0001:0004a560       ??1?$ScriptRegistrant@VGTH_Create_Objective@@@@UAE@XZ 1004b560 f i Test_GTH.obj
 0001:0004a630       ??1?$ScriptRegistrant@VGTH_Objective_Complete_Enter_Kill_Poke@@@@UAE@XZ 1004b630 f i Test_GTH.obj
 0001:0004a700       ??1?$ScriptRegistrant@VGTH_User_Controllable_Base_Defense@@@@UAE@XZ 1004b700 f i Test_GTH.obj
 0001:0004a7d0       ??1?$ScriptRegistrant@VGTH_Credit_Trickle@@@@UAE@XZ 1004b7d0 f i Test_GTH.obj
 0001:0004a8a0       ??1?$ScriptRegistrant@VGTH_Enable_Spawner_On_Enter@@@@UAE@XZ 1004b8a0 f i Test_GTH.obj
 0001:0004a970       ??1?$ScriptRegistrant@VGTH_CTF_Object2@@@@UAE@XZ 1004b970 f i Test_GTH.obj
 0001:0004a9a0       ??0?$ScriptRegistrant@VGTH_Drop_Object_On_Death@@@@QAE@PBD0@Z 1004b9a0 f i Test_GTH.obj
 0001:0004a9e0       ?Create@?$ScriptRegistrant@VGTH_Drop_Object_On_Death@@@@UAEPAVScriptImpClass@@XZ 1004b9e0 f i Test_GTH.obj
 0001:0004aa80       ??0?$ScriptRegistrant@VGTH_Drop_Object_On_Death_Zone@@@@QAE@PBD0@Z 1004ba80 f i Test_GTH.obj
 0001:0004aac0       ?Create@?$ScriptRegistrant@VGTH_Drop_Object_On_Death_Zone@@@@UAEPAVScriptImpClass@@XZ 1004bac0 f i Test_GTH.obj
 0001:0004ab60       ??0?$ScriptRegistrant@VGTH_Zone_Send_Custom@@@@QAE@PBD0@Z 1004bb60 f i Test_GTH.obj
 0001:0004aba0       ?Create@?$ScriptRegistrant@VGTH_Zone_Send_Custom@@@@UAEPAVScriptImpClass@@XZ 1004bba0 f i Test_GTH.obj
 0001:0004ac40       ??0?$ScriptRegistrant@VGTH_Create_Object_On_Enter@@@@QAE@PBD0@Z 1004bc40 f i Test_GTH.obj
 0001:0004ac80       ?Create@?$ScriptRegistrant@VGTH_Create_Object_On_Enter@@@@UAEPAVScriptImpClass@@XZ 1004bc80 f i Test_GTH.obj
 0001:0004ad20       ??0GTH_Create_Object_On_Enter@@QAE@XZ 1004bd20 f i Test_GTH.obj
 0001:0004ad70       ?Register_Auto_Save_Variables@GTH_Create_Object_On_Enter@@UAEXXZ 1004bd70 f i Test_GTH.obj
 0001:0004adc0       ?Entered@GTH_Create_Object_On_Enter@@UAEXPAVScriptableGameObj@@0@Z 1004bdc0 f i Test_GTH.obj
 0001:0004af50       ?Timer_Expired@GTH_Create_Object_On_Enter@@UAEXPAVScriptableGameObj@@H@Z 1004bf50 f i Test_GTH.obj
 0001:0004af80       ??_GGTH_Create_Object_On_Enter@@UAEPAXI@Z 1004bf80 f i Test_GTH.obj
 0001:0004af80       ??_EGTH_Create_Object_On_Enter@@UAEPAXI@Z 1004bf80 f i Test_GTH.obj
 0001:0004afd0       ??1GTH_Create_Object_On_Enter@@UAE@XZ 1004bfd0 f i Test_GTH.obj
 0001:0004b000       ??0?$ScriptRegistrant@VGTH_On_Enter_Mission_Complete@@@@QAE@PBD0@Z 1004c000 f i Test_GTH.obj
 0001:0004b040       ?Create@?$ScriptRegistrant@VGTH_On_Enter_Mission_Complete@@@@UAEPAVScriptImpClass@@XZ 1004c040 f i Test_GTH.obj
 0001:0004b0e0       ??0?$ScriptRegistrant@VGTH_On_Killed_Mission_Complete@@@@QAE@PBD0@Z 1004c0e0 f i Test_GTH.obj
 0001:0004b120       ?Create@?$ScriptRegistrant@VGTH_On_Killed_Mission_Complete@@@@UAEPAVScriptImpClass@@XZ 1004c120 f i Test_GTH.obj
 0001:0004b1c0       ??0?$ScriptRegistrant@VGTH_Create_Objective@@@@QAE@PBD0@Z 1004c1c0 f i Test_GTH.obj
 0001:0004b200       ?Create@?$ScriptRegistrant@VGTH_Create_Objective@@@@UAEPAVScriptImpClass@@XZ 1004c200 f i Test_GTH.obj
 0001:0004b2a0       ??0?$ScriptRegistrant@VGTH_Objective_Complete_Enter_Kill_Poke@@@@QAE@PBD0@Z 1004c2a0 f i Test_GTH.obj
 0001:0004b2e0       ?Create@?$ScriptRegistrant@VGTH_Objective_Complete_Enter_Kill_Poke@@@@UAEPAVScriptImpClass@@XZ 1004c2e0 f i Test_GTH.obj
 0001:0004b380       ??0?$ScriptRegistrant@VGTH_User_Controllable_Base_Defense@@@@QAE@PBD0@Z 1004c380 f i Test_GTH.obj
 0001:0004b3c0       ?Create@?$ScriptRegistrant@VGTH_User_Controllable_Base_Defense@@@@UAEPAVScriptImpClass@@XZ 1004c3c0 f i Test_GTH.obj
 0001:0004b460       ??0?$ScriptRegistrant@VGTH_Credit_Trickle@@@@QAE@PBD0@Z 1004c460 f i Test_GTH.obj
 0001:0004b4a0       ?Create@?$ScriptRegistrant@VGTH_Credit_Trickle@@@@UAEPAVScriptImpClass@@XZ 1004c4a0 f i Test_GTH.obj
 0001:0004b540       ??0?$ScriptRegistrant@VGTH_Enable_Spawner_On_Enter@@@@QAE@PBD0@Z 1004c540 f i Test_GTH.obj
 0001:0004b580       ?Create@?$ScriptRegistrant@VGTH_Enable_Spawner_On_Enter@@@@UAEPAVScriptImpClass@@XZ 1004c580 f i Test_GTH.obj
 0001:0004b620       ??0?$ScriptRegistrant@VGTH_CTF_Object2@@@@QAE@PBD0@Z 1004c620 f i Test_GTH.obj
 0001:0004b660       ?Create@?$ScriptRegistrant@VGTH_CTF_Object2@@@@UAEPAVScriptImpClass@@XZ 1004c660 f i Test_GTH.obj
 0001:0004b700       ??_G?$ScriptRegistrant@VGTH_Drop_Object_On_Death@@@@UAEPAXI@Z 1004c700 f i Test_GTH.obj
 0001:0004b700       ??_E?$ScriptRegistrant@VGTH_Drop_Object_On_Death@@@@UAEPAXI@Z 1004c700 f i Test_GTH.obj
 0001:0004b750       ??0GTH_Drop_Object_On_Death@@QAE@XZ 1004c750 f i Test_GTH.obj
 0001:0004b780       ?Killed@GTH_Drop_Object_On_Death@@EAEXPAVScriptableGameObj@@0@Z 1004c780 f i Test_GTH.obj
 0001:0004b8a0       ??_E?$ScriptRegistrant@VGTH_Drop_Object_On_Death_Zone@@@@UAEPAXI@Z 1004c8a0 f i Test_GTH.obj
 0001:0004b8a0       ??_G?$ScriptRegistrant@VGTH_Drop_Object_On_Death_Zone@@@@UAEPAXI@Z 1004c8a0 f i Test_GTH.obj
 0001:0004b8f0       ??0GTH_Drop_Object_On_Death_Zone@@QAE@XZ 1004c8f0 f i Test_GTH.obj
 0001:0004b920       ?Register_Auto_Save_Variables@GTH_Drop_Object_On_Death_Zone@@UAEXXZ 1004c920 f i Test_GTH.obj
 0001:0004b950       ?Created@GTH_Drop_Object_On_Death_Zone@@UAEXPAVScriptableGameObj@@@Z 1004c950 f i Test_GTH.obj
 0001:0004b980       ?Custom@GTH_Drop_Object_On_Death_Zone@@UAEXPAVScriptableGameObj@@HH0@Z 1004c980 f i Test_GTH.obj
 0001:0004b9d0       ?Killed@GTH_Drop_Object_On_Death_Zone@@UAEXPAVScriptableGameObj@@0@Z 1004c9d0 f i Test_GTH.obj
 0001:0004bb10       ??_E?$ScriptRegistrant@VGTH_Zone_Send_Custom@@@@UAEPAXI@Z 1004cb10 f i Test_GTH.obj
 0001:0004bb10       ??_G?$ScriptRegistrant@VGTH_Zone_Send_Custom@@@@UAEPAXI@Z 1004cb10 f i Test_GTH.obj
 0001:0004bb60       ??0GTH_Zone_Send_Custom@@QAE@XZ 1004cb60 f i Test_GTH.obj
 0001:0004bb90       ?Entered@GTH_Zone_Send_Custom@@EAEXPAVScriptableGameObj@@0@Z 1004cb90 f i Test_GTH.obj
 0001:0004bc00       ?Exited@GTH_Zone_Send_Custom@@EAEXPAVScriptableGameObj@@0@Z 1004cc00 f i Test_GTH.obj
 0001:0004bc70       ??_G?$ScriptRegistrant@VGTH_Create_Object_On_Enter@@@@UAEPAXI@Z 1004cc70 f i Test_GTH.obj
 0001:0004bc70       ??_E?$ScriptRegistrant@VGTH_Create_Object_On_Enter@@@@UAEPAXI@Z 1004cc70 f i Test_GTH.obj
 0001:0004bcc0       ??_G?$ScriptRegistrant@VGTH_On_Enter_Mission_Complete@@@@UAEPAXI@Z 1004ccc0 f i Test_GTH.obj
 0001:0004bcc0       ??_E?$ScriptRegistrant@VGTH_On_Enter_Mission_Complete@@@@UAEPAXI@Z 1004ccc0 f i Test_GTH.obj
 0001:0004bd10       ??0GTH_On_Enter_Mission_Complete@@QAE@XZ 1004cd10 f i Test_GTH.obj
 0001:0004bd40       ?Entered@GTH_On_Enter_Mission_Complete@@EAEXPAVScriptableGameObj@@0@Z 1004cd40 f i Test_GTH.obj
 0001:0004bdf0       ??_G?$ScriptRegistrant@VGTH_On_Killed_Mission_Complete@@@@UAEPAXI@Z 1004cdf0 f i Test_GTH.obj
 0001:0004bdf0       ??_E?$ScriptRegistrant@VGTH_On_Killed_Mission_Complete@@@@UAEPAXI@Z 1004cdf0 f i Test_GTH.obj
 0001:0004be40       ??0GTH_On_Killed_Mission_Complete@@QAE@XZ 1004ce40 f i Test_GTH.obj
 0001:0004be70       ?Killed@GTH_On_Killed_Mission_Complete@@EAEXPAVScriptableGameObj@@0@Z 1004ce70 f i Test_GTH.obj
 0001:0004bf20       ??_G?$ScriptRegistrant@VGTH_Create_Objective@@@@UAEPAXI@Z 1004cf20 f i Test_GTH.obj
 0001:0004bf20       ??_E?$ScriptRegistrant@VGTH_Create_Objective@@@@UAEPAXI@Z 1004cf20 f i Test_GTH.obj
 0001:0004bf70       ??0GTH_Create_Objective@@QAE@XZ 1004cf70 f i Test_GTH.obj
 0001:0004bfa0       ?Register_Auto_Save_Variables@GTH_Create_Objective@@UAEXXZ 1004cfa0 f i Test_GTH.obj
 0001:0004bfd0       ?Created@GTH_Create_Objective@@UAEXPAVScriptableGameObj@@@Z 1004cfd0 f i Test_GTH.obj
 0001:0004c010       ?Entered@GTH_Create_Objective@@UAEXPAVScriptableGameObj@@0@Z 1004d010 f i Test_GTH.obj
 0001:0004c050       ?Poked@GTH_Create_Objective@@UAEXPAVScriptableGameObj@@0@Z 1004d050 f i Test_GTH.obj
 0001:0004c090       ?Killed@GTH_Create_Objective@@UAEXPAVScriptableGameObj@@0@Z 1004d090 f i Test_GTH.obj
 0001:0004c0d0       ?create_objective@GTH_Create_Objective@@QAEXXZ 1004d0d0 f i Test_GTH.obj
 0001:0004c230       ??_E?$ScriptRegistrant@VGTH_Objective_Complete_Enter_Kill_Poke@@@@UAEPAXI@Z 1004d230 f i Test_GTH.obj
 0001:0004c230       ??_G?$ScriptRegistrant@VGTH_Objective_Complete_Enter_Kill_Poke@@@@UAEPAXI@Z 1004d230 f i Test_GTH.obj
 0001:0004c280       ??0GTH_Objective_Complete_Enter_Kill_Poke@@QAE@XZ 1004d280 f i Test_GTH.obj
 0001:0004c2b0       ?Register_Auto_Save_Variables@GTH_Objective_Complete_Enter_Kill_Poke@@UAEXXZ 1004d2b0 f i Test_GTH.obj
 0001:0004c2e0       ?Created@GTH_Objective_Complete_Enter_Kill_Poke@@UAEXPAVScriptableGameObj@@@Z 1004d2e0 f i Test_GTH.obj
 0001:0004c310       ?Poked@GTH_Objective_Complete_Enter_Kill_Poke@@UAEXPAVScriptableGameObj@@0@Z 1004d310 f i Test_GTH.obj
 0001:0004c340       ?Killed@GTH_Objective_Complete_Enter_Kill_Poke@@UAEXPAVScriptableGameObj@@0@Z 1004d340 f i Test_GTH.obj
 0001:0004c370       ?Entered@GTH_Objective_Complete_Enter_Kill_Poke@@UAEXPAVScriptableGameObj@@0@Z 1004d370 f i Test_GTH.obj
 0001:0004c3a0       ?trigger@GTH_Objective_Complete_Enter_Kill_Poke@@QAEXPAVScriptableGameObj@@@Z 1004d3a0 f i Test_GTH.obj
 0001:0004c480       ??_G?$ScriptRegistrant@VGTH_User_Controllable_Base_Defense@@@@UAEPAXI@Z 1004d480 f i Test_GTH.obj
 0001:0004c480       ??_E?$ScriptRegistrant@VGTH_User_Controllable_Base_Defense@@@@UAEPAXI@Z 1004d480 f i Test_GTH.obj
 0001:0004c4d0       ??0GTH_User_Controllable_Base_Defense@@QAE@XZ 1004d4d0 f i Test_GTH.obj
 0001:0004c500       ?Register_Auto_Save_Variables@GTH_User_Controllable_Base_Defense@@UAEXXZ 1004d500 f i Test_GTH.obj
 0001:0004c590       ?Created@GTH_User_Controllable_Base_Defense@@UAEXPAVScriptableGameObj@@@Z 1004d590 f i Test_GTH.obj
 0001:0004c7f0       ?Timer_Expired@GTH_User_Controllable_Base_Defense@@UAEXPAVScriptableGameObj@@H@Z 1004d7f0 f i Test_GTH.obj
 0001:0004ca70       ?Enemy_Seen@GTH_User_Controllable_Base_Defense@@UAEXPAVScriptableGameObj@@0@Z 1004da70 f i Test_GTH.obj
 0001:0004cc10       ?Action_Complete@GTH_User_Controllable_Base_Defense@@UAEXPAVScriptableGameObj@@HW4ActionCompleteReason@@@Z 1004dc10 f i Test_GTH.obj
 0001:0004cc50       ?Custom@GTH_User_Controllable_Base_Defense@@UAEXPAVScriptableGameObj@@HH0@Z 1004dc50 f i Test_GTH.obj
 0001:0004cd30       ??_G?$ScriptRegistrant@VGTH_Credit_Trickle@@@@UAEPAXI@Z 1004dd30 f i Test_GTH.obj
 0001:0004cd30       ??_E?$ScriptRegistrant@VGTH_Credit_Trickle@@@@UAEPAXI@Z 1004dd30 f i Test_GTH.obj
 0001:0004cd80       ??0GTH_Credit_Trickle@@QAE@XZ 1004dd80 f i Test_GTH.obj
 0001:0004cdb0       ?Created@GTH_Credit_Trickle@@EAEXPAVScriptableGameObj@@@Z 1004ddb0 f i Test_GTH.obj
 0001:0004ce10       ?Timer_Expired@GTH_Credit_Trickle@@EAEXPAVScriptableGameObj@@H@Z 1004de10 f i Test_GTH.obj
 0001:0004ceb0       ??_E?$ScriptRegistrant@VGTH_Enable_Spawner_On_Enter@@@@UAEPAXI@Z 1004deb0 f i Test_GTH.obj
 0001:0004ceb0       ??_G?$ScriptRegistrant@VGTH_Enable_Spawner_On_Enter@@@@UAEPAXI@Z 1004deb0 f i Test_GTH.obj
 0001:0004cf00       ??0GTH_Enable_Spawner_On_Enter@@QAE@XZ 1004df00 f i Test_GTH.obj
 0001:0004cf30       ?Entered@GTH_Enable_Spawner_On_Enter@@EAEXPAVScriptableGameObj@@0@Z 1004df30 f i Test_GTH.obj
 0001:0004cfe0       ??_G?$ScriptRegistrant@VGTH_CTF_Object2@@@@UAEPAXI@Z 1004dfe0 f i Test_GTH.obj
 0001:0004cfe0       ??_E?$ScriptRegistrant@VGTH_CTF_Object2@@@@UAEPAXI@Z 1004dfe0 f i Test_GTH.obj
 0001:0004d030       ??0GTH_CTF_Object2@@QAE@XZ 1004e030 f i Test_GTH.obj
 0001:0004d070       ?Register_Auto_Save_Variables@GTH_CTF_Object2@@UAEXXZ 1004e070 f i Test_GTH.obj
 0001:0004d0f0       ?Created@GTH_CTF_Object2@@UAEXPAVScriptableGameObj@@@Z 1004e0f0 f i Test_GTH.obj
 0001:0004d190       ?Damaged@GTH_CTF_Object2@@UAEXPAVScriptableGameObj@@0M@Z 1004e190 f i Test_GTH.obj
 0001:0004d1c0       ?Grab_Flag@GTH_CTF_Object2@@QAEXPAVScriptableGameObj@@0@Z 1004e1c0 f i Test_GTH.obj
 0001:0004d430       ?Length@Vector3@@QBEMXZ    1004e430 f i Test_GTH.obj
 0001:0004d460       ?Sqrt@WWMath@@SAMM@Z       1004e460 f i Test_GTH.obj
 0001:0004d490       ?Timer_Expired@GTH_CTF_Object2@@UAEXPAVScriptableGameObj@@H@Z 1004e490 f i Test_GTH.obj
 0001:0004db60       ??_EGTH_Drop_Object_On_Death@@UAEPAXI@Z 1004eb60 f i Test_GTH.obj
 0001:0004db60       ??_GGTH_Drop_Object_On_Death@@UAEPAXI@Z 1004eb60 f i Test_GTH.obj
 0001:0004dbb0       ??_EGTH_Drop_Object_On_Death_Zone@@UAEPAXI@Z 1004ebb0 f i Test_GTH.obj
 0001:0004dbb0       ??_GGTH_Drop_Object_On_Death_Zone@@UAEPAXI@Z 1004ebb0 f i Test_GTH.obj
 0001:0004dc00       ??_GGTH_Zone_Send_Custom@@UAEPAXI@Z 1004ec00 f i Test_GTH.obj
 0001:0004dc00       ??_EGTH_Zone_Send_Custom@@UAEPAXI@Z 1004ec00 f i Test_GTH.obj
 0001:0004dc50       ??_GGTH_On_Enter_Mission_Complete@@UAEPAXI@Z 1004ec50 f i Test_GTH.obj
 0001:0004dc50       ??_EGTH_On_Enter_Mission_Complete@@UAEPAXI@Z 1004ec50 f i Test_GTH.obj
 0001:0004dca0       ??_GGTH_On_Killed_Mission_Complete@@UAEPAXI@Z 1004eca0 f i Test_GTH.obj
 0001:0004dca0       ??_EGTH_On_Killed_Mission_Complete@@UAEPAXI@Z 1004eca0 f i Test_GTH.obj
 0001:0004dcf0       ??_EGTH_Create_Objective@@UAEPAXI@Z 1004ecf0 f i Test_GTH.obj
 0001:0004dcf0       ??_GGTH_Create_Objective@@UAEPAXI@Z 1004ecf0 f i Test_GTH.obj
 0001:0004dd40       ??_EGTH_Objective_Complete_Enter_Kill_Poke@@UAEPAXI@Z 1004ed40 f i Test_GTH.obj
 0001:0004dd40       ??_GGTH_Objective_Complete_Enter_Kill_Poke@@UAEPAXI@Z 1004ed40 f i Test_GTH.obj
 0001:0004dd90       ??_GGTH_User_Controllable_Base_Defense@@UAEPAXI@Z 1004ed90 f i Test_GTH.obj
 0001:0004dd90       ??_EGTH_User_Controllable_Base_Defense@@UAEPAXI@Z 1004ed90 f i Test_GTH.obj
 0001:0004dde0       ??_EGTH_Credit_Trickle@@UAEPAXI@Z 1004ede0 f i Test_GTH.obj
 0001:0004dde0       ??_GGTH_Credit_Trickle@@UAEPAXI@Z 1004ede0 f i Test_GTH.obj
 0001:0004de30       ??_EGTH_Enable_Spawner_On_Enter@@UAEPAXI@Z 1004ee30 f i Test_GTH.obj
 0001:0004de30       ??_GGTH_Enable_Spawner_On_Enter@@UAEPAXI@Z 1004ee30 f i Test_GTH.obj
 0001:0004de80       ??_GGTH_CTF_Object2@@UAEPAXI@Z 1004ee80 f i Test_GTH.obj
 0001:0004de80       ??_EGTH_CTF_Object2@@UAEPAXI@Z 1004ee80 f i Test_GTH.obj
 0001:0004ded0       ??1GTH_Drop_Object_On_Death@@UAE@XZ 1004eed0 f i Test_GTH.obj
 0001:0004df00       ??1GTH_Drop_Object_On_Death_Zone@@UAE@XZ 1004ef00 f i Test_GTH.obj
 0001:0004df30       ??1GTH_Zone_Send_Custom@@UAE@XZ 1004ef30 f i Test_GTH.obj
 0001:0004df60       ??1GTH_On_Enter_Mission_Complete@@UAE@XZ 1004ef60 f i Test_GTH.obj
 0001:0004df90       ??1GTH_On_Killed_Mission_Complete@@UAE@XZ 1004ef90 f i Test_GTH.obj
 0001:0004dfc0       ??1GTH_Create_Objective@@UAE@XZ 1004efc0 f i Test_GTH.obj
 0001:0004dff0       ??1GTH_Objective_Complete_Enter_Kill_Poke@@UAE@XZ 1004eff0 f i Test_GTH.obj
 0001:0004e020       ??1GTH_User_Controllable_Base_Defense@@UAE@XZ 1004f020 f i Test_GTH.obj
 0001:0004e050       ??1GTH_Credit_Trickle@@UAE@XZ 1004f050 f i Test_GTH.obj
 0001:0004e080       ??1GTH_Enable_Spawner_On_Enter@@UAE@XZ 1004f080 f i Test_GTH.obj
 0001:0004e0b0       ??1GTH_CTF_Object2@@UAE@XZ 1004f0b0 f i Test_GTH.obj
 0001:0004e180       ??1?$ScriptRegistrant@VPDS_Generic_Test@@@@UAE@XZ 1004f180 f i Test_PDS.obj
 0001:0004e250       ??1?$ScriptRegistrant@VPDS_Test_Modify_Attack@@@@UAE@XZ 1004f250 f i Test_PDS.obj
 0001:0004e320       ??1?$ScriptRegistrant@VPDS_Test_Dock@@@@UAE@XZ 1004f320 f i Test_PDS.obj
 0001:0004e3f0       ??1?$ScriptRegistrant@VPDS_Test_Conversation@@@@UAE@XZ 1004f3f0 f i Test_PDS.obj
 0001:0004e4c0       ??1?$ScriptRegistrant@VPDS_Get_In_Vehicle_Do_Waypath@@@@UAE@XZ 1004f4c0 f i Test_PDS.obj
 0001:0004e590       ??1?$ScriptRegistrant@VPDS_Test_Goto_Player@@@@UAE@XZ 1004f590 f i Test_PDS.obj
 0001:0004e660       ??1?$ScriptRegistrant@VPDS_Test_Goto_Loc@@@@UAE@XZ 1004f660 f i Test_PDS.obj
 0001:0004e730       ??1?$ScriptRegistrant@VPDS_Test_Follow_Player@@@@UAE@XZ 1004f730 f i Test_PDS.obj
 0001:0004e800       ??1?$ScriptRegistrant@VPDS_Test_Follow_Waypath@@@@UAE@XZ 1004f800 f i Test_PDS.obj
 0001:0004e8d0       ??1?$ScriptRegistrant@VPDS_Test_Harvester@@@@UAE@XZ 1004f8d0 f i Test_PDS.obj
 0001:0004e9a0       ??1?$ScriptRegistrant@VPDS_Test_Inventory@@@@UAE@XZ 1004f9a0 f i Test_PDS.obj
 0001:0004ea70       ??1?$ScriptRegistrant@VPDS_Test_Bubba@@@@UAE@XZ 1004fa70 f i Test_PDS.obj
 0001:0004eb40       ??1?$ScriptRegistrant@VPDS_Test_Controller@@@@UAE@XZ 1004fb40 f i Test_PDS.obj
 0001:0004ec10       ??1?$ScriptRegistrant@VPDS_Test_Gunboat@@@@UAE@XZ 1004fc10 f i Test_PDS.obj
 0001:0004ece0       ??1?$ScriptRegistrant@VPDS_Test_Sound@@@@UAE@XZ 1004fce0 f i Test_PDS.obj
 0001:0004ed10       ??0?$ScriptRegistrant@VPDS_Generic_Test@@@@QAE@PBD0@Z 1004fd10 f i Test_PDS.obj
 0001:0004ed50       ?Create@?$ScriptRegistrant@VPDS_Generic_Test@@@@UAEPAVScriptImpClass@@XZ 1004fd50 f i Test_PDS.obj
 0001:0004edf0       ??0?$ScriptRegistrant@VPDS_Test_Modify_Attack@@@@QAE@PBD0@Z 1004fdf0 f i Test_PDS.obj
 0001:0004ee30       ?Create@?$ScriptRegistrant@VPDS_Test_Modify_Attack@@@@UAEPAVScriptImpClass@@XZ 1004fe30 f i Test_PDS.obj
 0001:0004eed0       ??0?$ScriptRegistrant@VPDS_Test_Dock@@@@QAE@PBD0@Z 1004fed0 f i Test_PDS.obj
 0001:0004ef10       ?Create@?$ScriptRegistrant@VPDS_Test_Dock@@@@UAEPAVScriptImpClass@@XZ 1004ff10 f i Test_PDS.obj
 0001:0004efb0       ??0?$ScriptRegistrant@VPDS_Test_Conversation@@@@QAE@PBD0@Z 1004ffb0 f i Test_PDS.obj
 0001:0004eff0       ?Create@?$ScriptRegistrant@VPDS_Test_Conversation@@@@UAEPAVScriptImpClass@@XZ 1004fff0 f i Test_PDS.obj
 0001:0004f090       ??0?$ScriptRegistrant@VPDS_Get_In_Vehicle_Do_Waypath@@@@QAE@PBD0@Z 10050090 f i Test_PDS.obj
 0001:0004f0d0       ?Create@?$ScriptRegistrant@VPDS_Get_In_Vehicle_Do_Waypath@@@@UAEPAVScriptImpClass@@XZ 100500d0 f i Test_PDS.obj
 0001:0004f170       ??0?$ScriptRegistrant@VPDS_Test_Goto_Player@@@@QAE@PBD0@Z 10050170 f i Test_PDS.obj
 0001:0004f1b0       ?Create@?$ScriptRegistrant@VPDS_Test_Goto_Player@@@@UAEPAVScriptImpClass@@XZ 100501b0 f i Test_PDS.obj
 0001:0004f250       ??0?$ScriptRegistrant@VPDS_Test_Goto_Loc@@@@QAE@PBD0@Z 10050250 f i Test_PDS.obj
 0001:0004f290       ?Create@?$ScriptRegistrant@VPDS_Test_Goto_Loc@@@@UAEPAVScriptImpClass@@XZ 10050290 f i Test_PDS.obj
 0001:0004f330       ??0?$ScriptRegistrant@VPDS_Test_Follow_Player@@@@QAE@PBD0@Z 10050330 f i Test_PDS.obj
 0001:0004f370       ?Create@?$ScriptRegistrant@VPDS_Test_Follow_Player@@@@UAEPAVScriptImpClass@@XZ 10050370 f i Test_PDS.obj
 0001:0004f410       ??0?$ScriptRegistrant@VPDS_Test_Follow_Waypath@@@@QAE@PBD0@Z 10050410 f i Test_PDS.obj
 0001:0004f450       ?Create@?$ScriptRegistrant@VPDS_Test_Follow_Waypath@@@@UAEPAVScriptImpClass@@XZ 10050450 f i Test_PDS.obj
 0001:0004f4f0       ??0?$ScriptRegistrant@VPDS_Test_Harvester@@@@QAE@PBD0@Z 100504f0 f i Test_PDS.obj
 0001:0004f530       ?Create@?$ScriptRegistrant@VPDS_Test_Harvester@@@@UAEPAVScriptImpClass@@XZ 10050530 f i Test_PDS.obj
 0001:0004f5d0       ??0?$ScriptRegistrant@VPDS_Test_Inventory@@@@QAE@PBD0@Z 100505d0 f i Test_PDS.obj
 0001:0004f610       ?Create@?$ScriptRegistrant@VPDS_Test_Inventory@@@@UAEPAVScriptImpClass@@XZ 10050610 f i Test_PDS.obj
 0001:0004f6b0       ??0?$ScriptRegistrant@VPDS_Test_Bubba@@@@QAE@PBD0@Z 100506b0 f i Test_PDS.obj
 0001:0004f6f0       ?Create@?$ScriptRegistrant@VPDS_Test_Bubba@@@@UAEPAVScriptImpClass@@XZ 100506f0 f i Test_PDS.obj
 0001:0004f790       ??0?$ScriptRegistrant@VPDS_Test_Controller@@@@QAE@PBD0@Z 10050790 f i Test_PDS.obj
 0001:0004f7d0       ?Create@?$ScriptRegistrant@VPDS_Test_Controller@@@@UAEPAVScriptImpClass@@XZ 100507d0 f i Test_PDS.obj
 0001:0004f870       ??0?$ScriptRegistrant@VPDS_Test_Gunboat@@@@QAE@PBD0@Z 10050870 f i Test_PDS.obj
 0001:0004f8b0       ?Create@?$ScriptRegistrant@VPDS_Test_Gunboat@@@@UAEPAVScriptImpClass@@XZ 100508b0 f i Test_PDS.obj
 0001:0004f950       ??0?$ScriptRegistrant@VPDS_Test_Sound@@@@QAE@PBD0@Z 10050950 f i Test_PDS.obj
 0001:0004f990       ?Create@?$ScriptRegistrant@VPDS_Test_Sound@@@@UAEPAVScriptImpClass@@XZ 10050990 f i Test_PDS.obj
 0001:0004fa30       ??_G?$ScriptRegistrant@VPDS_Generic_Test@@@@UAEPAXI@Z 10050a30 f i Test_PDS.obj
 0001:0004fa30       ??_E?$ScriptRegistrant@VPDS_Generic_Test@@@@UAEPAXI@Z 10050a30 f i Test_PDS.obj
 0001:0004fa80       ??0PDS_Generic_Test@@QAE@XZ 10050a80 f i Test_PDS.obj
 0001:0004fab0       ?Created@PDS_Generic_Test@@EAEXPAVScriptableGameObj@@@Z 10050ab0 f i Test_PDS.obj
 0001:0004fb00       ?Timer_Expired@PDS_Generic_Test@@EAEXPAVScriptableGameObj@@H@Z 10050b00 f i Test_PDS.obj
 0001:0004fbc0       ??_G?$ScriptRegistrant@VPDS_Test_Modify_Attack@@@@UAEPAXI@Z 10050bc0 f i Test_PDS.obj
 0001:0004fbc0       ??_E?$ScriptRegistrant@VPDS_Test_Modify_Attack@@@@UAEPAXI@Z 10050bc0 f i Test_PDS.obj
 0001:0004fc10       ??0PDS_Test_Modify_Attack@@QAE@XZ 10050c10 f i Test_PDS.obj
 0001:0004fc40       ?Created@PDS_Test_Modify_Attack@@EAEXPAVScriptableGameObj@@@Z 10050c40 f i Test_PDS.obj
 0001:0004fc90       ?Timer_Expired@PDS_Test_Modify_Attack@@EAEXPAVScriptableGameObj@@H@Z 10050c90 f i Test_PDS.obj
 0001:0004ffc0       ??_E?$ScriptRegistrant@VPDS_Test_Dock@@@@UAEPAXI@Z 10050fc0 f i Test_PDS.obj
 0001:0004ffc0       ??_G?$ScriptRegistrant@VPDS_Test_Dock@@@@UAEPAXI@Z 10050fc0 f i Test_PDS.obj
 0001:00050010       ??0PDS_Test_Dock@@QAE@XZ   10051010 f i Test_PDS.obj
 0001:00050040       ?Created@PDS_Test_Dock@@EAEXPAVScriptableGameObj@@@Z 10051040 f i Test_PDS.obj
 0001:00050090       ?Timer_Expired@PDS_Test_Dock@@EAEXPAVScriptableGameObj@@H@Z 10051090 f i Test_PDS.obj
 0001:000501e0       ?Dock_Vehicle@ActionParamsStruct@@QAEXABVVector3@@0@Z 100511e0 f i Test_PDS.obj
 0001:00050230       ??_E?$ScriptRegistrant@VPDS_Test_Conversation@@@@UAEPAXI@Z 10051230 f i Test_PDS.obj
 0001:00050230       ??_G?$ScriptRegistrant@VPDS_Test_Conversation@@@@UAEPAXI@Z 10051230 f i Test_PDS.obj
 0001:00050280       ??0PDS_Test_Conversation@@QAE@XZ 10051280 f i Test_PDS.obj
 0001:000502b0       ?Created@PDS_Test_Conversation@@EAEXPAVScriptableGameObj@@@Z 100512b0 f i Test_PDS.obj
 0001:00050300       ?Action_Complete@PDS_Test_Conversation@@EAEXPAVScriptableGameObj@@HW4ActionCompleteReason@@@Z 10051300 f i Test_PDS.obj
 0001:00050360       ?Custom@PDS_Test_Conversation@@EAEXPAVScriptableGameObj@@HH0@Z 10051360 f i Test_PDS.obj
 0001:000503e0       ?Timer_Expired@PDS_Test_Conversation@@EAEXPAVScriptableGameObj@@H@Z 100513e0 f i Test_PDS.obj
 0001:00050610       ??_G?$ScriptRegistrant@VPDS_Get_In_Vehicle_Do_Waypath@@@@UAEPAXI@Z 10051610 f i Test_PDS.obj
 0001:00050610       ??_E?$ScriptRegistrant@VPDS_Get_In_Vehicle_Do_Waypath@@@@UAEPAXI@Z 10051610 f i Test_PDS.obj
 0001:00050660       ??0PDS_Get_In_Vehicle_Do_Waypath@@QAE@XZ 10051660 f i Test_PDS.obj
 0001:00050690       ?Created@PDS_Get_In_Vehicle_Do_Waypath@@EAEXPAVScriptableGameObj@@@Z 10051690 f i Test_PDS.obj
 0001:00050790       ?Action_Complete@PDS_Get_In_Vehicle_Do_Waypath@@EAEXPAVScriptableGameObj@@HW4ActionCompleteReason@@@Z 10051790 f i Test_PDS.obj
 0001:00050860       ??_E?$ScriptRegistrant@VPDS_Test_Goto_Player@@@@UAEPAXI@Z 10051860 f i Test_PDS.obj
 0001:00050860       ??_G?$ScriptRegistrant@VPDS_Test_Goto_Player@@@@UAEPAXI@Z 10051860 f i Test_PDS.obj
 0001:000508b0       ??0PDS_Test_Goto_Player@@QAE@XZ 100518b0 f i Test_PDS.obj
 0001:000508e0       ?Created@PDS_Test_Goto_Player@@EAEXPAVScriptableGameObj@@@Z 100518e0 f i Test_PDS.obj
 0001:00050930       ?Timer_Expired@PDS_Test_Goto_Player@@EAEXPAVScriptableGameObj@@H@Z 10051930 f i Test_PDS.obj
 0001:000509e0       ?Action_Complete@PDS_Test_Goto_Player@@EAEXPAVScriptableGameObj@@HW4ActionCompleteReason@@@Z 100519e0 f i Test_PDS.obj
 0001:00050a20       ??_G?$ScriptRegistrant@VPDS_Test_Goto_Loc@@@@UAEPAXI@Z 10051a20 f i Test_PDS.obj
 0001:00050a20       ??_E?$ScriptRegistrant@VPDS_Test_Goto_Loc@@@@UAEPAXI@Z 10051a20 f i Test_PDS.obj
 0001:00050a70       ??0PDS_Test_Goto_Loc@@QAE@XZ 10051a70 f i Test_PDS.obj
 0001:00050aa0       ?Created@PDS_Test_Goto_Loc@@EAEXPAVScriptableGameObj@@@Z 10051aa0 f i Test_PDS.obj
 0001:00050af0       ?Timer_Expired@PDS_Test_Goto_Loc@@EAEXPAVScriptableGameObj@@H@Z 10051af0 f i Test_PDS.obj
 0001:00050bf0       ??_G?$ScriptRegistrant@VPDS_Test_Follow_Player@@@@UAEPAXI@Z 10051bf0 f i Test_PDS.obj
 0001:00050bf0       ??_E?$ScriptRegistrant@VPDS_Test_Follow_Player@@@@UAEPAXI@Z 10051bf0 f i Test_PDS.obj
 0001:00050c40       ??0PDS_Test_Follow_Player@@QAE@XZ 10051c40 f i Test_PDS.obj
 0001:00050c70       ?Created@PDS_Test_Follow_Player@@EAEXPAVScriptableGameObj@@@Z 10051c70 f i Test_PDS.obj
 0001:00050cc0       ?Poked@PDS_Test_Follow_Player@@EAEXPAVScriptableGameObj@@0@Z 10051cc0 f i Test_PDS.obj
 0001:00050d00       ?Timer_Expired@PDS_Test_Follow_Player@@EAEXPAVScriptableGameObj@@H@Z 10051d00 f i Test_PDS.obj
 0001:00050dc0       ??_E?$ScriptRegistrant@VPDS_Test_Follow_Waypath@@@@UAEPAXI@Z 10051dc0 f i Test_PDS.obj
 0001:00050dc0       ??_G?$ScriptRegistrant@VPDS_Test_Follow_Waypath@@@@UAEPAXI@Z 10051dc0 f i Test_PDS.obj
 0001:00050e10       ??0PDS_Test_Follow_Waypath@@QAE@XZ 10051e10 f i Test_PDS.obj
 0001:00050e40       ?Created@PDS_Test_Follow_Waypath@@EAEXPAVScriptableGameObj@@@Z 10051e40 f i Test_PDS.obj
 0001:00051030       ?Timer_Expired@PDS_Test_Follow_Waypath@@EAEXPAVScriptableGameObj@@H@Z 10052030 f i Test_PDS.obj
 0001:00051140       ?Damaged@PDS_Test_Follow_Waypath@@EAEXPAVScriptableGameObj@@0M@Z 10052140 f i Test_PDS.obj
 0001:00051260       ??_E?$ScriptRegistrant@VPDS_Test_Harvester@@@@UAEPAXI@Z 10052260 f i Test_PDS.obj
 0001:00051260       ??_G?$ScriptRegistrant@VPDS_Test_Harvester@@@@UAEPAXI@Z 10052260 f i Test_PDS.obj
 0001:000512b0       ??0PDS_Test_Harvester@@QAE@XZ 100522b0 f i Test_PDS.obj
 0001:000512e0       ?Created@PDS_Test_Harvester@@EAEXPAVScriptableGameObj@@@Z 100522e0 f i Test_PDS.obj
 0001:00051320       ?Timer_Expired@PDS_Test_Harvester@@EAEXPAVScriptableGameObj@@H@Z 10052320 f i Test_PDS.obj
 0001:00051350       ?Action_Complete@PDS_Test_Harvester@@EAEXPAVScriptableGameObj@@HW4ActionCompleteReason@@@Z 10052350 f i Test_PDS.obj
 0001:00051380       ?Next_State@PDS_Test_Harvester@@AAEXXZ 10052380 f i Test_PDS.obj
 0001:000513d0       ?Think@PDS_Test_Harvester@@AAEXXZ 100523d0 f i Test_PDS.obj
 0001:00051540       ?Drive_To_Obj@PDS_Test_Harvester@@AAEXH_N@Z 10052540 f i Test_PDS.obj
 0001:000516c0       ??_E?$ScriptRegistrant@VPDS_Test_Inventory@@@@UAEPAXI@Z 100526c0 f i Test_PDS.obj
 0001:000516c0       ??_G?$ScriptRegistrant@VPDS_Test_Inventory@@@@UAEPAXI@Z 100526c0 f i Test_PDS.obj
 0001:00051710       ??0PDS_Test_Inventory@@QAE@XZ 10052710 f i Test_PDS.obj
 0001:00051740       ?Created@PDS_Test_Inventory@@EAEXPAVScriptableGameObj@@@Z 10052740 f i Test_PDS.obj
 0001:00051790       ?Custom@PDS_Test_Inventory@@EAEXPAVScriptableGameObj@@HH0@Z 10052790 f i Test_PDS.obj
 0001:00051860       ??_E?$ScriptRegistrant@VPDS_Test_Bubba@@@@UAEPAXI@Z 10052860 f i Test_PDS.obj
 0001:00051860       ??_G?$ScriptRegistrant@VPDS_Test_Bubba@@@@UAEPAXI@Z 10052860 f i Test_PDS.obj
 0001:000518b0       ??0PDS_Test_Bubba@@QAE@XZ  100528b0 f i Test_PDS.obj
 0001:000518e0       ?Created@PDS_Test_Bubba@@EAEXPAVScriptableGameObj@@@Z 100528e0 f i Test_PDS.obj
 0001:00051970       ??_G?$ScriptRegistrant@VPDS_Test_Controller@@@@UAEPAXI@Z 10052970 f i Test_PDS.obj
 0001:00051970       ??_E?$ScriptRegistrant@VPDS_Test_Controller@@@@UAEPAXI@Z 10052970 f i Test_PDS.obj
 0001:000519c0       ??0PDS_Test_Controller@@QAE@XZ 100529c0 f i Test_PDS.obj
 0001:000519f0       ?Created@PDS_Test_Controller@@EAEXPAVScriptableGameObj@@@Z 100529f0 f i Test_PDS.obj
 0001:00051a40       ?Timer_Expired@PDS_Test_Controller@@EAEXPAVScriptableGameObj@@H@Z 10052a40 f i Test_PDS.obj
 0001:00051aa0       ??_G?$ScriptRegistrant@VPDS_Test_Gunboat@@@@UAEPAXI@Z 10052aa0 f i Test_PDS.obj
 0001:00051aa0       ??_E?$ScriptRegistrant@VPDS_Test_Gunboat@@@@UAEPAXI@Z 10052aa0 f i Test_PDS.obj
 0001:00051af0       ??0PDS_Test_Gunboat@@QAE@XZ 10052af0 f i Test_PDS.obj
 0001:00051b20       ?Created@PDS_Test_Gunboat@@EAEXPAVScriptableGameObj@@@Z 10052b20 f i Test_PDS.obj
 0001:00051ba0       ?Start_Attack@PDS_Test_Gunboat@@AAEXXZ 10052ba0 f i Test_PDS.obj
 0001:00051bc0       ?Move_To_Next_Location@PDS_Test_Gunboat@@AAEXXZ 10052bc0 f i Test_PDS.obj
 0001:00051c80       ?Timer_Expired@PDS_Test_Gunboat@@EAEXPAVScriptableGameObj@@H@Z 10052c80 f i Test_PDS.obj
 0001:00051d70       ??_E?$ScriptRegistrant@VPDS_Test_Sound@@@@UAEPAXI@Z 10052d70 f i Test_PDS.obj
 0001:00051d70       ??_G?$ScriptRegistrant@VPDS_Test_Sound@@@@UAEPAXI@Z 10052d70 f i Test_PDS.obj
 0001:00051dc0       ??0PDS_Test_Sound@@QAE@XZ  10052dc0 f i Test_PDS.obj
 0001:00051df0       ?Created@PDS_Test_Sound@@EAEXPAVScriptableGameObj@@@Z 10052df0 f i Test_PDS.obj
 0001:00051e20       ?Poked@PDS_Test_Sound@@EAEXPAVScriptableGameObj@@0@Z 10052e20 f i Test_PDS.obj
 0001:00051ea0       ?Custom@PDS_Test_Sound@@EAEXPAVScriptableGameObj@@HH0@Z 10052ea0 f i Test_PDS.obj
 0001:00051ef0       ??_EPDS_Generic_Test@@UAEPAXI@Z 10052ef0 f i Test_PDS.obj
 0001:00051ef0       ??_GPDS_Generic_Test@@UAEPAXI@Z 10052ef0 f i Test_PDS.obj
 0001:00051f40       ??_GPDS_Test_Modify_Attack@@UAEPAXI@Z 10052f40 f i Test_PDS.obj
 0001:00051f40       ??_EPDS_Test_Modify_Attack@@UAEPAXI@Z 10052f40 f i Test_PDS.obj
 0001:00051f90       ??_GPDS_Test_Dock@@UAEPAXI@Z 10052f90 f i Test_PDS.obj
 0001:00051f90       ??_EPDS_Test_Dock@@UAEPAXI@Z 10052f90 f i Test_PDS.obj
 0001:00051fe0       ??_GPDS_Test_Conversation@@UAEPAXI@Z 10052fe0 f i Test_PDS.obj
 0001:00051fe0       ??_EPDS_Test_Conversation@@UAEPAXI@Z 10052fe0 f i Test_PDS.obj
 0001:00052030       ??_GPDS_Get_In_Vehicle_Do_Waypath@@UAEPAXI@Z 10053030 f i Test_PDS.obj
 0001:00052030       ??_EPDS_Get_In_Vehicle_Do_Waypath@@UAEPAXI@Z 10053030 f i Test_PDS.obj
 0001:00052080       ??_EPDS_Test_Goto_Player@@UAEPAXI@Z 10053080 f i Test_PDS.obj
 0001:00052080       ??_GPDS_Test_Goto_Player@@UAEPAXI@Z 10053080 f i Test_PDS.obj
 0001:000520d0       ??_EPDS_Test_Goto_Loc@@UAEPAXI@Z 100530d0 f i Test_PDS.obj
 0001:000520d0       ??_GPDS_Test_Goto_Loc@@UAEPAXI@Z 100530d0 f i Test_PDS.obj
 0001:00052120       ??_EPDS_Test_Follow_Player@@UAEPAXI@Z 10053120 f i Test_PDS.obj
 0001:00052120       ??_GPDS_Test_Follow_Player@@UAEPAXI@Z 10053120 f i Test_PDS.obj
 0001:00052170       ??_GPDS_Test_Follow_Waypath@@UAEPAXI@Z 10053170 f i Test_PDS.obj
 0001:00052170       ??_EPDS_Test_Follow_Waypath@@UAEPAXI@Z 10053170 f i Test_PDS.obj
 0001:000521c0       ??_GPDS_Test_Harvester@@UAEPAXI@Z 100531c0 f i Test_PDS.obj
 0001:000521c0       ??_EPDS_Test_Harvester@@UAEPAXI@Z 100531c0 f i Test_PDS.obj
 0001:00052210       ??_GPDS_Test_Inventory@@UAEPAXI@Z 10053210 f i Test_PDS.obj
 0001:00052210       ??_EPDS_Test_Inventory@@UAEPAXI@Z 10053210 f i Test_PDS.obj
 0001:00052260       ??_GPDS_Test_Bubba@@UAEPAXI@Z 10053260 f i Test_PDS.obj
 0001:00052260       ??_EPDS_Test_Bubba@@UAEPAXI@Z 10053260 f i Test_PDS.obj
 0001:000522b0       ??_GPDS_Test_Controller@@UAEPAXI@Z 100532b0 f i Test_PDS.obj
 0001:000522b0       ??_EPDS_Test_Controller@@UAEPAXI@Z 100532b0 f i Test_PDS.obj
 0001:00052300       ??_GPDS_Test_Gunboat@@UAEPAXI@Z 10053300 f i Test_PDS.obj
 0001:00052300       ??_EPDS_Test_Gunboat@@UAEPAXI@Z 10053300 f i Test_PDS.obj
 0001:00052350       ??_EPDS_Test_Sound@@UAEPAXI@Z 10053350 f i Test_PDS.obj
 0001:00052350       ??_GPDS_Test_Sound@@UAEPAXI@Z 10053350 f i Test_PDS.obj
 0001:000523a0       ??1PDS_Generic_Test@@UAE@XZ 100533a0 f i Test_PDS.obj
 0001:000523d0       ??1PDS_Test_Modify_Attack@@UAE@XZ 100533d0 f i Test_PDS.obj
 0001:00052400       ??1PDS_Test_Dock@@UAE@XZ   10053400 f i Test_PDS.obj
 0001:00052430       ??1PDS_Test_Conversation@@UAE@XZ 10053430 f i Test_PDS.obj
 0001:00052460       ??1PDS_Get_In_Vehicle_Do_Waypath@@UAE@XZ 10053460 f i Test_PDS.obj
 0001:00052490       ??1PDS_Test_Goto_Player@@UAE@XZ 10053490 f i Test_PDS.obj
 0001:000524c0       ??1PDS_Test_Goto_Loc@@UAE@XZ 100534c0 f i Test_PDS.obj
 0001:000524f0       ??1PDS_Test_Follow_Player@@UAE@XZ 100534f0 f i Test_PDS.obj
 0001:00052520       ??1PDS_Test_Follow_Waypath@@UAE@XZ 10053520 f i Test_PDS.obj
 0001:00052550       ??1PDS_Test_Harvester@@UAE@XZ 10053550 f i Test_PDS.obj
 0001:00052580       ??1PDS_Test_Inventory@@UAE@XZ 10053580 f i Test_PDS.obj
 0001:000525b0       ??1PDS_Test_Bubba@@UAE@XZ  100535b0 f i Test_PDS.obj
 0001:000525e0       ??1PDS_Test_Controller@@UAE@XZ 100535e0 f i Test_PDS.obj
 0001:00052610       ??1PDS_Test_Gunboat@@UAE@XZ 10053610 f i Test_PDS.obj
 0001:00052640       ??1PDS_Test_Sound@@UAE@XZ  10053640 f i Test_PDS.obj
 0001:00052710       ??1?$ScriptRegistrant@VMX0_A02_Controller@@@@UAE@XZ 10053710 f i Test_RAD.obj
 0001:000527e0       ??1?$ScriptRegistrant@VMX0_A02_ACTOR@@@@UAE@XZ 100537e0 f i Test_RAD.obj
 0001:000528b0       ??1?$ScriptRegistrant@VMX0_A02_GDI_VEHICLE@@@@UAE@XZ 100538b0 f i Test_RAD.obj
 0001:00052980       ??1?$ScriptRegistrant@VMX0_A02_GDI_MEDTANK@@@@UAE@XZ 10053980 f i Test_RAD.obj
 0001:00052a50       ??1?$ScriptRegistrant@VMX0_A02_GDI_APC@@@@UAE@XZ 10053a50 f i Test_RAD.obj
 0001:00052b20       ??1?$ScriptRegistrant@VMX0_A02_ZONE_STARTUP@@@@UAE@XZ 10053b20 f i Test_RAD.obj
 0001:00052bf0       ??1?$ScriptRegistrant@VMX0_A02_HELICOPTER@@@@UAE@XZ 10053bf0 f i Test_RAD.obj
 0001:00052cc0       ??1?$ScriptRegistrant@VMX0_A02_DEFAULT_OFF@@@@UAE@XZ 10053cc0 f i Test_RAD.obj
 0001:00052d90       ??1?$ScriptRegistrant@VMX0_A02_ZONE_DEFAULT_ON@@@@UAE@XZ 10053d90 f i Test_RAD.obj
 0001:00052f00       ??1?$ScriptRegistrant@VM03_A05_Evac_Zone@@@@UAE@XZ 10053f00 f i Test_RAD.obj
 0001:00052fd0       ??1?$ScriptRegistrant@VM00_Test_Sound_RAD@@@@UAE@XZ 10053fd0 f i Test_RAD.obj
 0001:00053000       ??0?$ScriptRegistrant@VMX0_A02_Controller@@@@QAE@PBD0@Z 10054000 f i Test_RAD.obj
 0001:00053040       ?Create@?$ScriptRegistrant@VMX0_A02_Controller@@@@UAEPAVScriptImpClass@@XZ 10054040 f i Test_RAD.obj
 0001:000530e0       ??0?$ScriptRegistrant@VMX0_A02_ACTOR@@@@QAE@PBD0@Z 100540e0 f i Test_RAD.obj
 0001:00053120       ?Create@?$ScriptRegistrant@VMX0_A02_ACTOR@@@@UAEPAVScriptImpClass@@XZ 10054120 f i Test_RAD.obj
 0001:000531c0       ??0?$ScriptRegistrant@VMX0_A02_GDI_VEHICLE@@@@QAE@PBD0@Z 100541c0 f i Test_RAD.obj
 0001:00053200       ?Create@?$ScriptRegistrant@VMX0_A02_GDI_VEHICLE@@@@UAEPAVScriptImpClass@@XZ 10054200 f i Test_RAD.obj
 0001:000532a0       ??0?$ScriptRegistrant@VMX0_A02_GDI_MEDTANK@@@@QAE@PBD0@Z 100542a0 f i Test_RAD.obj
 0001:000532e0       ?Create@?$ScriptRegistrant@VMX0_A02_GDI_MEDTANK@@@@UAEPAVScriptImpClass@@XZ 100542e0 f i Test_RAD.obj
 0001:00053380       ??0?$ScriptRegistrant@VMX0_A02_GDI_APC@@@@QAE@PBD0@Z 10054380 f i Test_RAD.obj
 0001:000533c0       ?Create@?$ScriptRegistrant@VMX0_A02_GDI_APC@@@@UAEPAVScriptImpClass@@XZ 100543c0 f i Test_RAD.obj
 0001:00053460       ??0?$ScriptRegistrant@VMX0_A02_ZONE_STARTUP@@@@QAE@PBD0@Z 10054460 f i Test_RAD.obj
 0001:000534a0       ?Create@?$ScriptRegistrant@VMX0_A02_ZONE_STARTUP@@@@UAEPAVScriptImpClass@@XZ 100544a0 f i Test_RAD.obj
 0001:00053540       ??0?$ScriptRegistrant@VMX0_A02_HELICOPTER@@@@QAE@PBD0@Z 10054540 f i Test_RAD.obj
 0001:00053580       ?Create@?$ScriptRegistrant@VMX0_A02_HELICOPTER@@@@UAEPAVScriptImpClass@@XZ 10054580 f i Test_RAD.obj
 0001:00053620       ??0?$ScriptRegistrant@VMX0_A02_DEFAULT_OFF@@@@QAE@PBD0@Z 10054620 f i Test_RAD.obj
 0001:00053660       ?Create@?$ScriptRegistrant@VMX0_A02_DEFAULT_OFF@@@@UAEPAVScriptImpClass@@XZ 10054660 f i Test_RAD.obj
 0001:00053700       ??0?$ScriptRegistrant@VMX0_A02_ZONE_DEFAULT_ON@@@@QAE@PBD0@Z 10054700 f i Test_RAD.obj
 0001:00053740       ?Create@?$ScriptRegistrant@VMX0_A02_ZONE_DEFAULT_ON@@@@UAEPAVScriptImpClass@@XZ 10054740 f i Test_RAD.obj
 0001:000537e0       ??0?$ScriptRegistrant@VM03_A05_Evac_Zone@@@@QAE@PBD0@Z 100547e0 f i Test_RAD.obj
 0001:00053820       ?Create@?$ScriptRegistrant@VM03_A05_Evac_Zone@@@@UAEPAVScriptImpClass@@XZ 10054820 f i Test_RAD.obj
 0001:000538c0       ??0?$ScriptRegistrant@VM00_Test_Sound_RAD@@@@QAE@PBD0@Z 100548c0 f i Test_RAD.obj
 0001:00053900       ?Create@?$ScriptRegistrant@VM00_Test_Sound_RAD@@@@UAEPAVScriptImpClass@@XZ 10054900 f i Test_RAD.obj
 0001:000539a0       ??_G?$ScriptRegistrant@VMX0_A02_Controller@@@@UAEPAXI@Z 100549a0 f i Test_RAD.obj
 0001:000539a0       ??_E?$ScriptRegistrant@VMX0_A02_Controller@@@@UAEPAXI@Z 100549a0 f i Test_RAD.obj
 0001:000539f0       ??0MX0_A02_Controller@@QAE@XZ 100549f0 f i Test_RAD.obj
 0001:00053a20       ?Register_Auto_Save_Variables@MX0_A02_Controller@@UAEXXZ 10054a20 f i Test_RAD.obj
 0001:00053ca0       ?Created@MX0_A02_Controller@@UAEXPAVScriptableGameObj@@@Z 10054ca0 f i Test_RAD.obj
 0001:00053dd0       ?Custom@MX0_A02_Controller@@UAEXPAVScriptableGameObj@@HH0@Z 10054dd0 f i Test_RAD.obj
 0001:00055f80       ?Attach_Unit_Script@MX0_A02_Controller@@QAEXPAVScriptableGameObj@@H@Z 10056f80 f i Test_RAD.obj
 0001:00056010       ?Timer_Expired@MX0_A02_Controller@@UAEXPAVScriptableGameObj@@H@Z 10057010 f i Test_RAD.obj
 0001:00056d90       ?MX0_A02_Fill_Empty_Slot@MX0_A02_Controller@@QAEXPAVScriptableGameObj@@_N@Z 10057d90 f i Test_RAD.obj
 0001:00056e60       ??_E?$ScriptRegistrant@VMX0_A02_ACTOR@@@@UAEPAXI@Z 10057e60 f i Test_RAD.obj
 0001:00056e60       ??_G?$ScriptRegistrant@VMX0_A02_ACTOR@@@@UAEPAXI@Z 10057e60 f i Test_RAD.obj
 0001:00056eb0       ??0MX0_A02_ACTOR@@QAE@XZ   10057eb0 f i Test_RAD.obj
 0001:00056ee0       ?Register_Auto_Save_Variables@MX0_A02_ACTOR@@UAEXXZ 10057ee0 f i Test_RAD.obj
 0001:00057000       ?Created@MX0_A02_ACTOR@@UAEXPAVScriptableGameObj@@@Z 10058000 f i Test_RAD.obj
 0001:000576b0       ?Damaged@MX0_A02_ACTOR@@UAEXPAVScriptableGameObj@@0M@Z 100586b0 f i Test_RAD.obj
 0001:00057a80       ?Killed@MX0_A02_ACTOR@@UAEXPAVScriptableGameObj@@0@Z 10058a80 f i Test_RAD.obj
 0001:00057bd0       ?Custom@MX0_A02_ACTOR@@UAEXPAVScriptableGameObj@@HH0@Z 10058bd0 f i Test_RAD.obj
 0001:000590b0       ?Action_Complete@MX0_A02_ACTOR@@UAEXPAVScriptableGameObj@@HW4ActionCompleteReason@@@Z 1005a0b0 f i Test_RAD.obj
 0001:0005a0b0       ?Enemy_Seen@MX0_A02_ACTOR@@UAEXPAVScriptableGameObj@@0@Z 1005b0b0 f i Test_RAD.obj
 0001:0005a150       ?Timer_Expired@MX0_A02_ACTOR@@UAEXPAVScriptableGameObj@@H@Z 1005b150 f i Test_RAD.obj
 0001:0005acd0       ?MX0_A02_Say_Something@MX0_A02_ACTOR@@QAEXPAVScriptableGameObj@@H_N@Z 1005bcd0 f i Test_RAD.obj
 0001:0005b400       ??_E?$ScriptRegistrant@VMX0_A02_GDI_VEHICLE@@@@UAEPAXI@Z 1005c400 f i Test_RAD.obj
 0001:0005b400       ??_G?$ScriptRegistrant@VMX0_A02_GDI_VEHICLE@@@@UAEPAXI@Z 1005c400 f i Test_RAD.obj
 0001:0005b450       ??0MX0_A02_GDI_VEHICLE@@QAE@XZ 1005c450 f i Test_RAD.obj
 0001:0005b480       ?Created@MX0_A02_GDI_VEHICLE@@EAEXPAVScriptableGameObj@@@Z 1005c480 f i Test_RAD.obj
 0001:0005b4c0       ?Damaged@MX0_A02_GDI_VEHICLE@@EAEXPAVScriptableGameObj@@0M@Z 1005c4c0 f i Test_RAD.obj
 0001:0005b500       ??_G?$ScriptRegistrant@VMX0_A02_GDI_MEDTANK@@@@UAEPAXI@Z 1005c500 f i Test_RAD.obj
 0001:0005b500       ??_E?$ScriptRegistrant@VMX0_A02_GDI_MEDTANK@@@@UAEPAXI@Z 1005c500 f i Test_RAD.obj
 0001:0005b550       ??0MX0_A02_GDI_MEDTANK@@QAE@XZ 1005c550 f i Test_RAD.obj
 0001:0005b580       ?Register_Auto_Save_Variables@MX0_A02_GDI_MEDTANK@@UAEXXZ 1005c580 f i Test_RAD.obj
 0001:0005b5b0       ?Created@MX0_A02_GDI_MEDTANK@@UAEXPAVScriptableGameObj@@@Z 1005c5b0 f i Test_RAD.obj
 0001:0005b5e0       ?Damaged@MX0_A02_GDI_MEDTANK@@UAEXPAVScriptableGameObj@@0M@Z 1005c5e0 f i Test_RAD.obj
 0001:0005b630       ?Custom@MX0_A02_GDI_MEDTANK@@UAEXPAVScriptableGameObj@@HH0@Z 1005c630 f i Test_RAD.obj
 0001:0005b6e0       ??_E?$ScriptRegistrant@VMX0_A02_GDI_APC@@@@UAEPAXI@Z 1005c6e0 f i Test_RAD.obj
 0001:0005b6e0       ??_G?$ScriptRegistrant@VMX0_A02_GDI_APC@@@@UAEPAXI@Z 1005c6e0 f i Test_RAD.obj
 0001:0005b730       ??0MX0_A02_GDI_APC@@QAE@XZ 1005c730 f i Test_RAD.obj
 0001:0005b760       ?Created@MX0_A02_GDI_APC@@EAEXPAVScriptableGameObj@@@Z 1005c760 f i Test_RAD.obj
 0001:0005b790       ?Damaged@MX0_A02_GDI_APC@@EAEXPAVScriptableGameObj@@0M@Z 1005c790 f i Test_RAD.obj
 0001:0005b7f0       ?Enemy_Seen@MX0_A02_GDI_APC@@EAEXPAVScriptableGameObj@@0@Z 1005c7f0 f i Test_RAD.obj
 0001:0005b880       ?Custom@MX0_A02_GDI_APC@@EAEXPAVScriptableGameObj@@HH0@Z 1005c880 f i Test_RAD.obj
 0001:0005b920       ??_E?$ScriptRegistrant@VMX0_A02_ZONE_STARTUP@@@@UAEPAXI@Z 1005c920 f i Test_RAD.obj
 0001:0005b920       ??_G?$ScriptRegistrant@VMX0_A02_ZONE_STARTUP@@@@UAEPAXI@Z 1005c920 f i Test_RAD.obj
 0001:0005b970       ??0MX0_A02_ZONE_STARTUP@@QAE@XZ 1005c970 f i Test_RAD.obj
 0001:0005b9a0       ?Entered@MX0_A02_ZONE_STARTUP@@EAEXPAVScriptableGameObj@@0@Z 1005c9a0 f i Test_RAD.obj
 0001:0005ba20       ??_G?$ScriptRegistrant@VMX0_A02_HELICOPTER@@@@UAEPAXI@Z 1005ca20 f i Test_RAD.obj
 0001:0005ba20       ??_E?$ScriptRegistrant@VMX0_A02_HELICOPTER@@@@UAEPAXI@Z 1005ca20 f i Test_RAD.obj
 0001:0005ba70       ??0MX0_A02_HELICOPTER@@QAE@XZ 1005ca70 f i Test_RAD.obj
 0001:0005baa0       ?Created@MX0_A02_HELICOPTER@@EAEXPAVScriptableGameObj@@@Z 1005caa0 f i Test_RAD.obj
 0001:0005bb00       ?Killed@MX0_A02_HELICOPTER@@EAEXPAVScriptableGameObj@@0@Z 1005cb00 f i Test_RAD.obj
 0001:0005bbd0       ?Timer_Expired@MX0_A02_HELICOPTER@@EAEXPAVScriptableGameObj@@H@Z 1005cbd0 f i Test_RAD.obj
 0001:0005bc20       ??_E?$ScriptRegistrant@VMX0_A02_DEFAULT_OFF@@@@UAEPAXI@Z 1005cc20 f i Test_RAD.obj
 0001:0005bc20       ??_G?$ScriptRegistrant@VMX0_A02_DEFAULT_OFF@@@@UAEPAXI@Z 1005cc20 f i Test_RAD.obj
 0001:0005bc70       ??0MX0_A02_DEFAULT_OFF@@QAE@XZ 1005cc70 f i Test_RAD.obj
 0001:0005bca0       ?Created@MX0_A02_DEFAULT_OFF@@EAEXPAVScriptableGameObj@@@Z 1005cca0 f i Test_RAD.obj
 0001:0005bce0       ?Damaged@MX0_A02_DEFAULT_OFF@@EAEXPAVScriptableGameObj@@0M@Z 1005cce0 f i Test_RAD.obj
 0001:0005bd60       ??_G?$ScriptRegistrant@VMX0_A02_ZONE_DEFAULT_ON@@@@UAEPAXI@Z 1005cd60 f i Test_RAD.obj
 0001:0005bd60       ??_E?$ScriptRegistrant@VMX0_A02_ZONE_DEFAULT_ON@@@@UAEPAXI@Z 1005cd60 f i Test_RAD.obj
 0001:0005bdb0       ??0MX0_A02_ZONE_DEFAULT_ON@@QAE@XZ 1005cdb0 f i Test_RAD.obj
 0001:0005bde0       ?Entered@MX0_A02_ZONE_DEFAULT_ON@@EAEXPAVScriptableGameObj@@0@Z 1005cde0 f i Test_RAD.obj
 0001:0005bea0       ??_E?$ScriptRegistrant@VM03_A05_Evac_Zone@@@@UAEPAXI@Z 1005cea0 f i Test_RAD.obj
 0001:0005bea0       ??_G?$ScriptRegistrant@VM03_A05_Evac_Zone@@@@UAEPAXI@Z 1005cea0 f i Test_RAD.obj
 0001:0005bef0       ??0M03_A05_Evac_Zone@@QAE@XZ 1005cef0 f i Test_RAD.obj
 0001:0005bf20       ?Created@M03_A05_Evac_Zone@@EAEXPAVScriptableGameObj@@@Z 1005cf20 f i Test_RAD.obj
 0001:0005bf50       ?Entered@M03_A05_Evac_Zone@@EAEXPAVScriptableGameObj@@0@Z 1005cf50 f i Test_RAD.obj
 0001:0005bff0       ?Create_Soldier@M03_A05_Evac_Zone@@AAEXVVector3@@@Z 1005cff0 f i Test_RAD.obj
 0001:0005c130       ?Custom@M03_A05_Evac_Zone@@EAEXPAVScriptableGameObj@@HH0@Z 1005d130 f i Test_RAD.obj
 0001:0005c210       ??_G?$ScriptRegistrant@VM00_Test_Sound_RAD@@@@UAEPAXI@Z 1005d210 f i Test_RAD.obj
 0001:0005c210       ??_E?$ScriptRegistrant@VM00_Test_Sound_RAD@@@@UAEPAXI@Z 1005d210 f i Test_RAD.obj
 0001:0005c260       ??0M00_Test_Sound_RAD@@QAE@XZ 1005d260 f i Test_RAD.obj
 0001:0005c290       ?Created@M00_Test_Sound_RAD@@EAEXPAVScriptableGameObj@@@Z 1005d290 f i Test_RAD.obj
 0001:0005c370       ??_GMX0_A02_Controller@@UAEPAXI@Z 1005d370 f i Test_RAD.obj
 0001:0005c370       ??_EMX0_A02_Controller@@UAEPAXI@Z 1005d370 f i Test_RAD.obj
 0001:0005c3c0       ??_EMX0_A02_ACTOR@@UAEPAXI@Z 1005d3c0 f i Test_RAD.obj
 0001:0005c3c0       ??_GMX0_A02_ACTOR@@UAEPAXI@Z 1005d3c0 f i Test_RAD.obj
 0001:0005c410       ??_EMX0_A02_GDI_VEHICLE@@UAEPAXI@Z 1005d410 f i Test_RAD.obj
 0001:0005c410       ??_GMX0_A02_GDI_VEHICLE@@UAEPAXI@Z 1005d410 f i Test_RAD.obj
 0001:0005c460       ??_GMX0_A02_GDI_MEDTANK@@UAEPAXI@Z 1005d460 f i Test_RAD.obj
 0001:0005c460       ??_EMX0_A02_GDI_MEDTANK@@UAEPAXI@Z 1005d460 f i Test_RAD.obj
 0001:0005c4b0       ??_EMX0_A02_GDI_APC@@UAEPAXI@Z 1005d4b0 f i Test_RAD.obj
 0001:0005c4b0       ??_GMX0_A02_GDI_APC@@UAEPAXI@Z 1005d4b0 f i Test_RAD.obj
 0001:0005c500       ??_GMX0_A02_ZONE_STARTUP@@UAEPAXI@Z 1005d500 f i Test_RAD.obj
 0001:0005c500       ??_EMX0_A02_ZONE_STARTUP@@UAEPAXI@Z 1005d500 f i Test_RAD.obj
 0001:0005c550       ??_EMX0_A02_HELICOPTER@@UAEPAXI@Z 1005d550 f i Test_RAD.obj
 0001:0005c550       ??_GMX0_A02_HELICOPTER@@UAEPAXI@Z 1005d550 f i Test_RAD.obj
 0001:0005c5a0       ??_EMX0_A02_DEFAULT_OFF@@UAEPAXI@Z 1005d5a0 f i Test_RAD.obj
 0001:0005c5a0       ??_GMX0_A02_DEFAULT_OFF@@UAEPAXI@Z 1005d5a0 f i Test_RAD.obj
 0001:0005c5f0       ??_GMX0_A02_ZONE_DEFAULT_ON@@UAEPAXI@Z 1005d5f0 f i Test_RAD.obj
 0001:0005c5f0       ??_EMX0_A02_ZONE_DEFAULT_ON@@UAEPAXI@Z 1005d5f0 f i Test_RAD.obj
 0001:0005c640       ??_EM03_A05_Evac_Zone@@UAEPAXI@Z 1005d640 f i Test_RAD.obj
 0001:0005c640       ??_GM03_A05_Evac_Zone@@UAEPAXI@Z 1005d640 f i Test_RAD.obj
 0001:0005c690       ??_GM00_Test_Sound_RAD@@UAEPAXI@Z 1005d690 f i Test_RAD.obj
 0001:0005c690       ??_EM00_Test_Sound_RAD@@UAEPAXI@Z 1005d690 f i Test_RAD.obj
 0001:0005c6e0       ??1MX0_A02_Controller@@UAE@XZ 1005d6e0 f i Test_RAD.obj
 0001:0005c710       ??1MX0_A02_ACTOR@@UAE@XZ   1005d710 f i Test_RAD.obj
 0001:0005c740       ??1MX0_A02_GDI_VEHICLE@@UAE@XZ 1005d740 f i Test_RAD.obj
 0001:0005c770       ??1MX0_A02_GDI_MEDTANK@@UAE@XZ 1005d770 f i Test_RAD.obj
 0001:0005c7a0       ??1MX0_A02_GDI_APC@@UAE@XZ 1005d7a0 f i Test_RAD.obj
 0001:0005c7d0       ??1MX0_A02_ZONE_STARTUP@@UAE@XZ 1005d7d0 f i Test_RAD.obj
 0001:0005c800       ??1MX0_A02_HELICOPTER@@UAE@XZ 1005d800 f i Test_RAD.obj
 0001:0005c830       ??1MX0_A02_DEFAULT_OFF@@UAE@XZ 1005d830 f i Test_RAD.obj
 0001:0005c860       ??1MX0_A02_ZONE_DEFAULT_ON@@UAE@XZ 1005d860 f i Test_RAD.obj
 0001:0005c890       ??1M03_A05_Evac_Zone@@UAE@XZ 1005d890 f i Test_RAD.obj
 0001:0005c8c0       ??1M00_Test_Sound_RAD@@UAE@XZ 1005d8c0 f i Test_RAD.obj
 0001:0005c990       ??1?$ScriptRegistrant@VRMV_Test_Script@@@@UAE@XZ 1005d990 f i Test_RMV.obj
 0001:0005ca60       ??1?$ScriptRegistrant@VM00_C130_Dropoff_RMV@@@@UAE@XZ 1005da60 f i Test_RMV.obj
 0001:0005cb30       ??1?$ScriptRegistrant@VM00_Commando_Death_Taunt@@@@UAE@XZ 1005db30 f i Test_RMV.obj
 0001:0005cc00       ??1?$ScriptRegistrant@VM00_Damaged_Warning@@@@UAE@XZ 1005dc00 f i Test_RMV.obj
 0001:0005ccd0       ??1?$ScriptRegistrant@VM00_Put_Script_On_Commando@@@@UAE@XZ 1005dcd0 f i Test_RMV.obj
 0001:0005cda0       ??1?$ScriptRegistrant@VRMV_Hostage_Rescue_Point@@@@UAE@XZ 1005dda0 f i Test_RMV.obj
 0001:0005ce70       ??1?$ScriptRegistrant@VRMV_Trigger_Killed@@@@UAE@XZ 1005de70 f i Test_RMV.obj
 0001:0005cf40       ??1?$ScriptRegistrant@VRMV_Home_Point@@@@UAE@XZ 1005df40 f i Test_RMV.obj
 0001:0005d010       ??1?$ScriptRegistrant@VRMV_Test_Facing@@@@UAE@XZ 1005e010 f i Test_RMV.obj
 0001:0005d0e0       ??1?$ScriptRegistrant@VRMV_Camera_Behavior@@@@UAE@XZ 1005e0e0 f i Test_RMV.obj
 0001:0005d1b0       ??1?$ScriptRegistrant@VRMV_Cinematic_Position@@@@UAE@XZ 1005e1b0 f i Test_RMV.obj
 0001:0005d280       ??1?$ScriptRegistrant@VM00_Destroyed_Turret@@@@UAE@XZ 1005e280 f i Test_RMV.obj
 0001:0005d350       ??1?$ScriptRegistrant@VRMV_Engine_Sound@@@@UAE@XZ 1005e350 f i Test_RMV.obj
 0001:0005d420       ??1?$ScriptRegistrant@VRMV_Transport_Evac@@@@UAE@XZ 1005e420 f i Test_RMV.obj
 0001:0005d4f0       ??1?$ScriptRegistrant@VPoke_And_Play_Cinematic@@@@UAE@XZ 1005e4f0 f i Test_RMV.obj
 0001:0005d5c0       ??1?$ScriptRegistrant@VM00_Ion_Cannon_Sound@@@@UAE@XZ 1005e5c0 f i Test_RMV.obj
 0001:0005d690       ??1?$ScriptRegistrant@VRMV_Trigger_Poked_2@@@@UAE@XZ 1005e690 f i Test_RMV.obj
 0001:0005d760       ??1?$ScriptRegistrant@VRMV_Test_Damage@@@@UAE@XZ 1005e760 f i Test_RMV.obj
 0001:0005d830       ??1?$ScriptRegistrant@VRMV_Test_Stealth@@@@UAE@XZ 1005e830 f i Test_RMV.obj
 0001:0005d860       ??0?$ScriptRegistrant@VRMV_Test_Script@@@@QAE@PBD0@Z 1005e860 f i Test_RMV.obj
 0001:0005d8a0       ?Create@?$ScriptRegistrant@VRMV_Test_Script@@@@UAEPAVScriptImpClass@@XZ 1005e8a0 f i Test_RMV.obj
 0001:0005d940       ??0?$ScriptRegistrant@VM00_C130_Dropoff_RMV@@@@QAE@PBD0@Z 1005e940 f i Test_RMV.obj
 0001:0005d980       ?Create@?$ScriptRegistrant@VM00_C130_Dropoff_RMV@@@@UAEPAVScriptImpClass@@XZ 1005e980 f i Test_RMV.obj
 0001:0005da20       ??0?$ScriptRegistrant@VM00_Commando_Death_Taunt@@@@QAE@PBD0@Z 1005ea20 f i Test_RMV.obj
 0001:0005da60       ?Create@?$ScriptRegistrant@VM00_Commando_Death_Taunt@@@@UAEPAVScriptImpClass@@XZ 1005ea60 f i Test_RMV.obj
 0001:0005db00       ??0?$ScriptRegistrant@VM00_Damaged_Warning@@@@QAE@PBD0@Z 1005eb00 f i Test_RMV.obj
 0001:0005db40       ?Create@?$ScriptRegistrant@VM00_Damaged_Warning@@@@UAEPAVScriptImpClass@@XZ 1005eb40 f i Test_RMV.obj
 0001:0005dbe0       ??0?$ScriptRegistrant@VM00_Put_Script_On_Commando@@@@QAE@PBD0@Z 1005ebe0 f i Test_RMV.obj
 0001:0005dc20       ?Create@?$ScriptRegistrant@VM00_Put_Script_On_Commando@@@@UAEPAVScriptImpClass@@XZ 1005ec20 f i Test_RMV.obj
 0001:0005dcc0       ??0?$ScriptRegistrant@VRMV_Hostage_Rescue_Point@@@@QAE@PBD0@Z 1005ecc0 f i Test_RMV.obj
 0001:0005dd00       ?Create@?$ScriptRegistrant@VRMV_Hostage_Rescue_Point@@@@UAEPAVScriptImpClass@@XZ 1005ed00 f i Test_RMV.obj
 0001:0005dda0       ??0?$ScriptRegistrant@VRMV_Trigger_Killed@@@@QAE@PBD0@Z 1005eda0 f i Test_RMV.obj
 0001:0005dde0       ?Create@?$ScriptRegistrant@VRMV_Trigger_Killed@@@@UAEPAVScriptImpClass@@XZ 1005ede0 f i Test_RMV.obj
 0001:0005de80       ??0?$ScriptRegistrant@VRMV_Home_Point@@@@QAE@PBD0@Z 1005ee80 f i Test_RMV.obj
 0001:0005dec0       ?Create@?$ScriptRegistrant@VRMV_Home_Point@@@@UAEPAVScriptImpClass@@XZ 1005eec0 f i Test_RMV.obj
 0001:0005df60       ??0?$ScriptRegistrant@VRMV_Test_Facing@@@@QAE@PBD0@Z 1005ef60 f i Test_RMV.obj
 0001:0005dfa0       ?Create@?$ScriptRegistrant@VRMV_Test_Facing@@@@UAEPAVScriptImpClass@@XZ 1005efa0 f i Test_RMV.obj
 0001:0005e040       ??0?$ScriptRegistrant@VRMV_Camera_Behavior@@@@QAE@PBD0@Z 1005f040 f i Test_RMV.obj
 0001:0005e080       ?Create@?$ScriptRegistrant@VRMV_Camera_Behavior@@@@UAEPAVScriptImpClass@@XZ 1005f080 f i Test_RMV.obj
 0001:0005e120       ??0?$ScriptRegistrant@VRMV_Cinematic_Position@@@@QAE@PBD0@Z 1005f120 f i Test_RMV.obj
 0001:0005e160       ?Create@?$ScriptRegistrant@VRMV_Cinematic_Position@@@@UAEPAVScriptImpClass@@XZ 1005f160 f i Test_RMV.obj
 0001:0005e200       ??0?$ScriptRegistrant@VM00_Destroyed_Turret@@@@QAE@PBD0@Z 1005f200 f i Test_RMV.obj
 0001:0005e240       ?Create@?$ScriptRegistrant@VM00_Destroyed_Turret@@@@UAEPAVScriptImpClass@@XZ 1005f240 f i Test_RMV.obj
 0001:0005e2e0       ??0?$ScriptRegistrant@VRMV_Engine_Sound@@@@QAE@PBD0@Z 1005f2e0 f i Test_RMV.obj
 0001:0005e320       ?Create@?$ScriptRegistrant@VRMV_Engine_Sound@@@@UAEPAVScriptImpClass@@XZ 1005f320 f i Test_RMV.obj
 0001:0005e3c0       ??0?$ScriptRegistrant@VRMV_Transport_Evac@@@@QAE@PBD0@Z 1005f3c0 f i Test_RMV.obj
 0001:0005e400       ?Create@?$ScriptRegistrant@VRMV_Transport_Evac@@@@UAEPAVScriptImpClass@@XZ 1005f400 f i Test_RMV.obj
 0001:0005e4a0       ??0?$ScriptRegistrant@VPoke_And_Play_Cinematic@@@@QAE@PBD0@Z 1005f4a0 f i Test_RMV.obj
 0001:0005e4e0       ?Create@?$ScriptRegistrant@VPoke_And_Play_Cinematic@@@@UAEPAVScriptImpClass@@XZ 1005f4e0 f i Test_RMV.obj
 0001:0005e580       ??0?$ScriptRegistrant@VM00_Ion_Cannon_Sound@@@@QAE@PBD0@Z 1005f580 f i Test_RMV.obj
 0001:0005e5c0       ?Create@?$ScriptRegistrant@VM00_Ion_Cannon_Sound@@@@UAEPAVScriptImpClass@@XZ 1005f5c0 f i Test_RMV.obj
 0001:0005e660       ??0?$ScriptRegistrant@VRMV_Trigger_Poked_2@@@@QAE@PBD0@Z 1005f660 f i Test_RMV.obj
 0001:0005e6a0       ?Create@?$ScriptRegistrant@VRMV_Trigger_Poked_2@@@@UAEPAVScriptImpClass@@XZ 1005f6a0 f i Test_RMV.obj
 0001:0005e740       ??0?$ScriptRegistrant@VRMV_Test_Damage@@@@QAE@PBD0@Z 1005f740 f i Test_RMV.obj
 0001:0005e780       ?Create@?$ScriptRegistrant@VRMV_Test_Damage@@@@UAEPAVScriptImpClass@@XZ 1005f780 f i Test_RMV.obj
 0001:0005e820       ??0?$ScriptRegistrant@VRMV_Test_Stealth@@@@QAE@PBD0@Z 1005f820 f i Test_RMV.obj
 0001:0005e860       ?Create@?$ScriptRegistrant@VRMV_Test_Stealth@@@@UAEPAVScriptImpClass@@XZ 1005f860 f i Test_RMV.obj
 0001:0005e900       ??_E?$ScriptRegistrant@VRMV_Test_Script@@@@UAEPAXI@Z 1005f900 f i Test_RMV.obj
 0001:0005e900       ??_G?$ScriptRegistrant@VRMV_Test_Script@@@@UAEPAXI@Z 1005f900 f i Test_RMV.obj
 0001:0005e950       ??0RMV_Test_Script@@QAE@XZ 1005f950 f i Test_RMV.obj
 0001:0005e980       ?Sound_Heard@RMV_Test_Script@@EAEXPAVScriptableGameObj@@ABVCombatSound@@@Z 1005f980 f i Test_RMV.obj
 0001:0005e9b0       ??_G?$ScriptRegistrant@VM00_C130_Dropoff_RMV@@@@UAEPAXI@Z 1005f9b0 f i Test_RMV.obj
 0001:0005e9b0       ??_E?$ScriptRegistrant@VM00_C130_Dropoff_RMV@@@@UAEPAXI@Z 1005f9b0 f i Test_RMV.obj
 0001:0005ea00       ??0M00_C130_Dropoff_RMV@@QAE@XZ 1005fa00 f i Test_RMV.obj
 0001:0005ea30       ?Created@M00_C130_Dropoff_RMV@@EAEXPAVScriptableGameObj@@@Z 1005fa30 f i Test_RMV.obj
 0001:0005eac0       ?Killed@M00_C130_Dropoff_RMV@@EAEXPAVScriptableGameObj@@0@Z 1005fac0 f i Test_RMV.obj
 0001:0005eb10       ?Timer_Expired@M00_C130_Dropoff_RMV@@EAEXPAVScriptableGameObj@@H@Z 1005fb10 f i Test_RMV.obj
 0001:0005eb70       ?Animation_Complete@M00_C130_Dropoff_RMV@@EAEXPAVScriptableGameObj@@PBD@Z 1005fb70 f i Test_RMV.obj
 0001:0005eba0       ??_G?$ScriptRegistrant@VM00_Commando_Death_Taunt@@@@UAEPAXI@Z 1005fba0 f i Test_RMV.obj
 0001:0005eba0       ??_E?$ScriptRegistrant@VM00_Commando_Death_Taunt@@@@UAEPAXI@Z 1005fba0 f i Test_RMV.obj
 0001:0005ebf0       ??0M00_Commando_Death_Taunt@@QAE@XZ 1005fbf0 f i Test_RMV.obj
 0001:0005ec20       ?Killed@M00_Commando_Death_Taunt@@EAEXPAVScriptableGameObj@@0@Z 1005fc20 f i Test_RMV.obj
 0001:0005edc0       ??_G?$ScriptRegistrant@VM00_Damaged_Warning@@@@UAEPAXI@Z 1005fdc0 f i Test_RMV.obj
 0001:0005edc0       ??_E?$ScriptRegistrant@VM00_Damaged_Warning@@@@UAEPAXI@Z 1005fdc0 f i Test_RMV.obj
 0001:0005ee10       ??0M00_Damaged_Warning@@QAE@XZ 1005fe10 f i Test_RMV.obj
 0001:0005ee40       ?Register_Auto_Save_Variables@M00_Damaged_Warning@@UAEXXZ 1005fe40 f i Test_RMV.obj
 0001:0005ee70       ?Created@M00_Damaged_Warning@@UAEXPAVScriptableGameObj@@@Z 1005fe70 f i Test_RMV.obj
 0001:0005eea0       ?Damaged@M00_Damaged_Warning@@UAEXPAVScriptableGameObj@@0M@Z 1005fea0 f i Test_RMV.obj
 0001:0005ef50       ?Timer_Expired@M00_Damaged_Warning@@UAEXPAVScriptableGameObj@@H@Z 1005ff50 f i Test_RMV.obj
 0001:0005ef80       ??_E?$ScriptRegistrant@VM00_Put_Script_On_Commando@@@@UAEPAXI@Z 1005ff80 f i Test_RMV.obj
 0001:0005ef80       ??_G?$ScriptRegistrant@VM00_Put_Script_On_Commando@@@@UAEPAXI@Z 1005ff80 f i Test_RMV.obj
 0001:0005efd0       ??0M00_Put_Script_On_Commando@@QAE@XZ 1005ffd0 f i Test_RMV.obj
 0001:0005f000       ?Created@M00_Put_Script_On_Commando@@EAEXPAVScriptableGameObj@@@Z 10060000 f i Test_RMV.obj
 0001:0005f040       ?Timer_Expired@M00_Put_Script_On_Commando@@EAEXPAVScriptableGameObj@@H@Z 10060040 f i Test_RMV.obj
 0001:0005f0f0       ?Custom@M00_Put_Script_On_Commando@@EAEXPAVScriptableGameObj@@HH0@Z 100600f0 f i Test_RMV.obj
 0001:0005f150       ??_G?$ScriptRegistrant@VRMV_Hostage_Rescue_Point@@@@UAEPAXI@Z 10060150 f i Test_RMV.obj
 0001:0005f150       ??_E?$ScriptRegistrant@VRMV_Hostage_Rescue_Point@@@@UAEPAXI@Z 10060150 f i Test_RMV.obj
 0001:0005f1a0       ??0RMV_Hostage_Rescue_Point@@QAE@XZ 100601a0 f i Test_RMV.obj
 0001:0005f1d0       ?Entered@RMV_Hostage_Rescue_Point@@EAEXPAVScriptableGameObj@@0@Z 100601d0 f i Test_RMV.obj
 0001:0005f240       ??_E?$ScriptRegistrant@VRMV_Trigger_Killed@@@@UAEPAXI@Z 10060240 f i Test_RMV.obj
 0001:0005f240       ??_G?$ScriptRegistrant@VRMV_Trigger_Killed@@@@UAEPAXI@Z 10060240 f i Test_RMV.obj
 0001:0005f290       ??0RMV_Trigger_Killed@@QAE@XZ 10060290 f i Test_RMV.obj
 0001:0005f2c0       ?Killed@RMV_Trigger_Killed@@EAEXPAVScriptableGameObj@@0@Z 100602c0 f i Test_RMV.obj
 0001:0005f350       ??_E?$ScriptRegistrant@VRMV_Home_Point@@@@UAEPAXI@Z 10060350 f i Test_RMV.obj
 0001:0005f350       ??_G?$ScriptRegistrant@VRMV_Home_Point@@@@UAEPAXI@Z 10060350 f i Test_RMV.obj
 0001:0005f3a0       ??0RMV_Home_Point@@QAE@XZ  100603a0 f i Test_RMV.obj
 0001:0005f3d0       ?Created@RMV_Home_Point@@EAEXPAVScriptableGameObj@@@Z 100603d0 f i Test_RMV.obj
 0001:0005f440       ??_E?$ScriptRegistrant@VRMV_Test_Facing@@@@UAEPAXI@Z 10060440 f i Test_RMV.obj
 0001:0005f440       ??_G?$ScriptRegistrant@VRMV_Test_Facing@@@@UAEPAXI@Z 10060440 f i Test_RMV.obj
 0001:0005f490       ??0RMV_Test_Facing@@QAE@XZ 10060490 f i Test_RMV.obj
 0001:0005f4c0       ?Damaged@RMV_Test_Facing@@EAEXPAVScriptableGameObj@@0M@Z 100604c0 f i Test_RMV.obj
 0001:0005f580       ?Atan2@WWMath@@SAMMM@Z     10060580 f i Test_RMV.obj
 0001:0005f5c0       ??_E?$ScriptRegistrant@VRMV_Camera_Behavior@@@@UAEPAXI@Z 100605c0 f i Test_RMV.obj
 0001:0005f5c0       ??_G?$ScriptRegistrant@VRMV_Camera_Behavior@@@@UAEPAXI@Z 100605c0 f i Test_RMV.obj
 0001:0005f610       ??0RMV_Camera_Behavior@@QAE@XZ 10060610 f i Test_RMV.obj
 0001:0005f640       ?Register_Auto_Save_Variables@RMV_Camera_Behavior@@UAEXXZ 10060640 f i Test_RMV.obj
 0001:0005f720       ?Created@RMV_Camera_Behavior@@UAEXPAVScriptableGameObj@@@Z 10060720 f i Test_RMV.obj
 0001:0005f880       ?Get_First_Target@RMV_Camera_Behavior@@QAE?AVVector3@@XZ 10060880 f i Test_RMV.obj
 0001:0005fa30       ?Timer_Expired@RMV_Camera_Behavior@@UAEXPAVScriptableGameObj@@H@Z 10060a30 f i Test_RMV.obj
 0001:0005fca0       ?Get_Target@RMV_Camera_Behavior@@QAE?AVVector3@@XZ 10060ca0 f i Test_RMV.obj
 0001:0005ff20       ?Resume@RMV_Camera_Behavior@@QAEXXZ 10060f20 f i Test_RMV.obj
 0001:0005ffa0       ?Alarm@RMV_Camera_Behavior@@QAEXXZ 10060fa0 f i Test_RMV.obj
 0001:000600b0       ?Fire@RMV_Camera_Behavior@@QAEXXZ 100610b0 f i Test_RMV.obj
 0001:000601d0       ?Action_Complete@RMV_Camera_Behavior@@UAEXPAVScriptableGameObj@@HW4ActionCompleteReason@@@Z 100611d0 f i Test_RMV.obj
 0001:00060260       ?Enemy_Seen@RMV_Camera_Behavior@@UAEXPAVScriptableGameObj@@0@Z 10061260 f i Test_RMV.obj
 0001:00060400       ?Killed@RMV_Camera_Behavior@@UAEXPAVScriptableGameObj@@0@Z 10061400 f i Test_RMV.obj
 0001:00060440       ??_G?$ScriptRegistrant@VRMV_Cinematic_Position@@@@UAEPAXI@Z 10061440 f i Test_RMV.obj
 0001:00060440       ??_E?$ScriptRegistrant@VRMV_Cinematic_Position@@@@UAEPAXI@Z 10061440 f i Test_RMV.obj
 0001:00060490       ??0RMV_Cinematic_Position@@QAE@XZ 10061490 f i Test_RMV.obj
 0001:000604c0       ?Created@RMV_Cinematic_Position@@EAEXPAVScriptableGameObj@@@Z 100614c0 f i Test_RMV.obj
 0001:00060500       ?Timer_Expired@RMV_Cinematic_Position@@EAEXPAVScriptableGameObj@@H@Z 10061500 f i Test_RMV.obj
 0001:000605c0       ??_E?$ScriptRegistrant@VM00_Destroyed_Turret@@@@UAEPAXI@Z 100615c0 f i Test_RMV.obj
 0001:000605c0       ??_G?$ScriptRegistrant@VM00_Destroyed_Turret@@@@UAEPAXI@Z 100615c0 f i Test_RMV.obj
 0001:00060610       ??0M00_Destroyed_Turret@@QAE@XZ 10061610 f i Test_RMV.obj
 0001:00060640       ?Killed@M00_Destroyed_Turret@@EAEXPAVScriptableGameObj@@0@Z 10061640 f i Test_RMV.obj
 0001:000606d0       ??_G?$ScriptRegistrant@VRMV_Engine_Sound@@@@UAEPAXI@Z 100616d0 f i Test_RMV.obj
 0001:000606d0       ??_E?$ScriptRegistrant@VRMV_Engine_Sound@@@@UAEPAXI@Z 100616d0 f i Test_RMV.obj
 0001:00060720       ??0RMV_Engine_Sound@@QAE@XZ 10061720 f i Test_RMV.obj
 0001:00060750       ?Register_Auto_Save_Variables@RMV_Engine_Sound@@UAEXXZ 10061750 f i Test_RMV.obj
 0001:00060780       ?Created@RMV_Engine_Sound@@UAEXPAVScriptableGameObj@@@Z 10061780 f i Test_RMV.obj
 0001:000607f0       ?Destroyed@RMV_Engine_Sound@@UAEXPAVScriptableGameObj@@@Z 100617f0 f i Test_RMV.obj
 0001:00060830       ??_E?$ScriptRegistrant@VRMV_Transport_Evac@@@@UAEPAXI@Z 10061830 f i Test_RMV.obj
 0001:00060830       ??_G?$ScriptRegistrant@VRMV_Transport_Evac@@@@UAEPAXI@Z 10061830 f i Test_RMV.obj
 0001:00060880       ??0RMV_Transport_Evac@@QAE@XZ 10061880 f i Test_RMV.obj
 0001:000608b0       ?Register_Auto_Save_Variables@RMV_Transport_Evac@@UAEXXZ 100618b0 f i Test_RMV.obj
 0001:00060930       ?Created@RMV_Transport_Evac@@UAEXPAVScriptableGameObj@@@Z 10061930 f i Test_RMV.obj
 0001:00060bc0       ?Timer_Expired@RMV_Transport_Evac@@UAEXPAVScriptableGameObj@@H@Z 10061bc0 f i Test_RMV.obj
 0001:00060f80       ?Custom@RMV_Transport_Evac@@UAEXPAVScriptableGameObj@@HH0@Z 10061f80 f i Test_RMV.obj
 0001:00060fb0       ??_E?$ScriptRegistrant@VPoke_And_Play_Cinematic@@@@UAEPAXI@Z 10061fb0 f i Test_RMV.obj
 0001:00060fb0       ??_G?$ScriptRegistrant@VPoke_And_Play_Cinematic@@@@UAEPAXI@Z 10061fb0 f i Test_RMV.obj
 0001:00061000       ??0Poke_And_Play_Cinematic@@QAE@XZ 10062000 f i Test_RMV.obj
 0001:00061030       ?Poked@Poke_And_Play_Cinematic@@EAEXPAVScriptableGameObj@@0@Z 10062030 f i Test_RMV.obj
 0001:000610b0       ??_G?$ScriptRegistrant@VM00_Ion_Cannon_Sound@@@@UAEPAXI@Z 100620b0 f i Test_RMV.obj
 0001:000610b0       ??_E?$ScriptRegistrant@VM00_Ion_Cannon_Sound@@@@UAEPAXI@Z 100620b0 f i Test_RMV.obj
 0001:00061100       ??0M00_Ion_Cannon_Sound@@QAE@XZ 10062100 f i Test_RMV.obj
 0001:00061130       ?Created@M00_Ion_Cannon_Sound@@EAEXPAVScriptableGameObj@@@Z 10062130 f i Test_RMV.obj
 0001:000611c0       ??_E?$ScriptRegistrant@VRMV_Trigger_Poked_2@@@@UAEPAXI@Z 100621c0 f i Test_RMV.obj
 0001:000611c0       ??_G?$ScriptRegistrant@VRMV_Trigger_Poked_2@@@@UAEPAXI@Z 100621c0 f i Test_RMV.obj
 0001:00061210       ??0RMV_Trigger_Poked_2@@QAE@XZ 10062210 f i Test_RMV.obj
 0001:00061240       ?Poked@RMV_Trigger_Poked_2@@EAEXPAVScriptableGameObj@@0@Z 10062240 f i Test_RMV.obj
 0001:000612e0       ??_G?$ScriptRegistrant@VRMV_Test_Damage@@@@UAEPAXI@Z 100622e0 f i Test_RMV.obj
 0001:000612e0       ??_E?$ScriptRegistrant@VRMV_Test_Damage@@@@UAEPAXI@Z 100622e0 f i Test_RMV.obj
 0001:00061330       ??0RMV_Test_Damage@@QAE@XZ 10062330 f i Test_RMV.obj
 0001:00061360       ?Created@RMV_Test_Damage@@EAEXPAVScriptableGameObj@@@Z 10062360 f i Test_RMV.obj
 0001:000613c0       ?Damaged@RMV_Test_Damage@@EAEXPAVScriptableGameObj@@0M@Z 100623c0 f i Test_RMV.obj
 0001:000614f0       ?Poked@RMV_Test_Damage@@EAEXPAVScriptableGameObj@@0@Z 100624f0 f i Test_RMV.obj
 0001:00061570       ??_E?$ScriptRegistrant@VRMV_Test_Stealth@@@@UAEPAXI@Z 10062570 f i Test_RMV.obj
 0001:00061570       ??_G?$ScriptRegistrant@VRMV_Test_Stealth@@@@UAEPAXI@Z 10062570 f i Test_RMV.obj
 0001:000615c0       ??0RMV_Test_Stealth@@QAE@XZ 100625c0 f i Test_RMV.obj
 0001:000615f0       ?Created@RMV_Test_Stealth@@EAEXPAVScriptableGameObj@@@Z 100625f0 f i Test_RMV.obj
 0001:00061630       ??_GRMV_Test_Script@@UAEPAXI@Z 10062630 f i Test_RMV.obj
 0001:00061630       ??_ERMV_Test_Script@@UAEPAXI@Z 10062630 f i Test_RMV.obj
 0001:00061680       ??_EM00_C130_Dropoff_RMV@@UAEPAXI@Z 10062680 f i Test_RMV.obj
 0001:00061680       ??_GM00_C130_Dropoff_RMV@@UAEPAXI@Z 10062680 f i Test_RMV.obj
 0001:000616d0       ??_GM00_Commando_Death_Taunt@@UAEPAXI@Z 100626d0 f i Test_RMV.obj
 0001:000616d0       ??_EM00_Commando_Death_Taunt@@UAEPAXI@Z 100626d0 f i Test_RMV.obj
 0001:00061720       ??_GM00_Damaged_Warning@@UAEPAXI@Z 10062720 f i Test_RMV.obj
 0001:00061720       ??_EM00_Damaged_Warning@@UAEPAXI@Z 10062720 f i Test_RMV.obj
 0001:00061770       ??_EM00_Put_Script_On_Commando@@UAEPAXI@Z 10062770 f i Test_RMV.obj
 0001:00061770       ??_GM00_Put_Script_On_Commando@@UAEPAXI@Z 10062770 f i Test_RMV.obj
 0001:000617c0       ??_GRMV_Hostage_Rescue_Point@@UAEPAXI@Z 100627c0 f i Test_RMV.obj
 0001:000617c0       ??_ERMV_Hostage_Rescue_Point@@UAEPAXI@Z 100627c0 f i Test_RMV.obj
 0001:00061810       ??_ERMV_Trigger_Killed@@UAEPAXI@Z 10062810 f i Test_RMV.obj
 0001:00061810       ??_GRMV_Trigger_Killed@@UAEPAXI@Z 10062810 f i Test_RMV.obj
 0001:00061860       ??_GRMV_Home_Point@@UAEPAXI@Z 10062860 f i Test_RMV.obj
 0001:00061860       ??_ERMV_Home_Point@@UAEPAXI@Z 10062860 f i Test_RMV.obj
 0001:000618b0       ??_ERMV_Test_Facing@@UAEPAXI@Z 100628b0 f i Test_RMV.obj
 0001:000618b0       ??_GRMV_Test_Facing@@UAEPAXI@Z 100628b0 f i Test_RMV.obj
 0001:00061900       ??_GRMV_Camera_Behavior@@UAEPAXI@Z 10062900 f i Test_RMV.obj
 0001:00061900       ??_ERMV_Camera_Behavior@@UAEPAXI@Z 10062900 f i Test_RMV.obj
 0001:00061950       ??_ERMV_Cinematic_Position@@UAEPAXI@Z 10062950 f i Test_RMV.obj
 0001:00061950       ??_GRMV_Cinematic_Position@@UAEPAXI@Z 10062950 f i Test_RMV.obj
 0001:000619a0       ??_EM00_Destroyed_Turret@@UAEPAXI@Z 100629a0 f i Test_RMV.obj
 0001:000619a0       ??_GM00_Destroyed_Turret@@UAEPAXI@Z 100629a0 f i Test_RMV.obj
 0001:000619f0       ??_ERMV_Engine_Sound@@UAEPAXI@Z 100629f0 f i Test_RMV.obj
 0001:000619f0       ??_GRMV_Engine_Sound@@UAEPAXI@Z 100629f0 f i Test_RMV.obj
 0001:00061a40       ??_GRMV_Transport_Evac@@UAEPAXI@Z 10062a40 f i Test_RMV.obj
 0001:00061a40       ??_ERMV_Transport_Evac@@UAEPAXI@Z 10062a40 f i Test_RMV.obj
 0001:00061a90       ??_EPoke_And_Play_Cinematic@@UAEPAXI@Z 10062a90 f i Test_RMV.obj
 0001:00061a90       ??_GPoke_And_Play_Cinematic@@UAEPAXI@Z 10062a90 f i Test_RMV.obj
 0001:00061ae0       ??_EM00_Ion_Cannon_Sound@@UAEPAXI@Z 10062ae0 f i Test_RMV.obj
 0001:00061ae0       ??_GM00_Ion_Cannon_Sound@@UAEPAXI@Z 10062ae0 f i Test_RMV.obj
 0001:00061b30       ??_ERMV_Trigger_Poked_2@@UAEPAXI@Z 10062b30 f i Test_RMV.obj
 0001:00061b30       ??_GRMV_Trigger_Poked_2@@UAEPAXI@Z 10062b30 f i Test_RMV.obj
 0001:00061b80       ??_ERMV_Test_Damage@@UAEPAXI@Z 10062b80 f i Test_RMV.obj
 0001:00061b80       ??_GRMV_Test_Damage@@UAEPAXI@Z 10062b80 f i Test_RMV.obj
 0001:00061bd0       ??_ERMV_Test_Stealth@@UAEPAXI@Z 10062bd0 f i Test_RMV.obj
 0001:00061bd0       ??_GRMV_Test_Stealth@@UAEPAXI@Z 10062bd0 f i Test_RMV.obj
 0001:00061c20       ??1RMV_Test_Script@@UAE@XZ 10062c20 f i Test_RMV.obj
 0001:00061c50       ??1M00_C130_Dropoff_RMV@@UAE@XZ 10062c50 f i Test_RMV.obj
 0001:00061c80       ??1M00_Commando_Death_Taunt@@UAE@XZ 10062c80 f i Test_RMV.obj
 0001:00061cb0       ??1M00_Damaged_Warning@@UAE@XZ 10062cb0 f i Test_RMV.obj
 0001:00061ce0       ??1M00_Put_Script_On_Commando@@UAE@XZ 10062ce0 f i Test_RMV.obj
 0001:00061d10       ??1RMV_Hostage_Rescue_Point@@UAE@XZ 10062d10 f i Test_RMV.obj
 0001:00061d40       ??1RMV_Trigger_Killed@@UAE@XZ 10062d40 f i Test_RMV.obj
 0001:00061d70       ??1RMV_Home_Point@@UAE@XZ  10062d70 f i Test_RMV.obj
 0001:00061da0       ??1RMV_Test_Facing@@UAE@XZ 10062da0 f i Test_RMV.obj
 0001:00061dd0       ??1RMV_Camera_Behavior@@UAE@XZ 10062dd0 f i Test_RMV.obj
 0001:00061e00       ??1RMV_Cinematic_Position@@UAE@XZ 10062e00 f i Test_RMV.obj
 0001:00061e30       ??1M00_Destroyed_Turret@@UAE@XZ 10062e30 f i Test_RMV.obj
 0001:00061e60       ??1RMV_Engine_Sound@@UAE@XZ 10062e60 f i Test_RMV.obj
 0001:00061e90       ??1RMV_Transport_Evac@@UAE@XZ 10062e90 f i Test_RMV.obj
 0001:00061ec0       ??1Poke_And_Play_Cinematic@@UAE@XZ 10062ec0 f i Test_RMV.obj
 0001:00061ef0       ??1M00_Ion_Cannon_Sound@@UAE@XZ 10062ef0 f i Test_RMV.obj
 0001:00061f20       ??1RMV_Trigger_Poked_2@@UAE@XZ 10062f20 f i Test_RMV.obj
 0001:00061f50       ??1RMV_Test_Damage@@UAE@XZ 10062f50 f i Test_RMV.obj
 0001:00061f80       ??1RMV_Test_Stealth@@UAE@XZ 10062f80 f i Test_RMV.obj
 0001:00062050       ??1?$ScriptRegistrant@VRMV_Trigger_Zone@@@@UAE@XZ 10063050 f i Test_RMV_Toolkit.obj
 0001:00062120       ??1?$ScriptRegistrant@VRMV_Trigger_Zone_2@@@@UAE@XZ 10063120 f i Test_RMV_Toolkit.obj
 0001:000621f0       ??1?$ScriptRegistrant@VRMV_Trigger_Poked@@@@UAE@XZ 100631f0 f i Test_RMV_Toolkit.obj
 0001:000622c0       ??1?$ScriptRegistrant@VRMV_Engineer_Wander@@@@UAE@XZ 100632c0 f i Test_RMV_Toolkit.obj
 0001:00062390       ??1?$ScriptRegistrant@VRMV_Building_Engineer_Controller@@@@UAE@XZ 10063390 f i Test_RMV_Toolkit.obj
 0001:00062460       ??1?$ScriptRegistrant@VRMV_Toggled_Engineer_Target@@@@UAE@XZ 10063460 f i Test_RMV_Toolkit.obj
 0001:00062530       ??1?$ScriptRegistrant@VRMV_MCT_Switcher@@@@UAE@XZ 10063530 f i Test_RMV_Toolkit.obj
 0001:00062600       ??1?$ScriptRegistrant@VM00_Play_Sound@@@@UAE@XZ 10063600 f i Test_RMV_Toolkit.obj
 0001:00062630       ??0?$ScriptRegistrant@VRMV_Trigger_Zone@@@@QAE@PBD0@Z 10063630 f i Test_RMV_Toolkit.obj
 0001:00062670       ?Create@?$ScriptRegistrant@VRMV_Trigger_Zone@@@@UAEPAVScriptImpClass@@XZ 10063670 f i Test_RMV_Toolkit.obj
 0001:00062710       ??0?$ScriptRegistrant@VRMV_Trigger_Zone_2@@@@QAE@PBD0@Z 10063710 f i Test_RMV_Toolkit.obj
 0001:00062750       ?Create@?$ScriptRegistrant@VRMV_Trigger_Zone_2@@@@UAEPAVScriptImpClass@@XZ 10063750 f i Test_RMV_Toolkit.obj
 0001:000627f0       ??0?$ScriptRegistrant@VRMV_Trigger_Poked@@@@QAE@PBD0@Z 100637f0 f i Test_RMV_Toolkit.obj
 0001:00062830       ?Create@?$ScriptRegistrant@VRMV_Trigger_Poked@@@@UAEPAVScriptImpClass@@XZ 10063830 f i Test_RMV_Toolkit.obj
 0001:000628d0       ??0?$ScriptRegistrant@VRMV_Engineer_Wander@@@@QAE@PBD0@Z 100638d0 f i Test_RMV_Toolkit.obj
 0001:00062910       ?Create@?$ScriptRegistrant@VRMV_Engineer_Wander@@@@UAEPAVScriptImpClass@@XZ 10063910 f i Test_RMV_Toolkit.obj
 0001:000629b0       ??0?$ScriptRegistrant@VRMV_Building_Engineer_Controller@@@@QAE@PBD0@Z 100639b0 f i Test_RMV_Toolkit.obj
 0001:000629f0       ?Create@?$ScriptRegistrant@VRMV_Building_Engineer_Controller@@@@UAEPAVScriptImpClass@@XZ 100639f0 f i Test_RMV_Toolkit.obj
 0001:00062a90       ??0?$ScriptRegistrant@VRMV_Toggled_Engineer_Target@@@@QAE@PBD0@Z 10063a90 f i Test_RMV_Toolkit.obj
 0001:00062ad0       ?Create@?$ScriptRegistrant@VRMV_Toggled_Engineer_Target@@@@UAEPAVScriptImpClass@@XZ 10063ad0 f i Test_RMV_Toolkit.obj
 0001:00062b70       ??0?$ScriptRegistrant@VRMV_MCT_Switcher@@@@QAE@PBD0@Z 10063b70 f i Test_RMV_Toolkit.obj
 0001:00062bb0       ?Create@?$ScriptRegistrant@VRMV_MCT_Switcher@@@@UAEPAVScriptImpClass@@XZ 10063bb0 f i Test_RMV_Toolkit.obj
 0001:00062c50       ??0?$ScriptRegistrant@VM00_Play_Sound@@@@QAE@PBD0@Z 10063c50 f i Test_RMV_Toolkit.obj
 0001:00062c90       ?Create@?$ScriptRegistrant@VM00_Play_Sound@@@@UAEPAVScriptImpClass@@XZ 10063c90 f i Test_RMV_Toolkit.obj
 0001:00062d30       ??_E?$ScriptRegistrant@VRMV_Trigger_Zone@@@@UAEPAXI@Z 10063d30 f i Test_RMV_Toolkit.obj
 0001:00062d30       ??_G?$ScriptRegistrant@VRMV_Trigger_Zone@@@@UAEPAXI@Z 10063d30 f i Test_RMV_Toolkit.obj
 0001:00062d80       ??0RMV_Trigger_Zone@@QAE@XZ 10063d80 f i Test_RMV_Toolkit.obj
 0001:00062db0       ?Entered@RMV_Trigger_Zone@@EAEXPAVScriptableGameObj@@0@Z 10063db0 f i Test_RMV_Toolkit.obj
 0001:00062e90       ??_G?$ScriptRegistrant@VRMV_Trigger_Zone_2@@@@UAEPAXI@Z 10063e90 f i Test_RMV_Toolkit.obj
 0001:00062e90       ??_E?$ScriptRegistrant@VRMV_Trigger_Zone_2@@@@UAEPAXI@Z 10063e90 f i Test_RMV_Toolkit.obj
 0001:00062ee0       ??0RMV_Trigger_Zone_2@@QAE@XZ 10063ee0 f i Test_RMV_Toolkit.obj
 0001:00062f10       ?Entered@RMV_Trigger_Zone_2@@EAEXPAVScriptableGameObj@@0@Z 10063f10 f i Test_RMV_Toolkit.obj
 0001:00062fd0       ??_E?$ScriptRegistrant@VRMV_Trigger_Poked@@@@UAEPAXI@Z 10063fd0 f i Test_RMV_Toolkit.obj
 0001:00062fd0       ??_G?$ScriptRegistrant@VRMV_Trigger_Poked@@@@UAEPAXI@Z 10063fd0 f i Test_RMV_Toolkit.obj
 0001:00063020       ??0RMV_Trigger_Poked@@QAE@XZ 10064020 f i Test_RMV_Toolkit.obj
 0001:00063050       ?Poked@RMV_Trigger_Poked@@EAEXPAVScriptableGameObj@@0@Z 10064050 f i Test_RMV_Toolkit.obj
 0001:00063110       ??_E?$ScriptRegistrant@VRMV_Engineer_Wander@@@@UAEPAXI@Z 10064110 f i Test_RMV_Toolkit.obj
 0001:00063110       ??_G?$ScriptRegistrant@VRMV_Engineer_Wander@@@@UAEPAXI@Z 10064110 f i Test_RMV_Toolkit.obj
 0001:00063160       ??0RMV_Engineer_Wander@@QAE@XZ 10064160 f i Test_RMV_Toolkit.obj
 0001:00063190       ?Register_Auto_Save_Variables@RMV_Engineer_Wander@@UAEXXZ 10064190 f i Test_RMV_Toolkit.obj
 0001:00063280       ?Created@RMV_Engineer_Wander@@UAEXPAVScriptableGameObj@@@Z 10064280 f i Test_RMV_Toolkit.obj
 0001:00063310       ?Sound_Heard@RMV_Engineer_Wander@@UAEXPAVScriptableGameObj@@ABVCombatSound@@@Z 10064310 f i Test_RMV_Toolkit.obj
 0001:00063480       ?Evacuate@RMV_Engineer_Wander@@QAEXXZ 10064480 f i Test_RMV_Toolkit.obj
 0001:00063590       ?Custom@RMV_Engineer_Wander@@UAEXPAVScriptableGameObj@@HH0@Z 10064590 f i Test_RMV_Toolkit.obj
 0001:00063690       ?Action_Complete@RMV_Engineer_Wander@@UAEXPAVScriptableGameObj@@HW4ActionCompleteReason@@@Z 10064690 f i Test_RMV_Toolkit.obj
 0001:00063820       ??_G?$ScriptRegistrant@VRMV_Building_Engineer_Controller@@@@UAEPAXI@Z 10064820 f i Test_RMV_Toolkit.obj
 0001:00063820       ??_E?$ScriptRegistrant@VRMV_Building_Engineer_Controller@@@@UAEPAXI@Z 10064820 f i Test_RMV_Toolkit.obj
 0001:00063870       ??0RMV_Building_Engineer_Controller@@QAE@XZ 10064870 f i Test_RMV_Toolkit.obj
 0001:000638a0       ?Register_Auto_Save_Variables@RMV_Building_Engineer_Controller@@UAEXXZ 100648a0 f i Test_RMV_Toolkit.obj
 0001:00063900       ?Created@RMV_Building_Engineer_Controller@@UAEXPAVScriptableGameObj@@@Z 10064900 f i Test_RMV_Toolkit.obj
 0001:00063940       ?Custom@RMV_Building_Engineer_Controller@@UAEXPAVScriptableGameObj@@HH0@Z 10064940 f i Test_RMV_Toolkit.obj
 0001:00063f30       ?Killed@RMV_Building_Engineer_Controller@@UAEXPAVScriptableGameObj@@0@Z 10064f30 f i Test_RMV_Toolkit.obj
 0001:00063fc0       ??_G?$ScriptRegistrant@VRMV_Toggled_Engineer_Target@@@@UAEPAXI@Z 10064fc0 f i Test_RMV_Toolkit.obj
 0001:00063fc0       ??_E?$ScriptRegistrant@VRMV_Toggled_Engineer_Target@@@@UAEPAXI@Z 10064fc0 f i Test_RMV_Toolkit.obj
 0001:00064010       ??0RMV_Toggled_Engineer_Target@@QAE@XZ 10065010 f i Test_RMV_Toolkit.obj
 0001:00064050       ?Register_Auto_Save_Variables@RMV_Toggled_Engineer_Target@@UAEXXZ 10065050 f i Test_RMV_Toolkit.obj
 0001:00064100       ?Created@RMV_Toggled_Engineer_Target@@UAEXPAVScriptableGameObj@@@Z 10065100 f i Test_RMV_Toolkit.obj
 0001:000641a0       ?Timer_Expired@RMV_Toggled_Engineer_Target@@UAEXPAVScriptableGameObj@@H@Z 100651a0 f i Test_RMV_Toolkit.obj
 0001:00064250       ?Custom@RMV_Toggled_Engineer_Target@@UAEXPAVScriptableGameObj@@HH0@Z 10065250 f i Test_RMV_Toolkit.obj
 0001:000643a0       ??_E?$ScriptRegistrant@VRMV_MCT_Switcher@@@@UAEPAXI@Z 100653a0 f i Test_RMV_Toolkit.obj
 0001:000643a0       ??_G?$ScriptRegistrant@VRMV_MCT_Switcher@@@@UAEPAXI@Z 100653a0 f i Test_RMV_Toolkit.obj
 0001:000643f0       ??0RMV_MCT_Switcher@@QAE@XZ 100653f0 f i Test_RMV_Toolkit.obj
 0001:00064420       ?Killed@RMV_MCT_Switcher@@EAEXPAVScriptableGameObj@@0@Z 10065420 f i Test_RMV_Toolkit.obj
 0001:000644a0       ??_E?$ScriptRegistrant@VM00_Play_Sound@@@@UAEPAXI@Z 100654a0 f i Test_RMV_Toolkit.obj
 0001:000644a0       ??_G?$ScriptRegistrant@VM00_Play_Sound@@@@UAEPAXI@Z 100654a0 f i Test_RMV_Toolkit.obj
 0001:000644f0       ??0M00_Play_Sound@@QAE@XZ  100654f0 f i Test_RMV_Toolkit.obj
 0001:00064520       ?Created@M00_Play_Sound@@EAEXPAVScriptableGameObj@@@Z 10065520 f i Test_RMV_Toolkit.obj
 0001:000645d0       ?Timer_Expired@M00_Play_Sound@@EAEXPAVScriptableGameObj@@H@Z 100655d0 f i Test_RMV_Toolkit.obj
 0001:00064790       ?Custom@M00_Play_Sound@@EAEXPAVScriptableGameObj@@HH0@Z 10065790 f i Test_RMV_Toolkit.obj
 0001:00064830       ??_GRMV_Trigger_Zone@@UAEPAXI@Z 10065830 f i Test_RMV_Toolkit.obj
 0001:00064830       ??_ERMV_Trigger_Zone@@UAEPAXI@Z 10065830 f i Test_RMV_Toolkit.obj
 0001:00064880       ??_GRMV_Trigger_Zone_2@@UAEPAXI@Z 10065880 f i Test_RMV_Toolkit.obj
 0001:00064880       ??_ERMV_Trigger_Zone_2@@UAEPAXI@Z 10065880 f i Test_RMV_Toolkit.obj
 0001:000648d0       ??_ERMV_Trigger_Poked@@UAEPAXI@Z 100658d0 f i Test_RMV_Toolkit.obj
 0001:000648d0       ??_GRMV_Trigger_Poked@@UAEPAXI@Z 100658d0 f i Test_RMV_Toolkit.obj
 0001:00064920       ??_GRMV_Engineer_Wander@@UAEPAXI@Z 10065920 f i Test_RMV_Toolkit.obj
 0001:00064920       ??_ERMV_Engineer_Wander@@UAEPAXI@Z 10065920 f i Test_RMV_Toolkit.obj
 0001:00064970       ??_ERMV_Building_Engineer_Controller@@UAEPAXI@Z 10065970 f i Test_RMV_Toolkit.obj
 0001:00064970       ??_GRMV_Building_Engineer_Controller@@UAEPAXI@Z 10065970 f i Test_RMV_Toolkit.obj
 0001:000649c0       ??_ERMV_Toggled_Engineer_Target@@UAEPAXI@Z 100659c0 f i Test_RMV_Toolkit.obj
 0001:000649c0       ??_GRMV_Toggled_Engineer_Target@@UAEPAXI@Z 100659c0 f i Test_RMV_Toolkit.obj
 0001:00064a10       ??_ERMV_MCT_Switcher@@UAEPAXI@Z 10065a10 f i Test_RMV_Toolkit.obj
 0001:00064a10       ??_GRMV_MCT_Switcher@@UAEPAXI@Z 10065a10 f i Test_RMV_Toolkit.obj
 0001:00064a60       ??_EM00_Play_Sound@@UAEPAXI@Z 10065a60 f i Test_RMV_Toolkit.obj
 0001:00064a60       ??_GM00_Play_Sound@@UAEPAXI@Z 10065a60 f i Test_RMV_Toolkit.obj
 0001:00064ab0       ??1RMV_Trigger_Zone@@UAE@XZ 10065ab0 f i Test_RMV_Toolkit.obj
 0001:00064ae0       ??1RMV_Trigger_Zone_2@@UAE@XZ 10065ae0 f i Test_RMV_Toolkit.obj
 0001:00064b10       ??1RMV_Trigger_Poked@@UAE@XZ 10065b10 f i Test_RMV_Toolkit.obj
 0001:00064b40       ??1RMV_Engineer_Wander@@UAE@XZ 10065b40 f i Test_RMV_Toolkit.obj
 0001:00064b70       ??1RMV_Building_Engineer_Controller@@UAE@XZ 10065b70 f i Test_RMV_Toolkit.obj
 0001:00064ba0       ??1RMV_Toggled_Engineer_Target@@UAE@XZ 10065ba0 f i Test_RMV_Toolkit.obj
 0001:00064bd0       ??1RMV_MCT_Switcher@@UAE@XZ 10065bd0 f i Test_RMV_Toolkit.obj
 0001:00064c00       ??1M00_Play_Sound@@UAE@XZ  10065c00 f i Test_RMV_Toolkit.obj
 0001:00064cd0       ??1?$ScriptRegistrant@VM00_Debug_Text_File_RMV@@@@UAE@XZ 10065cd0 f i Toolkit.obj
 0001:00064da0       ??1?$ScriptRegistrant@VM00_Disable_Physical_Collision_JDG@@@@UAE@XZ 10065da0 f i Toolkit.obj
 0001:00064e70       ??1?$ScriptRegistrant@VM00_Enable_Physical_Collision_JDG@@@@UAE@XZ 10065e70 f i Toolkit.obj
 0001:00064f40       ??1?$ScriptRegistrant@VM00_C130_Explosion@@@@UAE@XZ 10065f40 f i Toolkit.obj
 0001:00065010       ??1?$ScriptRegistrant@VM00_Monitor_Attached_Primary@@@@UAE@XZ 10066010 f i Toolkit.obj
 0001:000650e0       ??1?$ScriptRegistrant@VM00_5MetalBarrels_ChainRxn_Controller_JDG@@@@UAE@XZ 100660e0 f i Toolkit.obj
 0001:000651b0       ??1?$ScriptRegistrant@VM00_ChainRxn_Barrel_JDG@@@@UAE@XZ 100661b0 f i Toolkit.obj
 0001:00065280       ??1?$ScriptRegistrant@VM00_Advanced_Guard_Tower@@@@UAE@XZ 10066280 f i Toolkit.obj
 0001:00065350       ??1?$ScriptRegistrant@VM00_Advanced_Guard_Tower_Gun@@@@UAE@XZ 10066350 f i Toolkit.obj
 0001:00065420       ??1?$ScriptRegistrant@VM00_Advanced_Guard_Tower_Missile@@@@UAE@XZ 10066420 f i Toolkit.obj
 0001:000654f0       ??1?$ScriptRegistrant@VM00_Purchase_Terminal_GDI@@@@UAE@XZ 100664f0 f i Toolkit.obj
 0001:000655c0       ??1?$ScriptRegistrant@VM00_Purchase_Terminal_NOD@@@@UAE@XZ 100665c0 f i Toolkit.obj
 0001:00065690       ??1?$ScriptRegistrant@VM00_Purchase_Terminal_Mutant@@@@UAE@XZ 10066690 f i Toolkit.obj
 0001:00065760       ??1?$ScriptRegistrant@VM00_Nod_Turret@@@@UAE@XZ 10066760 f i Toolkit.obj
 0001:00065830       ??1?$ScriptRegistrant@VM00_Nod_Obelisk_CNC@@@@UAE@XZ 10066830 f i Toolkit.obj
 0001:00065900       ??1?$ScriptRegistrant@VM00_Obelisk_Weapon_CNC@@@@UAE@XZ 10066900 f i Toolkit.obj
 0001:000659d0       ??1?$ScriptRegistrant@VM00_Nod_Obelisk@@@@UAE@XZ 100669d0 f i Toolkit.obj
 0001:00065aa0       ??1?$ScriptRegistrant@VM00_Obelisk_Weapon@@@@UAE@XZ 10066aa0 f i Toolkit.obj
 0001:00065b70       ??1?$ScriptRegistrant@VM00_Select_Empty_Hands@@@@UAE@XZ 10066b70 f i Toolkit.obj
 0001:00065c40       ??1?$ScriptRegistrant@VM00_ArmorMedal_TextMessage_JDG@@@@UAE@XZ 10066c40 f i Toolkit.obj
 0001:00065d10       ??1?$ScriptRegistrant@VM00_HealthMedal_TextMessage_JDG@@@@UAE@XZ 10066d10 f i Toolkit.obj
 0001:00065de0       ??1?$ScriptRegistrant@VM00_Change_L3Mutant_RadarMarker_JDG@@@@UAE@XZ 10066de0 f i Toolkit.obj
 0001:00065eb0       ??1?$ScriptRegistrant@VM00_SSM_DLS@@@@UAE@XZ 10066eb0 f i Toolkit.obj
 0001:00065f80       ??1?$ScriptRegistrant@VM00_Generic_Conv_DME@@@@UAE@XZ 10066f80 f i Toolkit.obj
 0001:00066050       ??1?$ScriptRegistrant@VM00_Damage_Modifier_DME@@@@UAE@XZ 10067050 f i Toolkit.obj
 0001:00066120       ??1?$ScriptRegistrant@VM00_Base_Defense@@@@UAE@XZ 10067120 f i Toolkit.obj
 0001:00066150       ??0?$ScriptRegistrant@VM00_Debug_Text_File_RMV@@@@QAE@PBD0@Z 10067150 f i Toolkit.obj
 0001:00066190       ?Create@?$ScriptRegistrant@VM00_Debug_Text_File_RMV@@@@UAEPAVScriptImpClass@@XZ 10067190 f i Toolkit.obj
 0001:00066230       ??0?$ScriptRegistrant@VM00_Disable_Physical_Collision_JDG@@@@QAE@PBD0@Z 10067230 f i Toolkit.obj
 0001:00066270       ?Create@?$ScriptRegistrant@VM00_Disable_Physical_Collision_JDG@@@@UAEPAVScriptImpClass@@XZ 10067270 f i Toolkit.obj
 0001:00066310       ??0?$ScriptRegistrant@VM00_Enable_Physical_Collision_JDG@@@@QAE@PBD0@Z 10067310 f i Toolkit.obj
 0001:00066350       ?Create@?$ScriptRegistrant@VM00_Enable_Physical_Collision_JDG@@@@UAEPAVScriptImpClass@@XZ 10067350 f i Toolkit.obj
 0001:000663f0       ??0?$ScriptRegistrant@VM00_C130_Explosion@@@@QAE@PBD0@Z 100673f0 f i Toolkit.obj
 0001:00066430       ?Create@?$ScriptRegistrant@VM00_C130_Explosion@@@@UAEPAVScriptImpClass@@XZ 10067430 f i Toolkit.obj
 0001:000664d0       ??0?$ScriptRegistrant@VM00_Monitor_Attached_Primary@@@@QAE@PBD0@Z 100674d0 f i Toolkit.obj
 0001:00066510       ?Create@?$ScriptRegistrant@VM00_Monitor_Attached_Primary@@@@UAEPAVScriptImpClass@@XZ 10067510 f i Toolkit.obj
 0001:000665b0       ??0?$ScriptRegistrant@VM00_5MetalBarrels_ChainRxn_Controller_JDG@@@@QAE@PBD0@Z 100675b0 f i Toolkit.obj
 0001:000665f0       ?Create@?$ScriptRegistrant@VM00_5MetalBarrels_ChainRxn_Controller_JDG@@@@UAEPAVScriptImpClass@@XZ 100675f0 f i Toolkit.obj
 0001:00066690       ??0?$ScriptRegistrant@VM00_ChainRxn_Barrel_JDG@@@@QAE@PBD0@Z 10067690 f i Toolkit.obj
 0001:000666d0       ?Create@?$ScriptRegistrant@VM00_ChainRxn_Barrel_JDG@@@@UAEPAVScriptImpClass@@XZ 100676d0 f i Toolkit.obj
 0001:00066770       ??0?$ScriptRegistrant@VM00_Advanced_Guard_Tower@@@@QAE@PBD0@Z 10067770 f i Toolkit.obj
 0001:000667b0       ?Create@?$ScriptRegistrant@VM00_Advanced_Guard_Tower@@@@UAEPAVScriptImpClass@@XZ 100677b0 f i Toolkit.obj
 0001:00066850       ??0?$ScriptRegistrant@VM00_Advanced_Guard_Tower_Gun@@@@QAE@PBD0@Z 10067850 f i Toolkit.obj
 0001:00066890       ?Create@?$ScriptRegistrant@VM00_Advanced_Guard_Tower_Gun@@@@UAEPAVScriptImpClass@@XZ 10067890 f i Toolkit.obj
 0001:00066930       ??0?$ScriptRegistrant@VM00_Advanced_Guard_Tower_Missile@@@@QAE@PBD0@Z 10067930 f i Toolkit.obj
 0001:00066970       ?Create@?$ScriptRegistrant@VM00_Advanced_Guard_Tower_Missile@@@@UAEPAVScriptImpClass@@XZ 10067970 f i Toolkit.obj
 0001:00066a10       ??0?$ScriptRegistrant@VM00_Purchase_Terminal_GDI@@@@QAE@PBD0@Z 10067a10 f i Toolkit.obj
 0001:00066a50       ?Create@?$ScriptRegistrant@VM00_Purchase_Terminal_GDI@@@@UAEPAVScriptImpClass@@XZ 10067a50 f i Toolkit.obj
 0001:00066af0       ??0?$ScriptRegistrant@VM00_Purchase_Terminal_NOD@@@@QAE@PBD0@Z 10067af0 f i Toolkit.obj
 0001:00066b30       ?Create@?$ScriptRegistrant@VM00_Purchase_Terminal_NOD@@@@UAEPAVScriptImpClass@@XZ 10067b30 f i Toolkit.obj
 0001:00066bd0       ??0?$ScriptRegistrant@VM00_Purchase_Terminal_Mutant@@@@QAE@PBD0@Z 10067bd0 f i Toolkit.obj
 0001:00066c10       ?Create@?$ScriptRegistrant@VM00_Purchase_Terminal_Mutant@@@@UAEPAVScriptImpClass@@XZ 10067c10 f i Toolkit.obj
 0001:00066cb0       ??0?$ScriptRegistrant@VM00_Nod_Turret@@@@QAE@PBD0@Z 10067cb0 f i Toolkit.obj
 0001:00066cf0       ?Create@?$ScriptRegistrant@VM00_Nod_Turret@@@@UAEPAVScriptImpClass@@XZ 10067cf0 f i Toolkit.obj
 0001:00066d90       ??0?$ScriptRegistrant@VM00_Nod_Obelisk_CNC@@@@QAE@PBD0@Z 10067d90 f i Toolkit.obj
 0001:00066dd0       ?Create@?$ScriptRegistrant@VM00_Nod_Obelisk_CNC@@@@UAEPAVScriptImpClass@@XZ 10067dd0 f i Toolkit.obj
 0001:00066e70       ??0?$ScriptRegistrant@VM00_Obelisk_Weapon_CNC@@@@QAE@PBD0@Z 10067e70 f i Toolkit.obj
 0001:00066eb0       ?Create@?$ScriptRegistrant@VM00_Obelisk_Weapon_CNC@@@@UAEPAVScriptImpClass@@XZ 10067eb0 f i Toolkit.obj
 0001:00066f50       ??0?$ScriptRegistrant@VM00_Nod_Obelisk@@@@QAE@PBD0@Z 10067f50 f i Toolkit.obj
 0001:00066f90       ?Create@?$ScriptRegistrant@VM00_Nod_Obelisk@@@@UAEPAVScriptImpClass@@XZ 10067f90 f i Toolkit.obj
 0001:00067030       ??0?$ScriptRegistrant@VM00_Obelisk_Weapon@@@@QAE@PBD0@Z 10068030 f i Toolkit.obj
 0001:00067070       ?Create@?$ScriptRegistrant@VM00_Obelisk_Weapon@@@@UAEPAVScriptImpClass@@XZ 10068070 f i Toolkit.obj
 0001:00067110       ??0?$ScriptRegistrant@VM00_Select_Empty_Hands@@@@QAE@PBD0@Z 10068110 f i Toolkit.obj
 0001:00067150       ?Create@?$ScriptRegistrant@VM00_Select_Empty_Hands@@@@UAEPAVScriptImpClass@@XZ 10068150 f i Toolkit.obj
 0001:000671f0       ??0?$ScriptRegistrant@VM00_ArmorMedal_TextMessage_JDG@@@@QAE@PBD0@Z 100681f0 f i Toolkit.obj
 0001:00067230       ?Create@?$ScriptRegistrant@VM00_ArmorMedal_TextMessage_JDG@@@@UAEPAVScriptImpClass@@XZ 10068230 f i Toolkit.obj
 0001:000672d0       ??0?$ScriptRegistrant@VM00_HealthMedal_TextMessage_JDG@@@@QAE@PBD0@Z 100682d0 f i Toolkit.obj
 0001:00067310       ?Create@?$ScriptRegistrant@VM00_HealthMedal_TextMessage_JDG@@@@UAEPAVScriptImpClass@@XZ 10068310 f i Toolkit.obj
 0001:000673b0       ??0?$ScriptRegistrant@VM00_Change_L3Mutant_RadarMarker_JDG@@@@QAE@PBD0@Z 100683b0 f i Toolkit.obj
 0001:000673f0       ?Create@?$ScriptRegistrant@VM00_Change_L3Mutant_RadarMarker_JDG@@@@UAEPAVScriptImpClass@@XZ 100683f0 f i Toolkit.obj
 0001:00067490       ??0?$ScriptRegistrant@VM00_SSM_DLS@@@@QAE@PBD0@Z 10068490 f i Toolkit.obj
 0001:000674d0       ?Create@?$ScriptRegistrant@VM00_SSM_DLS@@@@UAEPAVScriptImpClass@@XZ 100684d0 f i Toolkit.obj
 0001:00067570       ??0?$ScriptRegistrant@VM00_Generic_Conv_DME@@@@QAE@PBD0@Z 10068570 f i Toolkit.obj
 0001:000675b0       ?Create@?$ScriptRegistrant@VM00_Generic_Conv_DME@@@@UAEPAVScriptImpClass@@XZ 100685b0 f i Toolkit.obj
 0001:00067650       ??0?$ScriptRegistrant@VM00_Damage_Modifier_DME@@@@QAE@PBD0@Z 10068650 f i Toolkit.obj
 0001:00067690       ?Create@?$ScriptRegistrant@VM00_Damage_Modifier_DME@@@@UAEPAVScriptImpClass@@XZ 10068690 f i Toolkit.obj
 0001:00067730       ??0?$ScriptRegistrant@VM00_Base_Defense@@@@QAE@PBD0@Z 10068730 f i Toolkit.obj
 0001:00067770       ?Create@?$ScriptRegistrant@VM00_Base_Defense@@@@UAEPAVScriptImpClass@@XZ 10068770 f i Toolkit.obj
 0001:00067810       ??_E?$ScriptRegistrant@VM00_Debug_Text_File_RMV@@@@UAEPAXI@Z 10068810 f i Toolkit.obj
 0001:00067810       ??_G?$ScriptRegistrant@VM00_Debug_Text_File_RMV@@@@UAEPAXI@Z 10068810 f i Toolkit.obj
 0001:00067860       ??0M00_Debug_Text_File_RMV@@QAE@XZ 10068860 f i Toolkit.obj
 0001:00067890       ?Created@M00_Debug_Text_File_RMV@@EAEXPAVScriptableGameObj@@@Z 10068890 f i Toolkit.obj
 0001:00067950       ?Custom@M00_Debug_Text_File_RMV@@EAEXPAVScriptableGameObj@@HH0@Z 10068950 f i Toolkit.obj
 0001:000679f0       ?Damaged@M00_Debug_Text_File_RMV@@EAEXPAVScriptableGameObj@@0M@Z 100689f0 f i Toolkit.obj
 0001:00067a90       ?Sound_Heard@M00_Debug_Text_File_RMV@@EAEXPAVScriptableGameObj@@ABVCombatSound@@@Z 10068a90 f i Toolkit.obj
 0001:00067ab0       ?Enemy_Seen@M00_Debug_Text_File_RMV@@EAEXPAVScriptableGameObj@@0@Z 10068ab0 f i Toolkit.obj
 0001:00067b50       ?Action_Complete@M00_Debug_Text_File_RMV@@EAEXPAVScriptableGameObj@@HW4ActionCompleteReason@@@Z 10068b50 f i Toolkit.obj
 0001:00067bf0       ?Reason_Lookup@M00_Debug_Text_File_RMV@@AAEPADW4ActionCompleteReason@@@Z 10068bf0 f i Toolkit.obj
 0001:00067c50       ?Killed@M00_Debug_Text_File_RMV@@EAEXPAVScriptableGameObj@@0@Z 10068c50 f i Toolkit.obj
 0001:00067cf0       ?Destroyed@M00_Debug_Text_File_RMV@@EAEXPAVScriptableGameObj@@@Z 10068cf0 f i Toolkit.obj
 0001:00067d20       ??_G?$ScriptRegistrant@VM00_Disable_Physical_Collision_JDG@@@@UAEPAXI@Z 10068d20 f i Toolkit.obj
 0001:00067d20       ??_E?$ScriptRegistrant@VM00_Disable_Physical_Collision_JDG@@@@UAEPAXI@Z 10068d20 f i Toolkit.obj
 0001:00067d70       ??0M00_Disable_Physical_Collision_JDG@@QAE@XZ 10068d70 f i Toolkit.obj
 0001:00067da0       ?Created@M00_Disable_Physical_Collision_JDG@@EAEXPAVScriptableGameObj@@@Z 10068da0 f i Toolkit.obj
 0001:00067dd0       ??_G?$ScriptRegistrant@VM00_Enable_Physical_Collision_JDG@@@@UAEPAXI@Z 10068dd0 f i Toolkit.obj
 0001:00067dd0       ??_E?$ScriptRegistrant@VM00_Enable_Physical_Collision_JDG@@@@UAEPAXI@Z 10068dd0 f i Toolkit.obj
 0001:00067e20       ??0M00_Enable_Physical_Collision_JDG@@QAE@XZ 10068e20 f i Toolkit.obj
 0001:00067e50       ?Created@M00_Enable_Physical_Collision_JDG@@EAEXPAVScriptableGameObj@@@Z 10068e50 f i Toolkit.obj
 0001:00067e80       ??_E?$ScriptRegistrant@VM00_C130_Explosion@@@@UAEPAXI@Z 10068e80 f i Toolkit.obj
 0001:00067e80       ??_G?$ScriptRegistrant@VM00_C130_Explosion@@@@UAEPAXI@Z 10068e80 f i Toolkit.obj
 0001:00067ed0       ??0M00_C130_Explosion@@QAE@XZ 10068ed0 f i Toolkit.obj
 0001:00067f00       ?Killed@M00_C130_Explosion@@EAEXPAVScriptableGameObj@@0@Z 10068f00 f i Toolkit.obj
 0001:00067f50       ??_E?$ScriptRegistrant@VM00_Monitor_Attached_Primary@@@@UAEPAXI@Z 10068f50 f i Toolkit.obj
 0001:00067f50       ??_G?$ScriptRegistrant@VM00_Monitor_Attached_Primary@@@@UAEPAXI@Z 10068f50 f i Toolkit.obj
 0001:00067fa0       ??0M00_Monitor_Attached_Primary@@QAE@XZ 10068fa0 f i Toolkit.obj
 0001:00067fd0       ?Register_Auto_Save_Variables@M00_Monitor_Attached_Primary@@UAEXXZ 10068fd0 f i Toolkit.obj
 0001:00068000       ?Created@M00_Monitor_Attached_Primary@@UAEXPAVScriptableGameObj@@@Z 10069000 f i Toolkit.obj
 0001:00068030       ?Custom@M00_Monitor_Attached_Primary@@UAEXPAVScriptableGameObj@@HH0@Z 10069030 f i Toolkit.obj
 0001:000680c0       ?Timer_Expired@M00_Monitor_Attached_Primary@@UAEXPAVScriptableGameObj@@H@Z 100690c0 f i Toolkit.obj
 0001:000680f0       ?Killed@M00_Monitor_Attached_Primary@@UAEXPAVScriptableGameObj@@0@Z 100690f0 f i Toolkit.obj
 0001:00068160       ??_E?$ScriptRegistrant@VM00_5MetalBarrels_ChainRxn_Controller_JDG@@@@UAEPAXI@Z 10069160 f i Toolkit.obj
 0001:00068160       ??_G?$ScriptRegistrant@VM00_5MetalBarrels_ChainRxn_Controller_JDG@@@@UAEPAXI@Z 10069160 f i Toolkit.obj
 0001:000681b0       ??0M00_5MetalBarrels_ChainRxn_Controller_JDG@@QAE@XZ 100691b0 f i Toolkit.obj
 0001:00068230       ?Register_Auto_Save_Variables@M00_5MetalBarrels_ChainRxn_Controller_JDG@@UAEXXZ 10069230 f i Toolkit.obj
 0001:00068440       ?Created@M00_5MetalBarrels_ChainRxn_Controller_JDG@@UAEXPAVScriptableGameObj@@@Z 10069440 f i Toolkit.obj
 0001:00068aa0       ?Custom@M00_5MetalBarrels_ChainRxn_Controller_JDG@@UAEXPAVScriptableGameObj@@HH0@Z 10069aa0 f i Toolkit.obj
 0001:00068f40       ??_E?$ScriptRegistrant@VM00_ChainRxn_Barrel_JDG@@@@UAEPAXI@Z 10069f40 f i Toolkit.obj
 0001:00068f40       ??_G?$ScriptRegistrant@VM00_ChainRxn_Barrel_JDG@@@@UAEPAXI@Z 10069f40 f i Toolkit.obj
 0001:00068f90       ??0M00_ChainRxn_Barrel_JDG@@QAE@XZ 10069f90 f i Toolkit.obj
 0001:00068fc0       ?Register_Auto_Save_Variables@M00_ChainRxn_Barrel_JDG@@UAEXXZ 10069fc0 f i Toolkit.obj
 0001:00069010       ?Created@M00_ChainRxn_Barrel_JDG@@UAEXPAVScriptableGameObj@@@Z 1006a010 f i Toolkit.obj
 0001:00069050       ?Damaged@M00_ChainRxn_Barrel_JDG@@UAEXPAVScriptableGameObj@@0M@Z 1006a050 f i Toolkit.obj
 0001:00069150       ?Custom@M00_ChainRxn_Barrel_JDG@@UAEXPAVScriptableGameObj@@HH0@Z 1006a150 f i Toolkit.obj
 0001:00069310       ??_G?$ScriptRegistrant@VM00_Advanced_Guard_Tower@@@@UAEPAXI@Z 1006a310 f i Toolkit.obj
 0001:00069310       ??_E?$ScriptRegistrant@VM00_Advanced_Guard_Tower@@@@UAEPAXI@Z 1006a310 f i Toolkit.obj
 0001:00069360       ??0M00_Advanced_Guard_Tower@@QAE@XZ 1006a360 f i Toolkit.obj
 0001:00069390       ?Register_Auto_Save_Variables@M00_Advanced_Guard_Tower@@UAEXXZ 1006a390 f i Toolkit.obj
 0001:00069440       ?Created@M00_Advanced_Guard_Tower@@UAEXPAVScriptableGameObj@@@Z 1006a440 f i Toolkit.obj
 0001:00069820       ?Killed@M00_Advanced_Guard_Tower@@UAEXPAVScriptableGameObj@@0@Z 1006a820 f i Toolkit.obj
 0001:00069960       ?Timer_Expired@M00_Advanced_Guard_Tower@@UAEXPAVScriptableGameObj@@H@Z 1006a960 f i Toolkit.obj
 0001:00069ce0       ?Custom@M00_Advanced_Guard_Tower@@UAEXPAVScriptableGameObj@@HH0@Z 1006ace0 f i Toolkit.obj
 0001:00069f00       ??_G?$ScriptRegistrant@VM00_Advanced_Guard_Tower_Gun@@@@UAEPAXI@Z 1006af00 f i Toolkit.obj
 0001:00069f00       ??_E?$ScriptRegistrant@VM00_Advanced_Guard_Tower_Gun@@@@UAEPAXI@Z 1006af00 f i Toolkit.obj
 0001:00069f50       ??0M00_Advanced_Guard_Tower_Gun@@QAE@XZ 1006af50 f i Toolkit.obj
 0001:00069f80       ?Register_Auto_Save_Variables@M00_Advanced_Guard_Tower_Gun@@UAEXXZ 1006af80 f i Toolkit.obj
 0001:00069fd0       ?Created@M00_Advanced_Guard_Tower_Gun@@UAEXPAVScriptableGameObj@@@Z 1006afd0 f i Toolkit.obj
 0001:0006a070       ?Enemy_Seen@M00_Advanced_Guard_Tower_Gun@@UAEXPAVScriptableGameObj@@0@Z 1006b070 f i Toolkit.obj
 0001:0006a220       ?Timer_Expired@M00_Advanced_Guard_Tower_Gun@@UAEXPAVScriptableGameObj@@H@Z 1006b220 f i Toolkit.obj
 0001:0006a260       ?Custom@M00_Advanced_Guard_Tower_Gun@@UAEXPAVScriptableGameObj@@HH0@Z 1006b260 f i Toolkit.obj
 0001:0006a310       ??_E?$ScriptRegistrant@VM00_Advanced_Guard_Tower_Missile@@@@UAEPAXI@Z 1006b310 f i Toolkit.obj
 0001:0006a310       ??_G?$ScriptRegistrant@VM00_Advanced_Guard_Tower_Missile@@@@UAEPAXI@Z 1006b310 f i Toolkit.obj
 0001:0006a360       ??0M00_Advanced_Guard_Tower_Missile@@QAE@XZ 1006b360 f i Toolkit.obj
 0001:0006a390       ?Created@M00_Advanced_Guard_Tower_Missile@@EAEXPAVScriptableGameObj@@@Z 1006b390 f i Toolkit.obj
 0001:0006a3f0       ?Custom@M00_Advanced_Guard_Tower_Missile@@EAEXPAVScriptableGameObj@@HH0@Z 1006b3f0 f i Toolkit.obj
 0001:0006a570       ?Timer_Expired@M00_Advanced_Guard_Tower_Missile@@EAEXPAVScriptableGameObj@@H@Z 1006b570 f i Toolkit.obj
 0001:0006a5c0       ??_G?$ScriptRegistrant@VM00_Purchase_Terminal_GDI@@@@UAEPAXI@Z 1006b5c0 f i Toolkit.obj
 0001:0006a5c0       ??_E?$ScriptRegistrant@VM00_Purchase_Terminal_GDI@@@@UAEPAXI@Z 1006b5c0 f i Toolkit.obj
 0001:0006a610       ??0M00_Purchase_Terminal_GDI@@QAE@XZ 1006b610 f i Toolkit.obj
 0001:0006a640       ?Poked@M00_Purchase_Terminal_GDI@@EAEXPAVScriptableGameObj@@0@Z 1006b640 f i Toolkit.obj
 0001:0006a670       ??_E?$ScriptRegistrant@VM00_Purchase_Terminal_NOD@@@@UAEPAXI@Z 1006b670 f i Toolkit.obj
 0001:0006a670       ??_G?$ScriptRegistrant@VM00_Purchase_Terminal_NOD@@@@UAEPAXI@Z 1006b670 f i Toolkit.obj
 0001:0006a6c0       ??0M00_Purchase_Terminal_NOD@@QAE@XZ 1006b6c0 f i Toolkit.obj
 0001:0006a6f0       ?Poked@M00_Purchase_Terminal_NOD@@EAEXPAVScriptableGameObj@@0@Z 1006b6f0 f i Toolkit.obj
 0001:0006a720       ??_G?$ScriptRegistrant@VM00_Purchase_Terminal_Mutant@@@@UAEPAXI@Z 1006b720 f i Toolkit.obj
 0001:0006a720       ??_E?$ScriptRegistrant@VM00_Purchase_Terminal_Mutant@@@@UAEPAXI@Z 1006b720 f i Toolkit.obj
 0001:0006a770       ??0M00_Purchase_Terminal_Mutant@@QAE@XZ 1006b770 f i Toolkit.obj
 0001:0006a7a0       ?Poked@M00_Purchase_Terminal_Mutant@@EAEXPAVScriptableGameObj@@0@Z 1006b7a0 f i Toolkit.obj
 0001:0006a7d0       ??_G?$ScriptRegistrant@VM00_Nod_Turret@@@@UAEPAXI@Z 1006b7d0 f i Toolkit.obj
 0001:0006a7d0       ??_E?$ScriptRegistrant@VM00_Nod_Turret@@@@UAEPAXI@Z 1006b7d0 f i Toolkit.obj
 0001:0006a820       ??0M00_Nod_Turret@@QAE@XZ  1006b820 f i Toolkit.obj
 0001:0006a850       ?Register_Auto_Save_Variables@M00_Nod_Turret@@UAEXXZ 1006b850 f i Toolkit.obj
 0001:0006a8b0       ?Created@M00_Nod_Turret@@UAEXPAVScriptableGameObj@@@Z 1006b8b0 f i Toolkit.obj
 0001:0006aad0       ?Timer_Expired@M00_Nod_Turret@@UAEXPAVScriptableGameObj@@H@Z 1006bad0 f i Toolkit.obj
 0001:0006ad30       ?Enemy_Seen@M00_Nod_Turret@@UAEXPAVScriptableGameObj@@0@Z 1006bd30 f i Toolkit.obj
 0001:0006ae20       ?Killed@M00_Nod_Turret@@UAEXPAVScriptableGameObj@@0@Z 1006be20 f i Toolkit.obj
 0001:0006aeb0       ?Action_Complete@M00_Nod_Turret@@UAEXPAVScriptableGameObj@@HW4ActionCompleteReason@@@Z 1006beb0 f i Toolkit.obj
 0001:0006aef0       ??_G?$ScriptRegistrant@VM00_Nod_Obelisk_CNC@@@@UAEPAXI@Z 1006bef0 f i Toolkit.obj
 0001:0006aef0       ??_E?$ScriptRegistrant@VM00_Nod_Obelisk_CNC@@@@UAEPAXI@Z 1006bef0 f i Toolkit.obj
 0001:0006af40       ??0M00_Nod_Obelisk_CNC@@QAE@XZ 1006bf40 f i Toolkit.obj
 0001:0006af70       ?Register_Auto_Save_Variables@M00_Nod_Obelisk_CNC@@UAEXXZ 1006bf70 f i Toolkit.obj
 0001:0006afa0       ?Created@M00_Nod_Obelisk_CNC@@UAEXPAVScriptableGameObj@@@Z 1006bfa0 f i Toolkit.obj
 0001:0006b0e0       ?Killed@M00_Nod_Obelisk_CNC@@UAEXPAVScriptableGameObj@@0@Z 1006c0e0 f i Toolkit.obj
 0001:0006b150       ?Timer_Expired@M00_Nod_Obelisk_CNC@@UAEXPAVScriptableGameObj@@H@Z 1006c150 f i Toolkit.obj
 0001:0006b2a0       ?Custom@M00_Nod_Obelisk_CNC@@UAEXPAVScriptableGameObj@@HH0@Z 1006c2a0 f i Toolkit.obj
 0001:0006b300       ??_G?$ScriptRegistrant@VM00_Obelisk_Weapon_CNC@@@@UAEPAXI@Z 1006c300 f i Toolkit.obj
 0001:0006b300       ??_E?$ScriptRegistrant@VM00_Obelisk_Weapon_CNC@@@@UAEPAXI@Z 1006c300 f i Toolkit.obj
 0001:0006b350       ??0M00_Obelisk_Weapon_CNC@@QAE@XZ 1006c350 f i Toolkit.obj
 0001:0006b380       ?Register_Auto_Save_Variables@M00_Obelisk_Weapon_CNC@@UAEXXZ 1006c380 f i Toolkit.obj
 0001:0006b410       ?Created@M00_Obelisk_Weapon_CNC@@UAEXPAVScriptableGameObj@@@Z 1006c410 f i Toolkit.obj
 0001:0006b570       ?Enemy_Seen@M00_Obelisk_Weapon_CNC@@UAEXPAVScriptableGameObj@@0@Z 1006c570 f i Toolkit.obj
 0001:0006b5e0       ?Custom@M00_Obelisk_Weapon_CNC@@UAEXPAVScriptableGameObj@@HH0@Z 1006c5e0 f i Toolkit.obj
 0001:0006b970       ?Timer_Expired@M00_Obelisk_Weapon_CNC@@UAEXPAVScriptableGameObj@@H@Z 1006c970 f i Toolkit.obj
 0001:0006bbc0       ?Destroy_Obelisk_Effect@M00_Obelisk_Weapon_CNC@@QAEXXZ 1006cbc0 f i Toolkit.obj
 0001:0006bc30       ??_E?$ScriptRegistrant@VM00_Nod_Obelisk@@@@UAEPAXI@Z 1006cc30 f i Toolkit.obj
 0001:0006bc30       ??_G?$ScriptRegistrant@VM00_Nod_Obelisk@@@@UAEPAXI@Z 1006cc30 f i Toolkit.obj
 0001:0006bc80       ??0M00_Nod_Obelisk@@QAE@XZ 1006cc80 f i Toolkit.obj
 0001:0006bcb0       ?Register_Auto_Save_Variables@M00_Nod_Obelisk@@UAEXXZ 1006ccb0 f i Toolkit.obj
 0001:0006bce0       ?Created@M00_Nod_Obelisk@@UAEXPAVScriptableGameObj@@@Z 1006cce0 f i Toolkit.obj
 0001:0006be30       ?Timer_Expired@M00_Nod_Obelisk@@UAEXPAVScriptableGameObj@@H@Z 1006ce30 f i Toolkit.obj
 0001:0006bf80       ?Custom@M00_Nod_Obelisk@@UAEXPAVScriptableGameObj@@HH0@Z 1006cf80 f i Toolkit.obj
 0001:0006bfe0       ??_E?$ScriptRegistrant@VM00_Obelisk_Weapon@@@@UAEPAXI@Z 1006cfe0 f i Toolkit.obj
 0001:0006bfe0       ??_G?$ScriptRegistrant@VM00_Obelisk_Weapon@@@@UAEPAXI@Z 1006cfe0 f i Toolkit.obj
 0001:0006c030       ??0M00_Obelisk_Weapon@@QAE@XZ 1006d030 f i Toolkit.obj
 0001:0006c060       ?Register_Auto_Save_Variables@M00_Obelisk_Weapon@@UAEXXZ 1006d060 f i Toolkit.obj
 0001:0006c0c0       ?Created@M00_Obelisk_Weapon@@UAEXPAVScriptableGameObj@@@Z 1006d0c0 f i Toolkit.obj
 0001:0006c200       ?Enemy_Seen@M00_Obelisk_Weapon@@UAEXPAVScriptableGameObj@@0@Z 1006d200 f i Toolkit.obj
 0001:0006c260       ?Custom@M00_Obelisk_Weapon@@UAEXPAVScriptableGameObj@@HH0@Z 1006d260 f i Toolkit.obj
 0001:0006c5b0       ?Timer_Expired@M00_Obelisk_Weapon@@UAEXPAVScriptableGameObj@@H@Z 1006d5b0 f i Toolkit.obj
 0001:0006c7f0       ?Destroy_Obelisk_Effect@M00_Obelisk_Weapon@@QAEXXZ 1006d7f0 f i Toolkit.obj
 0001:0006c860       ??_G?$ScriptRegistrant@VM00_Select_Empty_Hands@@@@UAEPAXI@Z 1006d860 f i Toolkit.obj
 0001:0006c860       ??_E?$ScriptRegistrant@VM00_Select_Empty_Hands@@@@UAEPAXI@Z 1006d860 f i Toolkit.obj
 0001:0006c8b0       ??0M00_Select_Empty_Hands@@QAE@XZ 1006d8b0 f i Toolkit.obj
 0001:0006c8e0       ?Created@M00_Select_Empty_Hands@@EAEXPAVScriptableGameObj@@@Z 1006d8e0 f i Toolkit.obj
 0001:0006c940       ?Custom@M00_Select_Empty_Hands@@EAEXPAVScriptableGameObj@@HH0@Z 1006d940 f i Toolkit.obj
 0001:0006c980       ??_G?$ScriptRegistrant@VM00_ArmorMedal_TextMessage_JDG@@@@UAEPAXI@Z 1006d980 f i Toolkit.obj
 0001:0006c980       ??_E?$ScriptRegistrant@VM00_ArmorMedal_TextMessage_JDG@@@@UAEPAXI@Z 1006d980 f i Toolkit.obj
 0001:0006c9d0       ??0M00_ArmorMedal_TextMessage_JDG@@QAE@XZ 1006d9d0 f i Toolkit.obj
 0001:0006ca00       ?Custom@M00_ArmorMedal_TextMessage_JDG@@EAEXPAVScriptableGameObj@@HH0@Z 1006da00 f i Toolkit.obj
 0001:0006ca60       ??_E?$ScriptRegistrant@VM00_HealthMedal_TextMessage_JDG@@@@UAEPAXI@Z 1006da60 f i Toolkit.obj
 0001:0006ca60       ??_G?$ScriptRegistrant@VM00_HealthMedal_TextMessage_JDG@@@@UAEPAXI@Z 1006da60 f i Toolkit.obj
 0001:0006cab0       ??0M00_HealthMedal_TextMessage_JDG@@QAE@XZ 1006dab0 f i Toolkit.obj
 0001:0006cae0       ?Custom@M00_HealthMedal_TextMessage_JDG@@EAEXPAVScriptableGameObj@@HH0@Z 1006dae0 f i Toolkit.obj
 0001:0006cb40       ??_E?$ScriptRegistrant@VM00_Change_L3Mutant_RadarMarker_JDG@@@@UAEPAXI@Z 1006db40 f i Toolkit.obj
 0001:0006cb40       ??_G?$ScriptRegistrant@VM00_Change_L3Mutant_RadarMarker_JDG@@@@UAEPAXI@Z 1006db40 f i Toolkit.obj
 0001:0006cb90       ??0M00_Change_L3Mutant_RadarMarker_JDG@@QAE@XZ 1006db90 f i Toolkit.obj
 0001:0006cbc0       ?Created@M00_Change_L3Mutant_RadarMarker_JDG@@EAEXPAVScriptableGameObj@@@Z 1006dbc0 f i Toolkit.obj
 0001:0006cc00       ??_E?$ScriptRegistrant@VM00_SSM_DLS@@@@UAEPAXI@Z 1006dc00 f i Toolkit.obj
 0001:0006cc00       ??_G?$ScriptRegistrant@VM00_SSM_DLS@@@@UAEPAXI@Z 1006dc00 f i Toolkit.obj
 0001:0006cc50       ??0M00_SSM_DLS@@QAE@XZ     1006dc50 f i Toolkit.obj
 0001:0006cc80       ?Register_Auto_Save_Variables@M00_SSM_DLS@@UAEXXZ 1006dc80 f i Toolkit.obj
 0001:0006ccd0       ?Created@M00_SSM_DLS@@UAEXPAVScriptableGameObj@@@Z 1006dcd0 f i Toolkit.obj
 0001:0006cd80       ?Custom@M00_SSM_DLS@@UAEXPAVScriptableGameObj@@HH0@Z 1006dd80 f i Toolkit.obj
 0001:0006ce40       ?Timer_Expired@M00_SSM_DLS@@UAEXPAVScriptableGameObj@@H@Z 1006de40 f i Toolkit.obj
 0001:0006ce70       ?Killed@M00_SSM_DLS@@UAEXPAVScriptableGameObj@@0@Z 1006de70 f i Toolkit.obj
 0001:0006ced0       ??_G?$ScriptRegistrant@VM00_Generic_Conv_DME@@@@UAEPAXI@Z 1006ded0 f i Toolkit.obj
 0001:0006ced0       ??_E?$ScriptRegistrant@VM00_Generic_Conv_DME@@@@UAEPAXI@Z 1006ded0 f i Toolkit.obj
 0001:0006cf20       ??0M00_Generic_Conv_DME@@QAE@XZ 1006df20 f i Toolkit.obj
 0001:0006cf50       ?Created@M00_Generic_Conv_DME@@EAEXPAVScriptableGameObj@@@Z 1006df50 f i Toolkit.obj
 0001:0006d000       ??_E?$ScriptRegistrant@VM00_Damage_Modifier_DME@@@@UAEPAXI@Z 1006e000 f i Toolkit.obj
 0001:0006d000       ??_G?$ScriptRegistrant@VM00_Damage_Modifier_DME@@@@UAEPAXI@Z 1006e000 f i Toolkit.obj
 0001:0006d050       ??0M00_Damage_Modifier_DME@@QAE@XZ 1006e050 f i Toolkit.obj
 0001:0006d080       ?Register_Auto_Save_Variables@M00_Damage_Modifier_DME@@UAEXXZ 1006e080 f i Toolkit.obj
 0001:0006d160       ?Created@M00_Damage_Modifier_DME@@UAEXPAVScriptableGameObj@@@Z 1006e160 f i Toolkit.obj
 0001:0006d210       ?Custom@M00_Damage_Modifier_DME@@UAEXPAVScriptableGameObj@@HH0@Z 1006e210 f i Toolkit.obj
 0001:0006d260       ?Damaged@M00_Damage_Modifier_DME@@UAEXPAVScriptableGameObj@@0M@Z 1006e260 f i Toolkit.obj
 0001:0006d6a0       ??_E?$ScriptRegistrant@VM00_Base_Defense@@@@UAEPAXI@Z 1006e6a0 f i Toolkit.obj
 0001:0006d6a0       ??_G?$ScriptRegistrant@VM00_Base_Defense@@@@UAEPAXI@Z 1006e6a0 f i Toolkit.obj
 0001:0006d6f0       ??0M00_Base_Defense@@QAE@XZ 1006e6f0 f i Toolkit.obj
 0001:0006d720       ?Register_Auto_Save_Variables@M00_Base_Defense@@UAEXXZ 1006e720 f i Toolkit.obj
 0001:0006d7a0       ?Created@M00_Base_Defense@@UAEXPAVScriptableGameObj@@@Z 1006e7a0 f i Toolkit.obj
 0001:0006d9f0       ?Timer_Expired@M00_Base_Defense@@UAEXPAVScriptableGameObj@@H@Z 1006e9f0 f i Toolkit.obj
 0001:0006dc50       ?Enemy_Seen@M00_Base_Defense@@UAEXPAVScriptableGameObj@@0@Z 1006ec50 f i Toolkit.obj
 0001:0006dde0       ?Action_Complete@M00_Base_Defense@@UAEXPAVScriptableGameObj@@HW4ActionCompleteReason@@@Z 1006ede0 f i Toolkit.obj
 0001:0006de20       ?Exited@M00_Base_Defense@@UAEXPAVScriptableGameObj@@0@Z 1006ee20 f i Toolkit.obj
 0001:0006de70       ??_GM00_Debug_Text_File_RMV@@UAEPAXI@Z 1006ee70 f i Toolkit.obj
 0001:0006de70       ??_EM00_Debug_Text_File_RMV@@UAEPAXI@Z 1006ee70 f i Toolkit.obj
 0001:0006dec0       ??_GM00_Disable_Physical_Collision_JDG@@UAEPAXI@Z 1006eec0 f i Toolkit.obj
 0001:0006dec0       ??_EM00_Disable_Physical_Collision_JDG@@UAEPAXI@Z 1006eec0 f i Toolkit.obj
 0001:0006df10       ??_EM00_Enable_Physical_Collision_JDG@@UAEPAXI@Z 1006ef10 f i Toolkit.obj
 0001:0006df10       ??_GM00_Enable_Physical_Collision_JDG@@UAEPAXI@Z 1006ef10 f i Toolkit.obj
 0001:0006df60       ??_GM00_C130_Explosion@@UAEPAXI@Z 1006ef60 f i Toolkit.obj
 0001:0006df60       ??_EM00_C130_Explosion@@UAEPAXI@Z 1006ef60 f i Toolkit.obj
 0001:0006dfb0       ??_GM00_Monitor_Attached_Primary@@UAEPAXI@Z 1006efb0 f i Toolkit.obj
 0001:0006dfb0       ??_EM00_Monitor_Attached_Primary@@UAEPAXI@Z 1006efb0 f i Toolkit.obj
 0001:0006e000       ??_GM00_5MetalBarrels_ChainRxn_Controller_JDG@@UAEPAXI@Z 1006f000 f i Toolkit.obj
 0001:0006e000       ??_EM00_5MetalBarrels_ChainRxn_Controller_JDG@@UAEPAXI@Z 1006f000 f i Toolkit.obj
 0001:0006e050       ??_GM00_ChainRxn_Barrel_JDG@@UAEPAXI@Z 1006f050 f i Toolkit.obj
 0001:0006e050       ??_EM00_ChainRxn_Barrel_JDG@@UAEPAXI@Z 1006f050 f i Toolkit.obj
 0001:0006e0a0       ??_EM00_Advanced_Guard_Tower@@UAEPAXI@Z 1006f0a0 f i Toolkit.obj
 0001:0006e0a0       ??_GM00_Advanced_Guard_Tower@@UAEPAXI@Z 1006f0a0 f i Toolkit.obj
 0001:0006e0f0       ??_EM00_Advanced_Guard_Tower_Gun@@UAEPAXI@Z 1006f0f0 f i Toolkit.obj
 0001:0006e0f0       ??_GM00_Advanced_Guard_Tower_Gun@@UAEPAXI@Z 1006f0f0 f i Toolkit.obj
 0001:0006e140       ??_EM00_Advanced_Guard_Tower_Missile@@UAEPAXI@Z 1006f140 f i Toolkit.obj
 0001:0006e140       ??_GM00_Advanced_Guard_Tower_Missile@@UAEPAXI@Z 1006f140 f i Toolkit.obj
 0001:0006e190       ??_GM00_Purchase_Terminal_GDI@@UAEPAXI@Z 1006f190 f i Toolkit.obj
 0001:0006e190       ??_EM00_Purchase_Terminal_GDI@@UAEPAXI@Z 1006f190 f i Toolkit.obj
 0001:0006e1e0       ??_EM00_Purchase_Terminal_NOD@@UAEPAXI@Z 1006f1e0 f i Toolkit.obj
 0001:0006e1e0       ??_GM00_Purchase_Terminal_NOD@@UAEPAXI@Z 1006f1e0 f i Toolkit.obj
 0001:0006e230       ??_EM00_Purchase_Terminal_Mutant@@UAEPAXI@Z 1006f230 f i Toolkit.obj
 0001:0006e230       ??_GM00_Purchase_Terminal_Mutant@@UAEPAXI@Z 1006f230 f i Toolkit.obj
 0001:0006e280       ??_EM00_Nod_Turret@@UAEPAXI@Z 1006f280 f i Toolkit.obj
 0001:0006e280       ??_GM00_Nod_Turret@@UAEPAXI@Z 1006f280 f i Toolkit.obj
 0001:0006e2d0       ??_GM00_Nod_Obelisk_CNC@@UAEPAXI@Z 1006f2d0 f i Toolkit.obj
 0001:0006e2d0       ??_EM00_Nod_Obelisk_CNC@@UAEPAXI@Z 1006f2d0 f i Toolkit.obj
 0001:0006e320       ??_GM00_Obelisk_Weapon_CNC@@UAEPAXI@Z 1006f320 f i Toolkit.obj
 0001:0006e320       ??_EM00_Obelisk_Weapon_CNC@@UAEPAXI@Z 1006f320 f i Toolkit.obj
 0001:0006e370       ??_EM00_Nod_Obelisk@@UAEPAXI@Z 1006f370 f i Toolkit.obj
 0001:0006e370       ??_GM00_Nod_Obelisk@@UAEPAXI@Z 1006f370 f i Toolkit.obj
 0001:0006e3c0       ??_EM00_Obelisk_Weapon@@UAEPAXI@Z 1006f3c0 f i Toolkit.obj
 0001:0006e3c0       ??_GM00_Obelisk_Weapon@@UAEPAXI@Z 1006f3c0 f i Toolkit.obj
 0001:0006e410       ??_EM00_Select_Empty_Hands@@UAEPAXI@Z 1006f410 f i Toolkit.obj
 0001:0006e410       ??_GM00_Select_Empty_Hands@@UAEPAXI@Z 1006f410 f i Toolkit.obj
 0001:0006e460       ??_GM00_ArmorMedal_TextMessage_JDG@@UAEPAXI@Z 1006f460 f i Toolkit.obj
 0001:0006e460       ??_EM00_ArmorMedal_TextMessage_JDG@@UAEPAXI@Z 1006f460 f i Toolkit.obj
 0001:0006e4b0       ??_GM00_HealthMedal_TextMessage_JDG@@UAEPAXI@Z 1006f4b0 f i Toolkit.obj
 0001:0006e4b0       ??_EM00_HealthMedal_TextMessage_JDG@@UAEPAXI@Z 1006f4b0 f i Toolkit.obj
 0001:0006e500       ??_EM00_Change_L3Mutant_RadarMarker_JDG@@UAEPAXI@Z 1006f500 f i Toolkit.obj
 0001:0006e500       ??_GM00_Change_L3Mutant_RadarMarker_JDG@@UAEPAXI@Z 1006f500 f i Toolkit.obj
 0001:0006e550       ??_EM00_SSM_DLS@@UAEPAXI@Z 1006f550 f i Toolkit.obj
 0001:0006e550       ??_GM00_SSM_DLS@@UAEPAXI@Z 1006f550 f i Toolkit.obj
 0001:0006e5a0       ??_GM00_Generic_Conv_DME@@UAEPAXI@Z 1006f5a0 f i Toolkit.obj
 0001:0006e5a0       ??_EM00_Generic_Conv_DME@@UAEPAXI@Z 1006f5a0 f i Toolkit.obj
 0001:0006e5f0       ??_GM00_Damage_Modifier_DME@@UAEPAXI@Z 1006f5f0 f i Toolkit.obj
 0001:0006e5f0       ??_EM00_Damage_Modifier_DME@@UAEPAXI@Z 1006f5f0 f i Toolkit.obj
 0001:0006e640       ??_EM00_Base_Defense@@UAEPAXI@Z 1006f640 f i Toolkit.obj
 0001:0006e640       ??_GM00_Base_Defense@@UAEPAXI@Z 1006f640 f i Toolkit.obj
 0001:0006e690       ??1M00_Debug_Text_File_RMV@@UAE@XZ 1006f690 f i Toolkit.obj
 0001:0006e6c0       ??1M00_Disable_Physical_Collision_JDG@@UAE@XZ 1006f6c0 f i Toolkit.obj
 0001:0006e6f0       ??1M00_Enable_Physical_Collision_JDG@@UAE@XZ 1006f6f0 f i Toolkit.obj
 0001:0006e720       ??1M00_C130_Explosion@@UAE@XZ 1006f720 f i Toolkit.obj
 0001:0006e750       ??1M00_Monitor_Attached_Primary@@UAE@XZ 1006f750 f i Toolkit.obj
 0001:0006e780       ??1M00_5MetalBarrels_ChainRxn_Controller_JDG@@UAE@XZ 1006f780 f i Toolkit.obj
 0001:0006e7b0       ??1M00_ChainRxn_Barrel_JDG@@UAE@XZ 1006f7b0 f i Toolkit.obj
 0001:0006e7e0       ??1M00_Advanced_Guard_Tower@@UAE@XZ 1006f7e0 f i Toolkit.obj
 0001:0006e810       ??1M00_Advanced_Guard_Tower_Gun@@UAE@XZ 1006f810 f i Toolkit.obj
 0001:0006e840       ??1M00_Advanced_Guard_Tower_Missile@@UAE@XZ 1006f840 f i Toolkit.obj
 0001:0006e870       ??1M00_Purchase_Terminal_GDI@@UAE@XZ 1006f870 f i Toolkit.obj
 0001:0006e8a0       ??1M00_Purchase_Terminal_NOD@@UAE@XZ 1006f8a0 f i Toolkit.obj
 0001:0006e8d0       ??1M00_Purchase_Terminal_Mutant@@UAE@XZ 1006f8d0 f i Toolkit.obj
 0001:0006e900       ??1M00_Nod_Turret@@UAE@XZ  1006f900 f i Toolkit.obj
 0001:0006e930       ??1M00_Nod_Obelisk_CNC@@UAE@XZ 1006f930 f i Toolkit.obj
 0001:0006e960       ??1M00_Obelisk_Weapon_CNC@@UAE@XZ 1006f960 f i Toolkit.obj
 0001:0006e990       ??1M00_Nod_Obelisk@@UAE@XZ 1006f990 f i Toolkit.obj
 0001:0006e9c0       ??1M00_Obelisk_Weapon@@UAE@XZ 1006f9c0 f i Toolkit.obj
 0001:0006e9f0       ??1M00_Select_Empty_Hands@@UAE@XZ 1006f9f0 f i Toolkit.obj
 0001:0006ea20       ??1M00_ArmorMedal_TextMessage_JDG@@UAE@XZ 1006fa20 f i Toolkit.obj
 0001:0006ea50       ??1M00_HealthMedal_TextMessage_JDG@@UAE@XZ 1006fa50 f i Toolkit.obj
 0001:0006ea80       ??1M00_Change_L3Mutant_RadarMarker_JDG@@UAE@XZ 1006fa80 f i Toolkit.obj
 0001:0006eab0       ??1M00_SSM_DLS@@UAE@XZ     1006fab0 f i Toolkit.obj
 0001:0006eae0       ??1M00_Generic_Conv_DME@@UAE@XZ 1006fae0 f i Toolkit.obj
 0001:0006eb10       ??1M00_Damage_Modifier_DME@@UAE@XZ 1006fb10 f i Toolkit.obj
 0001:0006eb40       ??1M00_Base_Defense@@UAE@XZ 1006fb40 f i Toolkit.obj
 0001:0006ec10       ??1?$ScriptRegistrant@VM00_Action@@@@UAE@XZ 1006fc10 f i Toolkit_Actions.obj
 0001:0006ece0       ??1?$ScriptRegistrant@VM00_Action_Set_Home_Location@@@@UAE@XZ 1006fce0 f i Toolkit_Actions.obj
 0001:0006edb0       ??1?$ScriptRegistrant@VM00_Action_Innate_Follow_Waypath@@@@UAE@XZ 1006fdb0 f i Toolkit_Actions.obj
 0001:0006ee80       ??1?$ScriptRegistrant@VM00_Action_Innate_Follow_Player@@@@UAE@XZ 1006fe80 f i Toolkit_Actions.obj
 0001:0006eeb0       ??0?$ScriptRegistrant@VM00_Action@@@@QAE@PBD0@Z 1006feb0 f i Toolkit_Actions.obj
 0001:0006eef0       ?Create@?$ScriptRegistrant@VM00_Action@@@@UAEPAVScriptImpClass@@XZ 1006fef0 f i Toolkit_Actions.obj
 0001:0006ef90       ??0?$ScriptRegistrant@VM00_Action_Set_Home_Location@@@@QAE@PBD0@Z 1006ff90 f i Toolkit_Actions.obj
 0001:0006efd0       ?Create@?$ScriptRegistrant@VM00_Action_Set_Home_Location@@@@UAEPAVScriptImpClass@@XZ 1006ffd0 f i Toolkit_Actions.obj
 0001:0006f070       ??0?$ScriptRegistrant@VM00_Action_Innate_Follow_Waypath@@@@QAE@PBD0@Z 10070070 f i Toolkit_Actions.obj
 0001:0006f0b0       ?Create@?$ScriptRegistrant@VM00_Action_Innate_Follow_Waypath@@@@UAEPAVScriptImpClass@@XZ 100700b0 f i Toolkit_Actions.obj
 0001:0006f150       ??0?$ScriptRegistrant@VM00_Action_Innate_Follow_Player@@@@QAE@PBD0@Z 10070150 f i Toolkit_Actions.obj
 0001:0006f190       ?Create@?$ScriptRegistrant@VM00_Action_Innate_Follow_Player@@@@UAEPAVScriptImpClass@@XZ 10070190 f i Toolkit_Actions.obj
 0001:0006f230       ??_E?$ScriptRegistrant@VM00_Action@@@@UAEPAXI@Z 10070230 f i Toolkit_Actions.obj
 0001:0006f230       ??_G?$ScriptRegistrant@VM00_Action@@@@UAEPAXI@Z 10070230 f i Toolkit_Actions.obj
 0001:0006f280       ??0M00_Action@@QAE@XZ      10070280 f i Toolkit_Actions.obj
 0001:0006f2f0       ?Created@M00_Action@@EAEXPAVScriptableGameObj@@@Z 100702f0 f i Toolkit_Actions.obj
 0001:0006f7b0       ?Custom@M00_Action@@EAEXPAVScriptableGameObj@@HH0@Z 100707b0 f i Toolkit_Actions.obj
 0001:0006fc30       ?Action_Complete@M00_Action@@EAEXPAVScriptableGameObj@@HW4ActionCompleteReason@@@Z 10070c30 f i Toolkit_Actions.obj
 0001:0006fc80       ??_E?$ScriptRegistrant@VM00_Action_Set_Home_Location@@@@UAEPAXI@Z 10070c80 f i Toolkit_Actions.obj
 0001:0006fc80       ??_G?$ScriptRegistrant@VM00_Action_Set_Home_Location@@@@UAEPAXI@Z 10070c80 f i Toolkit_Actions.obj
 0001:0006fcd0       ??0M00_Action_Set_Home_Location@@QAE@XZ 10070cd0 f i Toolkit_Actions.obj
 0001:0006fd00       ?Created@M00_Action_Set_Home_Location@@EAEXPAVScriptableGameObj@@@Z 10070d00 f i Toolkit_Actions.obj
 0001:0006fd40       ?Custom@M00_Action_Set_Home_Location@@EAEXPAVScriptableGameObj@@HH0@Z 10070d40 f i Toolkit_Actions.obj
 0001:0006fda0       ?Set_Innate_Position@M00_Action_Set_Home_Location@@AAEXPAVScriptableGameObj@@@Z 10070da0 f i Toolkit_Actions.obj
 0001:0006fe00       ??_G?$ScriptRegistrant@VM00_Action_Innate_Follow_Waypath@@@@UAEPAXI@Z 10070e00 f i Toolkit_Actions.obj
 0001:0006fe00       ??_E?$ScriptRegistrant@VM00_Action_Innate_Follow_Waypath@@@@UAEPAXI@Z 10070e00 f i Toolkit_Actions.obj
 0001:0006fe50       ??0M00_Action_Innate_Follow_Waypath@@QAE@XZ 10070e50 f i Toolkit_Actions.obj
 0001:0006fe80       ?Created@M00_Action_Innate_Follow_Waypath@@EAEXPAVScriptableGameObj@@@Z 10070e80 f i Toolkit_Actions.obj
 0001:0006feb0       ?Action_Complete@M00_Action_Innate_Follow_Waypath@@EAEXPAVScriptableGameObj@@HW4ActionCompleteReason@@@Z 10070eb0 f i Toolkit_Actions.obj
 0001:0006fed0       ?Timer_Expired@M00_Action_Innate_Follow_Waypath@@EAEXPAVScriptableGameObj@@H@Z 10070ed0 f i Toolkit_Actions.obj
 0001:0006ff00       ?Perform_Action@M00_Action_Innate_Follow_Waypath@@AAEXPAVScriptableGameObj@@@Z 10070f00 f i Toolkit_Actions.obj
 0001:0006ff20       ??_E?$ScriptRegistrant@VM00_Action_Innate_Follow_Player@@@@UAEPAXI@Z 10070f20 f i Toolkit_Actions.obj
 0001:0006ff20       ??_G?$ScriptRegistrant@VM00_Action_Innate_Follow_Player@@@@UAEPAXI@Z 10070f20 f i Toolkit_Actions.obj
 0001:0006ff70       ??0M00_Action_Innate_Follow_Player@@QAE@XZ 10070f70 f i Toolkit_Actions.obj
 0001:0006ffa0       ?Created@M00_Action_Innate_Follow_Player@@EAEXPAVScriptableGameObj@@@Z 10070fa0 f i Toolkit_Actions.obj
 0001:0006ffe0       ?Timer_Expired@M00_Action_Innate_Follow_Player@@EAEXPAVScriptableGameObj@@H@Z 10070fe0 f i Toolkit_Actions.obj
 0001:000700f0       ??_GM00_Action@@UAEPAXI@Z  100710f0 f i Toolkit_Actions.obj
 0001:000700f0       ??_EM00_Action@@UAEPAXI@Z  100710f0 f i Toolkit_Actions.obj
 0001:00070140       ??_GM00_Action_Set_Home_Location@@UAEPAXI@Z 10071140 f i Toolkit_Actions.obj
 0001:00070140       ??_EM00_Action_Set_Home_Location@@UAEPAXI@Z 10071140 f i Toolkit_Actions.obj
 0001:00070190       ??_GM00_Action_Innate_Follow_Waypath@@UAEPAXI@Z 10071190 f i Toolkit_Actions.obj
 0001:00070190       ??_EM00_Action_Innate_Follow_Waypath@@UAEPAXI@Z 10071190 f i Toolkit_Actions.obj
 0001:000701e0       ??_GM00_Action_Innate_Follow_Player@@UAEPAXI@Z 100711e0 f i Toolkit_Actions.obj
 0001:000701e0       ??_EM00_Action_Innate_Follow_Player@@UAEPAXI@Z 100711e0 f i Toolkit_Actions.obj
 0001:00070230       ??1M00_Action@@UAE@XZ      10071230 f i Toolkit_Actions.obj
 0001:00070260       ??1M00_Action_Set_Home_Location@@UAE@XZ 10071260 f i Toolkit_Actions.obj
 0001:00070290       ??1M00_Action_Innate_Follow_Waypath@@UAE@XZ 10071290 f i Toolkit_Actions.obj
 0001:000702c0       ??1M00_Action_Innate_Follow_Player@@UAE@XZ 100712c0 f i Toolkit_Actions.obj
 0001:000702f0       ??9@YA_NABVVector3@@0@Z    100712f0 f i Toolkit_Actions.obj
 0001:00070360       ?M00_Controller_Animation_RMV@@YAXPAVScriptableGameObj@@PAVGameObjObserverClass@@PBD_NHHH22@Z 10071360 f   Toolkit_Animations.obj
 0001:000704e0       ??1?$ScriptRegistrant@VM00_Animation_Play_RMV@@@@UAE@XZ 100714e0 f i Toolkit_Animations.obj
 0001:000705b0       ??1?$ScriptRegistrant@VM00_Animation_Play_Drop_Object_RMV@@@@UAE@XZ 100715b0 f i Toolkit_Animations.obj
 0001:00070680       ??1?$ScriptRegistrant@VM00_Animation_Play_Drop_Object_Attach_Script_RMV@@@@UAE@XZ 10071680 f i Toolkit_Animations.obj
 0001:000706b0       ??0?$ScriptRegistrant@VM00_Animation_Play_RMV@@@@QAE@PBD0@Z 100716b0 f i Toolkit_Animations.obj
 0001:000706f0       ?Create@?$ScriptRegistrant@VM00_Animation_Play_RMV@@@@UAEPAVScriptImpClass@@XZ 100716f0 f i Toolkit_Animations.obj
 0001:00070790       ??0?$ScriptRegistrant@VM00_Animation_Play_Drop_Object_RMV@@@@QAE@PBD0@Z 10071790 f i Toolkit_Animations.obj
 0001:000707d0       ?Create@?$ScriptRegistrant@VM00_Animation_Play_Drop_Object_RMV@@@@UAEPAVScriptImpClass@@XZ 100717d0 f i Toolkit_Animations.obj
 0001:00070870       ??0?$ScriptRegistrant@VM00_Animation_Play_Drop_Object_Attach_Script_RMV@@@@QAE@PBD0@Z 10071870 f i Toolkit_Animations.obj
 0001:000708b0       ?Create@?$ScriptRegistrant@VM00_Animation_Play_Drop_Object_Attach_Script_RMV@@@@UAEPAVScriptImpClass@@XZ 100718b0 f i Toolkit_Animations.obj
 0001:00070950       ??_E?$ScriptRegistrant@VM00_Animation_Play_RMV@@@@UAEPAXI@Z 10071950 f i Toolkit_Animations.obj
 0001:00070950       ??_G?$ScriptRegistrant@VM00_Animation_Play_RMV@@@@UAEPAXI@Z 10071950 f i Toolkit_Animations.obj
 0001:000709a0       ??0M00_Animation_Play_RMV@@QAE@XZ 100719a0 f i Toolkit_Animations.obj
 0001:000709d0       ?Created@M00_Animation_Play_RMV@@EAEXPAVScriptableGameObj@@@Z 100719d0 f i Toolkit_Animations.obj
 0001:00070a60       ?Custom@M00_Animation_Play_RMV@@EAEXPAVScriptableGameObj@@HH0@Z 10071a60 f i Toolkit_Animations.obj
 0001:00070b00       ?Do_Animation@M00_Animation_Play_RMV@@AAEXPAVScriptableGameObj@@@Z 10071b00 f i Toolkit_Animations.obj
 0001:00070b90       ??_E?$ScriptRegistrant@VM00_Animation_Play_Drop_Object_RMV@@@@UAEPAXI@Z 10071b90 f i Toolkit_Animations.obj
 0001:00070b90       ??_G?$ScriptRegistrant@VM00_Animation_Play_Drop_Object_RMV@@@@UAEPAXI@Z 10071b90 f i Toolkit_Animations.obj
 0001:00070be0       ??0M00_Animation_Play_Drop_Object_RMV@@QAE@XZ 10071be0 f i Toolkit_Animations.obj
 0001:00070c10       ?Created@M00_Animation_Play_Drop_Object_RMV@@EAEXPAVScriptableGameObj@@@Z 10071c10 f i Toolkit_Animations.obj
 0001:00070d20       ?Custom@M00_Animation_Play_Drop_Object_RMV@@EAEXPAVScriptableGameObj@@HH0@Z 10071d20 f i Toolkit_Animations.obj
 0001:00070e70       ??_E?$ScriptRegistrant@VM00_Animation_Play_Drop_Object_Attach_Script_RMV@@@@UAEPAXI@Z 10071e70 f i Toolkit_Animations.obj
 0001:00070e70       ??_G?$ScriptRegistrant@VM00_Animation_Play_Drop_Object_Attach_Script_RMV@@@@UAEPAXI@Z 10071e70 f i Toolkit_Animations.obj
 0001:00070ec0       ??0M00_Animation_Play_Drop_Object_Attach_Script_RMV@@QAE@XZ 10071ec0 f i Toolkit_Animations.obj
 0001:00070ef0       ?Created@M00_Animation_Play_Drop_Object_Attach_Script_RMV@@EAEXPAVScriptableGameObj@@@Z 10071ef0 f i Toolkit_Animations.obj
 0001:00071000       ?Custom@M00_Animation_Play_Drop_Object_Attach_Script_RMV@@EAEXPAVScriptableGameObj@@HH0@Z 10072000 f i Toolkit_Animations.obj
 0001:000711c0       ?Fix_Params@M00_Animation_Play_Drop_Object_Attach_Script_RMV@@AAEXPBDPAD@Z 100721c0 f i Toolkit_Animations.obj
 0001:00071250       ??_GM00_Animation_Play_RMV@@UAEPAXI@Z 10072250 f i Toolkit_Animations.obj
 0001:00071250       ??_EM00_Animation_Play_RMV@@UAEPAXI@Z 10072250 f i Toolkit_Animations.obj
 0001:000712a0       ??_EM00_Animation_Play_Drop_Object_RMV@@UAEPAXI@Z 100722a0 f i Toolkit_Animations.obj
 0001:000712a0       ??_GM00_Animation_Play_Drop_Object_RMV@@UAEPAXI@Z 100722a0 f i Toolkit_Animations.obj
 0001:000712f0       ??_EM00_Animation_Play_Drop_Object_Attach_Script_RMV@@UAEPAXI@Z 100722f0 f i Toolkit_Animations.obj
 0001:000712f0       ??_GM00_Animation_Play_Drop_Object_Attach_Script_RMV@@UAEPAXI@Z 100722f0 f i Toolkit_Animations.obj
 0001:00071340       ??1M00_Animation_Play_RMV@@UAE@XZ 10072340 f i Toolkit_Animations.obj
 0001:00071370       ??1M00_Animation_Play_Drop_Object_RMV@@UAE@XZ 10072370 f i Toolkit_Animations.obj
 0001:000713a0       ??1M00_Animation_Play_Drop_Object_Attach_Script_RMV@@UAE@XZ 100723a0 f i Toolkit_Animations.obj
 0001:00071470       ??1?$ScriptRegistrant@VM00_Broadcaster_Register_RAD@@@@UAE@XZ 10072470 f i Toolkit_Broadcaster.obj
 0001:00071540       ??1?$ScriptRegistrant@VM00_Broadcaster_Terminal_RAD@@@@UAE@XZ 10072540 f i Toolkit_Broadcaster.obj
 0001:00071610       ??1?$ScriptRegistrant@VM00_Broadcaster_Activator_RAD@@@@UAE@XZ 10072610 f i Toolkit_Broadcaster.obj
 0001:00071640       ??0?$ScriptRegistrant@VM00_Broadcaster_Register_RAD@@@@QAE@PBD0@Z 10072640 f i Toolkit_Broadcaster.obj
 0001:00071680       ?Create@?$ScriptRegistrant@VM00_Broadcaster_Register_RAD@@@@UAEPAVScriptImpClass@@XZ 10072680 f i Toolkit_Broadcaster.obj
 0001:00071720       ??0?$ScriptRegistrant@VM00_Broadcaster_Terminal_RAD@@@@QAE@PBD0@Z 10072720 f i Toolkit_Broadcaster.obj
 0001:00071760       ?Create@?$ScriptRegistrant@VM00_Broadcaster_Terminal_RAD@@@@UAEPAVScriptImpClass@@XZ 10072760 f i Toolkit_Broadcaster.obj
 0001:00071800       ??0?$ScriptRegistrant@VM00_Broadcaster_Activator_RAD@@@@QAE@PBD0@Z 10072800 f i Toolkit_Broadcaster.obj
 0001:00071840       ?Create@?$ScriptRegistrant@VM00_Broadcaster_Activator_RAD@@@@UAEPAVScriptImpClass@@XZ 10072840 f i Toolkit_Broadcaster.obj
 0001:000718e0       ??_G?$ScriptRegistrant@VM00_Broadcaster_Register_RAD@@@@UAEPAXI@Z 100728e0 f i Toolkit_Broadcaster.obj
 0001:000718e0       ??_E?$ScriptRegistrant@VM00_Broadcaster_Register_RAD@@@@UAEPAXI@Z 100728e0 f i Toolkit_Broadcaster.obj
 0001:00071930       ??0M00_Broadcaster_Register_RAD@@QAE@XZ 10072930 f i Toolkit_Broadcaster.obj
 0001:00071960       ?Created@M00_Broadcaster_Register_RAD@@EAEXPAVScriptableGameObj@@@Z 10072960 f i Toolkit_Broadcaster.obj
 0001:00071a30       ?Timer_Expired@M00_Broadcaster_Register_RAD@@EAEXPAVScriptableGameObj@@H@Z 10072a30 f i Toolkit_Broadcaster.obj
 0001:00071b20       ?Custom@M00_Broadcaster_Register_RAD@@EAEXPAVScriptableGameObj@@HH0@Z 10072b20 f i Toolkit_Broadcaster.obj
 0001:00071b70       ?Destroyed@M00_Broadcaster_Register_RAD@@EAEXPAVScriptableGameObj@@@Z 10072b70 f i Toolkit_Broadcaster.obj
 0001:00071be0       ??_E?$ScriptRegistrant@VM00_Broadcaster_Terminal_RAD@@@@UAEPAXI@Z 10072be0 f i Toolkit_Broadcaster.obj
 0001:00071be0       ??_G?$ScriptRegistrant@VM00_Broadcaster_Terminal_RAD@@@@UAEPAXI@Z 10072be0 f i Toolkit_Broadcaster.obj
 0001:00071c30       ??0M00_Broadcaster_Terminal_RAD@@QAE@XZ 10072c30 f i Toolkit_Broadcaster.obj
 0001:00071c60       ?Created@M00_Broadcaster_Terminal_RAD@@EAEXPAVScriptableGameObj@@@Z 10072c60 f i Toolkit_Broadcaster.obj
 0001:00071d50       ?Custom@M00_Broadcaster_Terminal_RAD@@EAEXPAVScriptableGameObj@@HH0@Z 10072d50 f i Toolkit_Broadcaster.obj
 0001:00072510       ??_E?$ScriptRegistrant@VM00_Broadcaster_Activator_RAD@@@@UAEPAXI@Z 10073510 f i Toolkit_Broadcaster.obj
 0001:00072510       ??_G?$ScriptRegistrant@VM00_Broadcaster_Activator_RAD@@@@UAEPAXI@Z 10073510 f i Toolkit_Broadcaster.obj
 0001:00072560       ??0M00_Broadcaster_Activator_RAD@@QAE@XZ 10073560 f i Toolkit_Broadcaster.obj
 0001:00072590       ?Created@M00_Broadcaster_Activator_RAD@@EAEXPAVScriptableGameObj@@@Z 10073590 f i Toolkit_Broadcaster.obj
 0001:00072600       ?Custom@M00_Broadcaster_Activator_RAD@@EAEXPAVScriptableGameObj@@HH0@Z 10073600 f i Toolkit_Broadcaster.obj
 0001:000726b0       ??_GM00_Broadcaster_Register_RAD@@UAEPAXI@Z 100736b0 f i Toolkit_Broadcaster.obj
 0001:000726b0       ??_EM00_Broadcaster_Register_RAD@@UAEPAXI@Z 100736b0 f i Toolkit_Broadcaster.obj
 0001:00072700       ??_EM00_Broadcaster_Terminal_RAD@@UAEPAXI@Z 10073700 f i Toolkit_Broadcaster.obj
 0001:00072700       ??_GM00_Broadcaster_Terminal_RAD@@UAEPAXI@Z 10073700 f i Toolkit_Broadcaster.obj
 0001:00072750       ??_GM00_Broadcaster_Activator_RAD@@UAEPAXI@Z 10073750 f i Toolkit_Broadcaster.obj
 0001:00072750       ??_EM00_Broadcaster_Activator_RAD@@UAEPAXI@Z 10073750 f i Toolkit_Broadcaster.obj
 0001:000727a0       ??1M00_Broadcaster_Register_RAD@@UAE@XZ 100737a0 f i Toolkit_Broadcaster.obj
 0001:000727d0       ??1M00_Broadcaster_Terminal_RAD@@UAE@XZ 100737d0 f i Toolkit_Broadcaster.obj
 0001:00072800       ??1M00_Broadcaster_Activator_RAD@@UAE@XZ 10073800 f i Toolkit_Broadcaster.obj
 0001:000728d0       ??1?$ScriptRegistrant@VM00_Explosion_Create_RMV@@@@UAE@XZ 100738d0 f i Toolkit_Explosions.obj
 0001:000729a0       ??1?$ScriptRegistrant@VM00_Explosion_Create_At_Bone_RMV@@@@UAE@XZ 100739a0 f i Toolkit_Explosions.obj
 0001:00072a70       ??1?$ScriptRegistrant@VM00_Create_Random_Explosion_DLS@@@@UAE@XZ 10073a70 f i Toolkit_Explosions.obj
 0001:00072b40       ??1?$ScriptRegistrant@VM00_NukeStrike_Anim@@@@UAE@XZ 10073b40 f i Toolkit_Explosions.obj
 0001:00072b70       ??0?$ScriptRegistrant@VM00_Explosion_Create_RMV@@@@QAE@PBD0@Z 10073b70 f i Toolkit_Explosions.obj
 0001:00072bb0       ?Create@?$ScriptRegistrant@VM00_Explosion_Create_RMV@@@@UAEPAVScriptImpClass@@XZ 10073bb0 f i Toolkit_Explosions.obj
 0001:00072c50       ??0?$ScriptRegistrant@VM00_Explosion_Create_At_Bone_RMV@@@@QAE@PBD0@Z 10073c50 f i Toolkit_Explosions.obj
 0001:00072c90       ?Create@?$ScriptRegistrant@VM00_Explosion_Create_At_Bone_RMV@@@@UAEPAVScriptImpClass@@XZ 10073c90 f i Toolkit_Explosions.obj
 0001:00072d30       ??0?$ScriptRegistrant@VM00_Create_Random_Explosion_DLS@@@@QAE@PBD0@Z 10073d30 f i Toolkit_Explosions.obj
 0001:00072d70       ?Create@?$ScriptRegistrant@VM00_Create_Random_Explosion_DLS@@@@UAEPAVScriptImpClass@@XZ 10073d70 f i Toolkit_Explosions.obj
 0001:00072e10       ??0?$ScriptRegistrant@VM00_NukeStrike_Anim@@@@QAE@PBD0@Z 10073e10 f i Toolkit_Explosions.obj
 0001:00072e50       ?Create@?$ScriptRegistrant@VM00_NukeStrike_Anim@@@@UAEPAVScriptImpClass@@XZ 10073e50 f i Toolkit_Explosions.obj
 0001:00072ef0       ??_E?$ScriptRegistrant@VM00_Explosion_Create_RMV@@@@UAEPAXI@Z 10073ef0 f i Toolkit_Explosions.obj
 0001:00072ef0       ??_G?$ScriptRegistrant@VM00_Explosion_Create_RMV@@@@UAEPAXI@Z 10073ef0 f i Toolkit_Explosions.obj
 0001:00072f40       ??0M00_Explosion_Create_RMV@@QAE@XZ 10073f40 f i Toolkit_Explosions.obj
 0001:00072f80       ?Created@M00_Explosion_Create_RMV@@EAEXPAVScriptableGameObj@@@Z 10073f80 f i Toolkit_Explosions.obj
 0001:000730a0       ?Custom@M00_Explosion_Create_RMV@@EAEXPAVScriptableGameObj@@HH0@Z 100740a0 f i Toolkit_Explosions.obj
 0001:00073110       ??_G?$ScriptRegistrant@VM00_Explosion_Create_At_Bone_RMV@@@@UAEPAXI@Z 10074110 f i Toolkit_Explosions.obj
 0001:00073110       ??_E?$ScriptRegistrant@VM00_Explosion_Create_At_Bone_RMV@@@@UAEPAXI@Z 10074110 f i Toolkit_Explosions.obj
 0001:00073160       ??0M00_Explosion_Create_At_Bone_RMV@@QAE@XZ 10074160 f i Toolkit_Explosions.obj
 0001:00073190       ?Created@M00_Explosion_Create_At_Bone_RMV@@EAEXPAVScriptableGameObj@@@Z 10074190 f i Toolkit_Explosions.obj
 0001:000732a0       ?Custom@M00_Explosion_Create_At_Bone_RMV@@EAEXPAVScriptableGameObj@@HH0@Z 100742a0 f i Toolkit_Explosions.obj
 0001:00073350       ??_E?$ScriptRegistrant@VM00_Create_Random_Explosion_DLS@@@@UAEPAXI@Z 10074350 f i Toolkit_Explosions.obj
 0001:00073350       ??_G?$ScriptRegistrant@VM00_Create_Random_Explosion_DLS@@@@UAEPAXI@Z 10074350 f i Toolkit_Explosions.obj
 0001:000733a0       ??0M00_Create_Random_Explosion_DLS@@QAE@XZ 100743a0 f i Toolkit_Explosions.obj
 0001:000733d0       ?Register_Auto_Save_Variables@M00_Create_Random_Explosion_DLS@@UAEXXZ 100743d0 f i Toolkit_Explosions.obj
 0001:00073430       ?Created@M00_Create_Random_Explosion_DLS@@UAEXPAVScriptableGameObj@@@Z 10074430 f i Toolkit_Explosions.obj
 0001:00073560       ?Custom@M00_Create_Random_Explosion_DLS@@UAEXPAVScriptableGameObj@@HH0@Z 10074560 f i Toolkit_Explosions.obj
 0001:00073620       ?Timer_Expired@M00_Create_Random_Explosion_DLS@@UAEXPAVScriptableGameObj@@H@Z 10074620 f i Toolkit_Explosions.obj
 0001:00073780       ??_E?$ScriptRegistrant@VM00_NukeStrike_Anim@@@@UAEPAXI@Z 10074780 f i Toolkit_Explosions.obj
 0001:00073780       ??_G?$ScriptRegistrant@VM00_NukeStrike_Anim@@@@UAEPAXI@Z 10074780 f i Toolkit_Explosions.obj
 0001:000737d0       ??0M00_NukeStrike_Anim@@QAE@XZ 100747d0 f i Toolkit_Explosions.obj
 0001:00073800       ?Created@M00_NukeStrike_Anim@@EAEXPAVScriptableGameObj@@@Z 10074800 f i Toolkit_Explosions.obj
 0001:00073930       ?Custom@M00_NukeStrike_Anim@@EAEXPAVScriptableGameObj@@HH0@Z 10074930 f i Toolkit_Explosions.obj
 0001:00073ae0       ??_GM00_Explosion_Create_RMV@@UAEPAXI@Z 10074ae0 f i Toolkit_Explosions.obj
 0001:00073ae0       ??_EM00_Explosion_Create_RMV@@UAEPAXI@Z 10074ae0 f i Toolkit_Explosions.obj
 0001:00073b30       ??_EM00_Explosion_Create_At_Bone_RMV@@UAEPAXI@Z 10074b30 f i Toolkit_Explosions.obj
 0001:00073b30       ??_GM00_Explosion_Create_At_Bone_RMV@@UAEPAXI@Z 10074b30 f i Toolkit_Explosions.obj
 0001:00073b80       ??_GM00_Create_Random_Explosion_DLS@@UAEPAXI@Z 10074b80 f i Toolkit_Explosions.obj
 0001:00073b80       ??_EM00_Create_Random_Explosion_DLS@@UAEPAXI@Z 10074b80 f i Toolkit_Explosions.obj
 0001:00073bd0       ??_GM00_NukeStrike_Anim@@UAEPAXI@Z 10074bd0 f i Toolkit_Explosions.obj
 0001:00073bd0       ??_EM00_NukeStrike_Anim@@UAEPAXI@Z 10074bd0 f i Toolkit_Explosions.obj
 0001:00073c20       ??1M00_Explosion_Create_RMV@@UAE@XZ 10074c20 f i Toolkit_Explosions.obj
 0001:00073c50       ??1M00_Explosion_Create_At_Bone_RMV@@UAE@XZ 10074c50 f i Toolkit_Explosions.obj
 0001:00073c80       ??1M00_Create_Random_Explosion_DLS@@UAE@XZ 10074c80 f i Toolkit_Explosions.obj
 0001:00073cb0       ??1M00_NukeStrike_Anim@@UAE@XZ 10074cb0 f i Toolkit_Explosions.obj
 0001:00073d80       ??1?$ScriptRegistrant@VM00_Objective_Controller_For_Objects_RMV@@@@UAE@XZ 10074d80 f i Toolkit_Objectives.obj
 0001:00073e50       ??1?$ScriptRegistrant@VM00_Objective_Controller_For_Locations_RMV@@@@UAE@XZ 10074e50 f i Toolkit_Objectives.obj
 0001:00073f20       ??1?$ScriptRegistrant@VM00_Objective_Radar_Blip_On_Object_RMV@@@@UAE@XZ 10074f20 f i Toolkit_Objectives.obj
 0001:00073ff0       ??1?$ScriptRegistrant@VM00_Objective_Controller_For_Objects_Multiple_Triggers_RMV@@@@UAE@XZ 10074ff0 f i Toolkit_Objectives.obj
 0001:000740c0       ??1?$ScriptRegistrant@VM00_Global_Objective_Controller_RMV@@@@UAE@XZ 100750c0 f i Toolkit_Objectives.obj
 0001:000740f0       ??0?$ScriptRegistrant@VM00_Objective_Controller_For_Objects_RMV@@@@QAE@PBD0@Z 100750f0 f i Toolkit_Objectives.obj
 0001:00074130       ?Create@?$ScriptRegistrant@VM00_Objective_Controller_For_Objects_RMV@@@@UAEPAVScriptImpClass@@XZ 10075130 f i Toolkit_Objectives.obj
 0001:000741d0       ??0?$ScriptRegistrant@VM00_Objective_Controller_For_Locations_RMV@@@@QAE@PBD0@Z 100751d0 f i Toolkit_Objectives.obj
 0001:00074210       ?Create@?$ScriptRegistrant@VM00_Objective_Controller_For_Locations_RMV@@@@UAEPAVScriptImpClass@@XZ 10075210 f i Toolkit_Objectives.obj
 0001:000742b0       ??0?$ScriptRegistrant@VM00_Objective_Radar_Blip_On_Object_RMV@@@@QAE@PBD0@Z 100752b0 f i Toolkit_Objectives.obj
 0001:000742f0       ?Create@?$ScriptRegistrant@VM00_Objective_Radar_Blip_On_Object_RMV@@@@UAEPAVScriptImpClass@@XZ 100752f0 f i Toolkit_Objectives.obj
 0001:00074390       ??0?$ScriptRegistrant@VM00_Objective_Controller_For_Objects_Multiple_Triggers_RMV@@@@QAE@PBD0@Z 10075390 f i Toolkit_Objectives.obj
 0001:000743d0       ?Create@?$ScriptRegistrant@VM00_Objective_Controller_For_Objects_Multiple_Triggers_RMV@@@@UAEPAVScriptImpClass@@XZ 100753d0 f i Toolkit_Objectives.obj
 0001:00074470       ??0?$ScriptRegistrant@VM00_Global_Objective_Controller_RMV@@@@QAE@PBD0@Z 10075470 f i Toolkit_Objectives.obj
 0001:000744b0       ?Create@?$ScriptRegistrant@VM00_Global_Objective_Controller_RMV@@@@UAEPAVScriptImpClass@@XZ 100754b0 f i Toolkit_Objectives.obj
 0001:00074550       ??_G?$ScriptRegistrant@VM00_Objective_Controller_For_Objects_RMV@@@@UAEPAXI@Z 10075550 f i Toolkit_Objectives.obj
 0001:00074550       ??_E?$ScriptRegistrant@VM00_Objective_Controller_For_Objects_RMV@@@@UAEPAXI@Z 10075550 f i Toolkit_Objectives.obj
 0001:000745a0       ??0M00_Objective_Controller_For_Objects_RMV@@QAE@XZ 100755a0 f i Toolkit_Objectives.obj
 0001:000745d0       ?Register_Auto_Save_Variables@M00_Objective_Controller_For_Objects_RMV@@UAEXXZ 100755d0 f i Toolkit_Objectives.obj
 0001:000746e0       ?Created@M00_Objective_Controller_For_Objects_RMV@@UAEXPAVScriptableGameObj@@@Z 100756e0 f i Toolkit_Objectives.obj
 0001:00074a70       ?Custom@M00_Objective_Controller_For_Objects_RMV@@UAEXPAVScriptableGameObj@@HH0@Z 10075a70 f i Toolkit_Objectives.obj
 0001:00074c90       ??_E?$ScriptRegistrant@VM00_Objective_Controller_For_Locations_RMV@@@@UAEPAXI@Z 10075c90 f i Toolkit_Objectives.obj
 0001:00074c90       ??_G?$ScriptRegistrant@VM00_Objective_Controller_For_Locations_RMV@@@@UAEPAXI@Z 10075c90 f i Toolkit_Objectives.obj
 0001:00074ce0       ??0M00_Objective_Controller_For_Locations_RMV@@QAE@XZ 10075ce0 f i Toolkit_Objectives.obj
 0001:00074d20       ?Register_Auto_Save_Variables@M00_Objective_Controller_For_Locations_RMV@@UAEXXZ 10075d20 f i Toolkit_Objectives.obj
 0001:00074e40       ?Created@M00_Objective_Controller_For_Locations_RMV@@UAEXPAVScriptableGameObj@@@Z 10075e40 f i Toolkit_Objectives.obj
 0001:00075180       ?Custom@M00_Objective_Controller_For_Locations_RMV@@UAEXPAVScriptableGameObj@@HH0@Z 10076180 f i Toolkit_Objectives.obj
 0001:00075370       ??_E?$ScriptRegistrant@VM00_Objective_Radar_Blip_On_Object_RMV@@@@UAEPAXI@Z 10076370 f i Toolkit_Objectives.obj
 0001:00075370       ??_G?$ScriptRegistrant@VM00_Objective_Radar_Blip_On_Object_RMV@@@@UAEPAXI@Z 10076370 f i Toolkit_Objectives.obj
 0001:000753c0       ??0M00_Objective_Radar_Blip_On_Object_RMV@@QAE@XZ 100763c0 f i Toolkit_Objectives.obj
 0001:000753f0       ?Created@M00_Objective_Radar_Blip_On_Object_RMV@@EAEXPAVScriptableGameObj@@@Z 100763f0 f i Toolkit_Objectives.obj
 0001:00075490       ?Custom@M00_Objective_Radar_Blip_On_Object_RMV@@EAEXPAVScriptableGameObj@@HH0@Z 10076490 f i Toolkit_Objectives.obj
 0001:00075510       ??_G?$ScriptRegistrant@VM00_Objective_Controller_For_Objects_Multiple_Triggers_RMV@@@@UAEPAXI@Z 10076510 f i Toolkit_Objectives.obj
 0001:00075510       ??_E?$ScriptRegistrant@VM00_Objective_Controller_For_Objects_Multiple_Triggers_RMV@@@@UAEPAXI@Z 10076510 f i Toolkit_Objectives.obj
 0001:00075560       ??0M00_Objective_Controller_For_Objects_Multiple_Triggers_RMV@@QAE@XZ 10076560 f i Toolkit_Objectives.obj
 0001:00075590       ?Register_Auto_Save_Variables@M00_Objective_Controller_For_Objects_Multiple_Triggers_RMV@@UAEXXZ 10076590 f i Toolkit_Objectives.obj
 0001:000756a0       ?Created@M00_Objective_Controller_For_Objects_Multiple_Triggers_RMV@@UAEXPAVScriptableGameObj@@@Z 100766a0 f i Toolkit_Objectives.obj
 0001:00075960       ?Custom@M00_Objective_Controller_For_Objects_Multiple_Triggers_RMV@@UAEXPAVScriptableGameObj@@HH0@Z 10076960 f i Toolkit_Objectives.obj
 0001:00075b70       ??_E?$ScriptRegistrant@VM00_Global_Objective_Controller_RMV@@@@UAEPAXI@Z 10076b70 f i Toolkit_Objectives.obj
 0001:00075b70       ??_G?$ScriptRegistrant@VM00_Global_Objective_Controller_RMV@@@@UAEPAXI@Z 10076b70 f i Toolkit_Objectives.obj
 0001:00075bc0       ??0M00_Global_Objective_Controller_RMV@@QAE@XZ 10076bc0 f i Toolkit_Objectives.obj
 0001:00075bf0       ?Created@M00_Global_Objective_Controller_RMV@@EAEXPAVScriptableGameObj@@@Z 10076bf0 f i Toolkit_Objectives.obj
 0001:00075c60       ?Custom@M00_Global_Objective_Controller_RMV@@EAEXPAVScriptableGameObj@@HH0@Z 10076c60 f i Toolkit_Objectives.obj
 0001:00075ec0       ??_EM00_Objective_Controller_For_Objects_RMV@@UAEPAXI@Z 10076ec0 f i Toolkit_Objectives.obj
 0001:00075ec0       ??_GM00_Objective_Controller_For_Objects_RMV@@UAEPAXI@Z 10076ec0 f i Toolkit_Objectives.obj
 0001:00075f10       ??_EM00_Objective_Controller_For_Locations_RMV@@UAEPAXI@Z 10076f10 f i Toolkit_Objectives.obj
 0001:00075f10       ??_GM00_Objective_Controller_For_Locations_RMV@@UAEPAXI@Z 10076f10 f i Toolkit_Objectives.obj
 0001:00075f60       ??_GM00_Objective_Radar_Blip_On_Object_RMV@@UAEPAXI@Z 10076f60 f i Toolkit_Objectives.obj
 0001:00075f60       ??_EM00_Objective_Radar_Blip_On_Object_RMV@@UAEPAXI@Z 10076f60 f i Toolkit_Objectives.obj
 0001:00075fb0       ??_GM00_Objective_Controller_For_Objects_Multiple_Triggers_RMV@@UAEPAXI@Z 10076fb0 f i Toolkit_Objectives.obj
 0001:00075fb0       ??_EM00_Objective_Controller_For_Objects_Multiple_Triggers_RMV@@UAEPAXI@Z 10076fb0 f i Toolkit_Objectives.obj
 0001:00076000       ??_EM00_Global_Objective_Controller_RMV@@UAEPAXI@Z 10077000 f i Toolkit_Objectives.obj
 0001:00076000       ??_GM00_Global_Objective_Controller_RMV@@UAEPAXI@Z 10077000 f i Toolkit_Objectives.obj
 0001:00076050       ??1M00_Objective_Controller_For_Objects_RMV@@UAE@XZ 10077050 f i Toolkit_Objectives.obj
 0001:00076080       ??1M00_Objective_Controller_For_Locations_RMV@@UAE@XZ 10077080 f i Toolkit_Objectives.obj
 0001:000760b0       ??1M00_Objective_Radar_Blip_On_Object_RMV@@UAE@XZ 100770b0 f i Toolkit_Objectives.obj
 0001:000760e0       ??1M00_Objective_Controller_For_Objects_Multiple_Triggers_RMV@@UAE@XZ 100770e0 f i Toolkit_Objectives.obj
 0001:00076110       ??1M00_Global_Objective_Controller_RMV@@UAE@XZ 10077110 f i Toolkit_Objectives.obj
 0001:000761e0       ??1?$ScriptRegistrant@VM00_Object_Create_RMV@@@@UAE@XZ 100771e0 f i Toolkit_Objects.obj
 0001:000762b0       ??1?$ScriptRegistrant@VM00_Object_Destroy_RMV@@@@UAE@XZ 100772b0 f i Toolkit_Objects.obj
 0001:00076380       ??1?$ScriptRegistrant@VM00_Object_Create_Attach_Script_RMV@@@@UAE@XZ 10077380 f i Toolkit_Objects.obj
 0001:00076450       ??1?$ScriptRegistrant@VM00_Object_Destroy_Self_RMV@@@@UAE@XZ 10077450 f i Toolkit_Objects.obj
 0001:00076520       ??1?$ScriptRegistrant@VM00_PowerUp_Create_When_Killed_JDG@@@@UAE@XZ 10077520 f i Toolkit_Objects.obj
 0001:000765f0       ??1?$ScriptRegistrant@VM00_Create_Anim_Effect_DAY@@@@UAE@XZ 100775f0 f i Toolkit_Objects.obj
 0001:000766c0       ??1?$ScriptRegistrant@VM00_No_Falling_Damage_DME@@@@UAE@XZ 100776c0 f i Toolkit_Objects.obj
 0001:00076790       ??1?$ScriptRegistrant@VM00_Permanent_No_Falling_Damage_IML@@@@UAE@XZ 10077790 f i Toolkit_Objects.obj
 0001:00076860       ??1?$ScriptRegistrant@VM00_Disable_Transition@@@@UAE@XZ 10077860 f i Toolkit_Objects.obj
 0001:00076930       ??1?$ScriptRegistrant@VM00_Fire_Gas_Elec_Death_DAK@@@@UAE@XZ 10077930 f i Toolkit_Objects.obj
 0001:00076a00       ??1?$ScriptRegistrant@VM00_Vehicle_Regen_DAK@@@@UAE@XZ 10077a00 f i Toolkit_Objects.obj
 0001:00076ad0       ??1?$ScriptRegistrant@VM00_PCT_Pokable_DAK@@@@UAE@XZ 10077ad0 f i Toolkit_Objects.obj
 0001:00076ba0       ??1?$ScriptRegistrant@VM00_Send_Object_ID@@@@UAE@XZ 10077ba0 f i Toolkit_Objects.obj
 0001:00076bd0       ??0?$ScriptRegistrant@VM00_Object_Create_RMV@@@@QAE@PBD0@Z 10077bd0 f i Toolkit_Objects.obj
 0001:00076c10       ?Create@?$ScriptRegistrant@VM00_Object_Create_RMV@@@@UAEPAVScriptImpClass@@XZ 10077c10 f i Toolkit_Objects.obj
 0001:00076cb0       ??0?$ScriptRegistrant@VM00_Object_Destroy_RMV@@@@QAE@PBD0@Z 10077cb0 f i Toolkit_Objects.obj
 0001:00076cf0       ?Create@?$ScriptRegistrant@VM00_Object_Destroy_RMV@@@@UAEPAVScriptImpClass@@XZ 10077cf0 f i Toolkit_Objects.obj
 0001:00076d90       ??0?$ScriptRegistrant@VM00_Object_Create_Attach_Script_RMV@@@@QAE@PBD0@Z 10077d90 f i Toolkit_Objects.obj
 0001:00076dd0       ?Create@?$ScriptRegistrant@VM00_Object_Create_Attach_Script_RMV@@@@UAEPAVScriptImpClass@@XZ 10077dd0 f i Toolkit_Objects.obj
 0001:00076e70       ??0?$ScriptRegistrant@VM00_Object_Destroy_Self_RMV@@@@QAE@PBD0@Z 10077e70 f i Toolkit_Objects.obj
 0001:00076eb0       ?Create@?$ScriptRegistrant@VM00_Object_Destroy_Self_RMV@@@@UAEPAVScriptImpClass@@XZ 10077eb0 f i Toolkit_Objects.obj
 0001:00076f50       ??0?$ScriptRegistrant@VM00_PowerUp_Create_When_Killed_JDG@@@@QAE@PBD0@Z 10077f50 f i Toolkit_Objects.obj
 0001:00076f90       ?Create@?$ScriptRegistrant@VM00_PowerUp_Create_When_Killed_JDG@@@@UAEPAVScriptImpClass@@XZ 10077f90 f i Toolkit_Objects.obj
 0001:00077030       ??0?$ScriptRegistrant@VM00_Create_Anim_Effect_DAY@@@@QAE@PBD0@Z 10078030 f i Toolkit_Objects.obj
 0001:00077070       ?Create@?$ScriptRegistrant@VM00_Create_Anim_Effect_DAY@@@@UAEPAVScriptImpClass@@XZ 10078070 f i Toolkit_Objects.obj
 0001:00077110       ??0?$ScriptRegistrant@VM00_No_Falling_Damage_DME@@@@QAE@PBD0@Z 10078110 f i Toolkit_Objects.obj
 0001:00077150       ?Create@?$ScriptRegistrant@VM00_No_Falling_Damage_DME@@@@UAEPAVScriptImpClass@@XZ 10078150 f i Toolkit_Objects.obj
 0001:000771f0       ??0?$ScriptRegistrant@VM00_Permanent_No_Falling_Damage_IML@@@@QAE@PBD0@Z 100781f0 f i Toolkit_Objects.obj
 0001:00077230       ?Create@?$ScriptRegistrant@VM00_Permanent_No_Falling_Damage_IML@@@@UAEPAVScriptImpClass@@XZ 10078230 f i Toolkit_Objects.obj
 0001:000772d0       ??0?$ScriptRegistrant@VM00_Disable_Transition@@@@QAE@PBD0@Z 100782d0 f i Toolkit_Objects.obj
 0001:00077310       ?Create@?$ScriptRegistrant@VM00_Disable_Transition@@@@UAEPAVScriptImpClass@@XZ 10078310 f i Toolkit_Objects.obj
 0001:000773b0       ??0?$ScriptRegistrant@VM00_Fire_Gas_Elec_Death_DAK@@@@QAE@PBD0@Z 100783b0 f i Toolkit_Objects.obj
 0001:000773f0       ?Create@?$ScriptRegistrant@VM00_Fire_Gas_Elec_Death_DAK@@@@UAEPAVScriptImpClass@@XZ 100783f0 f i Toolkit_Objects.obj
 0001:00077490       ??0?$ScriptRegistrant@VM00_Vehicle_Regen_DAK@@@@QAE@PBD0@Z 10078490 f i Toolkit_Objects.obj
 0001:000774d0       ?Create@?$ScriptRegistrant@VM00_Vehicle_Regen_DAK@@@@UAEPAVScriptImpClass@@XZ 100784d0 f i Toolkit_Objects.obj
 0001:00077570       ??0?$ScriptRegistrant@VM00_PCT_Pokable_DAK@@@@QAE@PBD0@Z 10078570 f i Toolkit_Objects.obj
 0001:000775b0       ?Create@?$ScriptRegistrant@VM00_PCT_Pokable_DAK@@@@UAEPAVScriptImpClass@@XZ 100785b0 f i Toolkit_Objects.obj
 0001:00077650       ??0?$ScriptRegistrant@VM00_Send_Object_ID@@@@QAE@PBD0@Z 10078650 f i Toolkit_Objects.obj
 0001:00077690       ?Create@?$ScriptRegistrant@VM00_Send_Object_ID@@@@UAEPAVScriptImpClass@@XZ 10078690 f i Toolkit_Objects.obj
 0001:00077730       ??_E?$ScriptRegistrant@VM00_Object_Create_RMV@@@@UAEPAXI@Z 10078730 f i Toolkit_Objects.obj
 0001:00077730       ??_G?$ScriptRegistrant@VM00_Object_Create_RMV@@@@UAEPAXI@Z 10078730 f i Toolkit_Objects.obj
 0001:00077780       ??0M00_Object_Create_RMV@@QAE@XZ 10078780 f i Toolkit_Objects.obj
 0001:000777b0       ?Register_Auto_Save_Variables@M00_Object_Create_RMV@@UAEXXZ 100787b0 f i Toolkit_Objects.obj
 0001:000777e0       ?Created@M00_Object_Create_RMV@@UAEXPAVScriptableGameObj@@@Z 100787e0 f i Toolkit_Objects.obj
 0001:00077800       ?Custom@M00_Object_Create_RMV@@UAEXPAVScriptableGameObj@@HH0@Z 10078800 f i Toolkit_Objects.obj
 0001:00077860       ?Create_Object@M00_Object_Create_RMV@@QAEXXZ 10078860 f i Toolkit_Objects.obj
 0001:000778f0       ??_E?$ScriptRegistrant@VM00_Object_Destroy_RMV@@@@UAEPAXI@Z 100788f0 f i Toolkit_Objects.obj
 0001:000778f0       ??_G?$ScriptRegistrant@VM00_Object_Destroy_RMV@@@@UAEPAXI@Z 100788f0 f i Toolkit_Objects.obj
 0001:00077940       ??0M00_Object_Destroy_RMV@@QAE@XZ 10078940 f i Toolkit_Objects.obj
 0001:00077970       ?Register_Auto_Save_Variables@M00_Object_Destroy_RMV@@UAEXXZ 10078970 f i Toolkit_Objects.obj
 0001:000779c0       ?Created@M00_Object_Destroy_RMV@@UAEXPAVScriptableGameObj@@@Z 100789c0 f i Toolkit_Objects.obj
 0001:00077a20       ?Custom@M00_Object_Destroy_RMV@@UAEXPAVScriptableGameObj@@HH0@Z 10078a20 f i Toolkit_Objects.obj
 0001:00077b10       ??_E?$ScriptRegistrant@VM00_Object_Create_Attach_Script_RMV@@@@UAEPAXI@Z 10078b10 f i Toolkit_Objects.obj
 0001:00077b10       ??_G?$ScriptRegistrant@VM00_Object_Create_Attach_Script_RMV@@@@UAEPAXI@Z 10078b10 f i Toolkit_Objects.obj
 0001:00077b60       ??0M00_Object_Create_Attach_Script_RMV@@QAE@XZ 10078b60 f i Toolkit_Objects.obj
 0001:00077b90       ?Created@M00_Object_Create_Attach_Script_RMV@@EAEXPAVScriptableGameObj@@@Z 10078b90 f i Toolkit_Objects.obj
 0001:00077c10       ?Custom@M00_Object_Create_Attach_Script_RMV@@EAEXPAVScriptableGameObj@@HH0@Z 10078c10 f i Toolkit_Objects.obj
 0001:00077c90       ?Create_Object@M00_Object_Create_Attach_Script_RMV@@AAEXXZ 10078c90 f i Toolkit_Objects.obj
 0001:00077da0       ?Fix_Params@M00_Object_Create_Attach_Script_RMV@@AAEXPBDPAD@Z 10078da0 f i Toolkit_Objects.obj
 0001:00077e30       ??_E?$ScriptRegistrant@VM00_Object_Destroy_Self_RMV@@@@UAEPAXI@Z 10078e30 f i Toolkit_Objects.obj
 0001:00077e30       ??_G?$ScriptRegistrant@VM00_Object_Destroy_Self_RMV@@@@UAEPAXI@Z 10078e30 f i Toolkit_Objects.obj
 0001:00077e80       ??0M00_Object_Destroy_Self_RMV@@QAE@XZ 10078e80 f i Toolkit_Objects.obj
 0001:00077eb0       ?Register_Auto_Save_Variables@M00_Object_Destroy_Self_RMV@@UAEXXZ 10078eb0 f i Toolkit_Objects.obj
 0001:00077f60       ?Created@M00_Object_Destroy_Self_RMV@@UAEXPAVScriptableGameObj@@@Z 10078f60 f i Toolkit_Objects.obj
 0001:00078020       ?Custom@M00_Object_Destroy_Self_RMV@@UAEXPAVScriptableGameObj@@HH0@Z 10079020 f i Toolkit_Objects.obj
 0001:00078190       ??_G?$ScriptRegistrant@VM00_PowerUp_Create_When_Killed_JDG@@@@UAEPAXI@Z 10079190 f i Toolkit_Objects.obj
 0001:00078190       ??_E?$ScriptRegistrant@VM00_PowerUp_Create_When_Killed_JDG@@@@UAEPAXI@Z 10079190 f i Toolkit_Objects.obj
 0001:000781e0       ??0M00_PowerUp_Create_When_Killed_JDG@@QAE@XZ 100791e0 f i Toolkit_Objects.obj
 0001:00078210       ?Killed@M00_PowerUp_Create_When_Killed_JDG@@EAEXPAVScriptableGameObj@@0@Z 10079210 f i Toolkit_Objects.obj
 0001:000783d0       ??_G?$ScriptRegistrant@VM00_Create_Anim_Effect_DAY@@@@UAEPAXI@Z 100793d0 f i Toolkit_Objects.obj
 0001:000783d0       ??_E?$ScriptRegistrant@VM00_Create_Anim_Effect_DAY@@@@UAEPAXI@Z 100793d0 f i Toolkit_Objects.obj
 0001:00078420       ??0M00_Create_Anim_Effect_DAY@@QAE@XZ 10079420 f i Toolkit_Objects.obj
 0001:00078450       ?Created@M00_Create_Anim_Effect_DAY@@EAEXPAVScriptableGameObj@@@Z 10079450 f i Toolkit_Objects.obj
 0001:000784e0       ?Action_Complete@M00_Create_Anim_Effect_DAY@@EAEXPAVScriptableGameObj@@HW4ActionCompleteReason@@@Z 100794e0 f i Toolkit_Objects.obj
 0001:00078520       ??_G?$ScriptRegistrant@VM00_No_Falling_Damage_DME@@@@UAEPAXI@Z 10079520 f i Toolkit_Objects.obj
 0001:00078520       ??_E?$ScriptRegistrant@VM00_No_Falling_Damage_DME@@@@UAEPAXI@Z 10079520 f i Toolkit_Objects.obj
 0001:00078570       ??0M00_No_Falling_Damage_DME@@QAE@XZ 10079570 f i Toolkit_Objects.obj
 0001:000785a0       ?Register_Auto_Save_Variables@M00_No_Falling_Damage_DME@@UAEXXZ 100795a0 f i Toolkit_Objects.obj
 0001:000785f0       ?Created@M00_No_Falling_Damage_DME@@UAEXPAVScriptableGameObj@@@Z 100795f0 f i Toolkit_Objects.obj
 0001:00078620       ?Custom@M00_No_Falling_Damage_DME@@UAEXPAVScriptableGameObj@@HH0@Z 10079620 f i Toolkit_Objects.obj
 0001:00078670       ?Damaged@M00_No_Falling_Damage_DME@@UAEXPAVScriptableGameObj@@0M@Z 10079670 f i Toolkit_Objects.obj
 0001:000786d0       ??_E?$ScriptRegistrant@VM00_Permanent_No_Falling_Damage_IML@@@@UAEPAXI@Z 100796d0 f i Toolkit_Objects.obj
 0001:000786d0       ??_G?$ScriptRegistrant@VM00_Permanent_No_Falling_Damage_IML@@@@UAEPAXI@Z 100796d0 f i Toolkit_Objects.obj
 0001:00078720       ??0M00_Permanent_No_Falling_Damage_IML@@QAE@XZ 10079720 f i Toolkit_Objects.obj
 0001:00078750       ?Register_Auto_Save_Variables@M00_Permanent_No_Falling_Damage_IML@@UAEXXZ 10079750 f i Toolkit_Objects.obj
 0001:00078780       ?Created@M00_Permanent_No_Falling_Damage_IML@@UAEXPAVScriptableGameObj@@@Z 10079780 f i Toolkit_Objects.obj
 0001:000787c0       ?Custom@M00_Permanent_No_Falling_Damage_IML@@UAEXPAVScriptableGameObj@@HH0@Z 100797c0 f i Toolkit_Objects.obj
 0001:00078810       ?Damaged@M00_Permanent_No_Falling_Damage_IML@@UAEXPAVScriptableGameObj@@0M@Z 10079810 f i Toolkit_Objects.obj
 0001:00078860       ??_E?$ScriptRegistrant@VM00_Disable_Transition@@@@UAEPAXI@Z 10079860 f i Toolkit_Objects.obj
 0001:00078860       ??_G?$ScriptRegistrant@VM00_Disable_Transition@@@@UAEPAXI@Z 10079860 f i Toolkit_Objects.obj
 0001:000788b0       ??0M00_Disable_Transition@@QAE@XZ 100798b0 f i Toolkit_Objects.obj
 0001:000788e0       ?Created@M00_Disable_Transition@@EAEXPAVScriptableGameObj@@@Z 100798e0 f i Toolkit_Objects.obj
 0001:00078920       ??_E?$ScriptRegistrant@VM00_Fire_Gas_Elec_Death_DAK@@@@UAEPAXI@Z 10079920 f i Toolkit_Objects.obj
 0001:00078920       ??_G?$ScriptRegistrant@VM00_Fire_Gas_Elec_Death_DAK@@@@UAEPAXI@Z 10079920 f i Toolkit_Objects.obj
 0001:00078970       ??0M00_Fire_Gas_Elec_Death_DAK@@QAE@XZ 10079970 f i Toolkit_Objects.obj
 0001:000789a0       ?Damaged@M00_Fire_Gas_Elec_Death_DAK@@EAEXPAVScriptableGameObj@@0M@Z 100799a0 f i Toolkit_Objects.obj
 0001:00078b30       ?Killed@M00_Fire_Gas_Elec_Death_DAK@@EAEXPAVScriptableGameObj@@0@Z 10079b30 f i Toolkit_Objects.obj
 0001:00078c30       ?Created@M00_Fire_Gas_Elec_Death_DAK@@EAEXPAVScriptableGameObj@@@Z 10079c30 f i Toolkit_Objects.obj
 0001:00078c60       ?Action_Complete@M00_Fire_Gas_Elec_Death_DAK@@EAEXPAVScriptableGameObj@@HW4ActionCompleteReason@@@Z 10079c60 f i Toolkit_Objects.obj
 0001:00078cb0       ??_G?$ScriptRegistrant@VM00_Vehicle_Regen_DAK@@@@UAEPAXI@Z 10079cb0 f i Toolkit_Objects.obj
 0001:00078cb0       ??_E?$ScriptRegistrant@VM00_Vehicle_Regen_DAK@@@@UAEPAXI@Z 10079cb0 f i Toolkit_Objects.obj
 0001:00078d00       ??0M00_Vehicle_Regen_DAK@@QAE@XZ 10079d00 f i Toolkit_Objects.obj
 0001:00078d30       ?Created@M00_Vehicle_Regen_DAK@@EAEXPAVScriptableGameObj@@@Z 10079d30 f i Toolkit_Objects.obj
 0001:00078d70       ?Custom@M00_Vehicle_Regen_DAK@@EAEXPAVScriptableGameObj@@HH0@Z 10079d70 f i Toolkit_Objects.obj
 0001:00078e20       ??_E?$ScriptRegistrant@VM00_PCT_Pokable_DAK@@@@UAEPAXI@Z 10079e20 f i Toolkit_Objects.obj
 0001:00078e20       ??_G?$ScriptRegistrant@VM00_PCT_Pokable_DAK@@@@UAEPAXI@Z 10079e20 f i Toolkit_Objects.obj
 0001:00078e70       ??0M00_PCT_Pokable_DAK@@QAE@XZ 10079e70 f i Toolkit_Objects.obj
 0001:00078ea0       ?Created@M00_PCT_Pokable_DAK@@EAEXPAVScriptableGameObj@@@Z 10079ea0 f i Toolkit_Objects.obj
 0001:00078ef0       ??_E?$ScriptRegistrant@VM00_Send_Object_ID@@@@UAEPAXI@Z 10079ef0 f i Toolkit_Objects.obj
 0001:00078ef0       ??_G?$ScriptRegistrant@VM00_Send_Object_ID@@@@UAEPAXI@Z 10079ef0 f i Toolkit_Objects.obj
 0001:00078f40       ??0M00_Send_Object_ID@@QAE@XZ 10079f40 f i Toolkit_Objects.obj
 0001:00078f70       ?Register_Auto_Save_Variables@M00_Send_Object_ID@@UAEXXZ 10079f70 f i Toolkit_Objects.obj
 0001:00078fc0       ?Created@M00_Send_Object_ID@@UAEXPAVScriptableGameObj@@@Z 10079fc0 f i Toolkit_Objects.obj
 0001:000790b0       ??_EM00_Object_Create_RMV@@UAEPAXI@Z 1007a0b0 f i Toolkit_Objects.obj
 0001:000790b0       ??_GM00_Object_Create_RMV@@UAEPAXI@Z 1007a0b0 f i Toolkit_Objects.obj
 0001:00079100       ??_EM00_Object_Destroy_RMV@@UAEPAXI@Z 1007a100 f i Toolkit_Objects.obj
 0001:00079100       ??_GM00_Object_Destroy_RMV@@UAEPAXI@Z 1007a100 f i Toolkit_Objects.obj
 0001:00079150       ??_GM00_Object_Create_Attach_Script_RMV@@UAEPAXI@Z 1007a150 f i Toolkit_Objects.obj
 0001:00079150       ??_EM00_Object_Create_Attach_Script_RMV@@UAEPAXI@Z 1007a150 f i Toolkit_Objects.obj
 0001:000791a0       ??_GM00_Object_Destroy_Self_RMV@@UAEPAXI@Z 1007a1a0 f i Toolkit_Objects.obj
 0001:000791a0       ??_EM00_Object_Destroy_Self_RMV@@UAEPAXI@Z 1007a1a0 f i Toolkit_Objects.obj
 0001:000791f0       ??_EM00_PowerUp_Create_When_Killed_JDG@@UAEPAXI@Z 1007a1f0 f i Toolkit_Objects.obj
 0001:000791f0       ??_GM00_PowerUp_Create_When_Killed_JDG@@UAEPAXI@Z 1007a1f0 f i Toolkit_Objects.obj
 0001:00079240       ??_EM00_Create_Anim_Effect_DAY@@UAEPAXI@Z 1007a240 f i Toolkit_Objects.obj
 0001:00079240       ??_GM00_Create_Anim_Effect_DAY@@UAEPAXI@Z 1007a240 f i Toolkit_Objects.obj
 0001:00079290       ??_GM00_No_Falling_Damage_DME@@UAEPAXI@Z 1007a290 f i Toolkit_Objects.obj
 0001:00079290       ??_EM00_No_Falling_Damage_DME@@UAEPAXI@Z 1007a290 f i Toolkit_Objects.obj
 0001:000792e0       ??_GM00_Permanent_No_Falling_Damage_IML@@UAEPAXI@Z 1007a2e0 f i Toolkit_Objects.obj
 0001:000792e0       ??_EM00_Permanent_No_Falling_Damage_IML@@UAEPAXI@Z 1007a2e0 f i Toolkit_Objects.obj
 0001:00079330       ??_EM00_Disable_Transition@@UAEPAXI@Z 1007a330 f i Toolkit_Objects.obj
 0001:00079330       ??_GM00_Disable_Transition@@UAEPAXI@Z 1007a330 f i Toolkit_Objects.obj
 0001:00079380       ??_EM00_Fire_Gas_Elec_Death_DAK@@UAEPAXI@Z 1007a380 f i Toolkit_Objects.obj
 0001:00079380       ??_GM00_Fire_Gas_Elec_Death_DAK@@UAEPAXI@Z 1007a380 f i Toolkit_Objects.obj
 0001:000793d0       ??_GM00_Vehicle_Regen_DAK@@UAEPAXI@Z 1007a3d0 f i Toolkit_Objects.obj
 0001:000793d0       ??_EM00_Vehicle_Regen_DAK@@UAEPAXI@Z 1007a3d0 f i Toolkit_Objects.obj
 0001:00079420       ??_GM00_PCT_Pokable_DAK@@UAEPAXI@Z 1007a420 f i Toolkit_Objects.obj
 0001:00079420       ??_EM00_PCT_Pokable_DAK@@UAEPAXI@Z 1007a420 f i Toolkit_Objects.obj
 0001:00079470       ??_GM00_Send_Object_ID@@UAEPAXI@Z 1007a470 f i Toolkit_Objects.obj
 0001:00079470       ??_EM00_Send_Object_ID@@UAEPAXI@Z 1007a470 f i Toolkit_Objects.obj
 0001:000794c0       ??1M00_Object_Create_RMV@@UAE@XZ 1007a4c0 f i Toolkit_Objects.obj
 0001:000794f0       ??1M00_Object_Destroy_RMV@@UAE@XZ 1007a4f0 f i Toolkit_Objects.obj
 0001:00079520       ??1M00_Object_Create_Attach_Script_RMV@@UAE@XZ 1007a520 f i Toolkit_Objects.obj
 0001:00079550       ??1M00_Object_Destroy_Self_RMV@@UAE@XZ 1007a550 f i Toolkit_Objects.obj
 0001:00079580       ??1M00_PowerUp_Create_When_Killed_JDG@@UAE@XZ 1007a580 f i Toolkit_Objects.obj
 0001:000795b0       ??1M00_Create_Anim_Effect_DAY@@UAE@XZ 1007a5b0 f i Toolkit_Objects.obj
 0001:000795e0       ??1M00_No_Falling_Damage_DME@@UAE@XZ 1007a5e0 f i Toolkit_Objects.obj
 0001:00079610       ??1M00_Permanent_No_Falling_Damage_IML@@UAE@XZ 1007a610 f i Toolkit_Objects.obj
 0001:00079640       ??1M00_Disable_Transition@@UAE@XZ 1007a640 f i Toolkit_Objects.obj
 0001:00079670       ??1M00_Fire_Gas_Elec_Death_DAK@@UAE@XZ 1007a670 f i Toolkit_Objects.obj
 0001:000796a0       ??1M00_Vehicle_Regen_DAK@@UAE@XZ 1007a6a0 f i Toolkit_Objects.obj
 0001:000796d0       ??1M00_PCT_Pokable_DAK@@UAE@XZ 1007a6d0 f i Toolkit_Objects.obj
 0001:00079700       ??1M00_Send_Object_ID@@UAE@XZ 1007a700 f i Toolkit_Objects.obj
 0001:000797d0       ??1?$ScriptRegistrant@VM00_Soldier_Powerup_Grant@@@@UAE@XZ 1007a7d0 f i Toolkit_Powerup.obj
 0001:000798a0       ??1?$ScriptRegistrant@VM00_Soldier_Powerup_Disable@@@@UAE@XZ 1007a8a0 f i Toolkit_Powerup.obj
 0001:00079970       ??1?$ScriptRegistrant@VM00_Powerup_Destroy@@@@UAE@XZ 1007a970 f i Toolkit_Powerup.obj
 0001:00079a40       ??1?$ScriptRegistrant@VM00_Reveal_Enc_Building_DAY@@@@UAE@XZ 1007aa40 f i Toolkit_Powerup.obj
 0001:00079b10       ??1?$ScriptRegistrant@VM00_Reveal_Enc_Character_DAY@@@@UAE@XZ 1007ab10 f i Toolkit_Powerup.obj
 0001:00079be0       ??1?$ScriptRegistrant@VM00_Reveal_Enc_Vehicle_DAY@@@@UAE@XZ 1007abe0 f i Toolkit_Powerup.obj
 0001:00079cb0       ??1?$ScriptRegistrant@VM00_Reveal_Enc_Weapon_DAY@@@@UAE@XZ 1007acb0 f i Toolkit_Powerup.obj
 0001:00079d80       ??1?$ScriptRegistrant@VM00_GrantScore_Powerup@@@@UAE@XZ 1007ad80 f i Toolkit_Powerup.obj
 0001:00079e50       ??1?$ScriptRegistrant@VM00_GrantMoney_Powerup@@@@UAE@XZ 1007ae50 f i Toolkit_Powerup.obj
 0001:00079f20       ??1?$ScriptRegistrant@VM00_Tiberium_Refinery@@@@UAE@XZ 1007af20 f i Toolkit_Powerup.obj
 0001:00079ff0       ??1?$ScriptRegistrant@VM00_CNC_Crate@@@@UAE@XZ 1007aff0 f i Toolkit_Powerup.obj
 0001:0007a0c0       ??1?$ScriptRegistrant@VM00_Death_Powerup@@@@UAE@XZ 1007b0c0 f i Toolkit_Powerup.obj
 0001:0007a0f0       ??0?$ScriptRegistrant@VM00_Soldier_Powerup_Grant@@@@QAE@PBD0@Z 1007b0f0 f i Toolkit_Powerup.obj
 0001:0007a130       ?Create@?$ScriptRegistrant@VM00_Soldier_Powerup_Grant@@@@UAEPAVScriptImpClass@@XZ 1007b130 f i Toolkit_Powerup.obj
 0001:0007a1d0       ??0?$ScriptRegistrant@VM00_Soldier_Powerup_Disable@@@@QAE@PBD0@Z 1007b1d0 f i Toolkit_Powerup.obj
 0001:0007a210       ?Create@?$ScriptRegistrant@VM00_Soldier_Powerup_Disable@@@@UAEPAVScriptImpClass@@XZ 1007b210 f i Toolkit_Powerup.obj
 0001:0007a2b0       ??0?$ScriptRegistrant@VM00_Powerup_Destroy@@@@QAE@PBD0@Z 1007b2b0 f i Toolkit_Powerup.obj
 0001:0007a2f0       ?Create@?$ScriptRegistrant@VM00_Powerup_Destroy@@@@UAEPAVScriptImpClass@@XZ 1007b2f0 f i Toolkit_Powerup.obj
 0001:0007a390       ??0?$ScriptRegistrant@VM00_Reveal_Enc_Building_DAY@@@@QAE@PBD0@Z 1007b390 f i Toolkit_Powerup.obj
 0001:0007a3d0       ?Create@?$ScriptRegistrant@VM00_Reveal_Enc_Building_DAY@@@@UAEPAVScriptImpClass@@XZ 1007b3d0 f i Toolkit_Powerup.obj
 0001:0007a470       ??0?$ScriptRegistrant@VM00_Reveal_Enc_Character_DAY@@@@QAE@PBD0@Z 1007b470 f i Toolkit_Powerup.obj
 0001:0007a4b0       ?Create@?$ScriptRegistrant@VM00_Reveal_Enc_Character_DAY@@@@UAEPAVScriptImpClass@@XZ 1007b4b0 f i Toolkit_Powerup.obj
 0001:0007a550       ??0?$ScriptRegistrant@VM00_Reveal_Enc_Vehicle_DAY@@@@QAE@PBD0@Z 1007b550 f i Toolkit_Powerup.obj
 0001:0007a590       ?Create@?$ScriptRegistrant@VM00_Reveal_Enc_Vehicle_DAY@@@@UAEPAVScriptImpClass@@XZ 1007b590 f i Toolkit_Powerup.obj
 0001:0007a630       ??0?$ScriptRegistrant@VM00_Reveal_Enc_Weapon_DAY@@@@QAE@PBD0@Z 1007b630 f i Toolkit_Powerup.obj
 0001:0007a670       ?Create@?$ScriptRegistrant@VM00_Reveal_Enc_Weapon_DAY@@@@UAEPAVScriptImpClass@@XZ 1007b670 f i Toolkit_Powerup.obj
 0001:0007a710       ??0?$ScriptRegistrant@VM00_GrantScore_Powerup@@@@QAE@PBD0@Z 1007b710 f i Toolkit_Powerup.obj
 0001:0007a750       ?Create@?$ScriptRegistrant@VM00_GrantScore_Powerup@@@@UAEPAVScriptImpClass@@XZ 1007b750 f i Toolkit_Powerup.obj
 0001:0007a7f0       ??0?$ScriptRegistrant@VM00_GrantMoney_Powerup@@@@QAE@PBD0@Z 1007b7f0 f i Toolkit_Powerup.obj
 0001:0007a830       ?Create@?$ScriptRegistrant@VM00_GrantMoney_Powerup@@@@UAEPAVScriptImpClass@@XZ 1007b830 f i Toolkit_Powerup.obj
 0001:0007a8d0       ??0?$ScriptRegistrant@VM00_Tiberium_Refinery@@@@QAE@PBD0@Z 1007b8d0 f i Toolkit_Powerup.obj
 0001:0007a910       ?Create@?$ScriptRegistrant@VM00_Tiberium_Refinery@@@@UAEPAVScriptImpClass@@XZ 1007b910 f i Toolkit_Powerup.obj
 0001:0007a9b0       ??0?$ScriptRegistrant@VM00_CNC_Crate@@@@QAE@PBD0@Z 1007b9b0 f i Toolkit_Powerup.obj
 0001:0007a9f0       ?Create@?$ScriptRegistrant@VM00_CNC_Crate@@@@UAEPAVScriptImpClass@@XZ 1007b9f0 f i Toolkit_Powerup.obj
 0001:0007aa90       ??0?$ScriptRegistrant@VM00_Death_Powerup@@@@QAE@PBD0@Z 1007ba90 f i Toolkit_Powerup.obj
 0001:0007aad0       ?Create@?$ScriptRegistrant@VM00_Death_Powerup@@@@UAEPAVScriptImpClass@@XZ 1007bad0 f i Toolkit_Powerup.obj
 0001:0007ab70       ??_E?$ScriptRegistrant@VM00_Soldier_Powerup_Grant@@@@UAEPAXI@Z 1007bb70 f i Toolkit_Powerup.obj
 0001:0007ab70       ??_G?$ScriptRegistrant@VM00_Soldier_Powerup_Grant@@@@UAEPAXI@Z 1007bb70 f i Toolkit_Powerup.obj
 0001:0007abc0       ??0M00_Soldier_Powerup_Grant@@QAE@XZ 1007bbc0 f i Toolkit_Powerup.obj
 0001:0007abf0       ?Register_Auto_Save_Variables@M00_Soldier_Powerup_Grant@@UAEXXZ 1007bbf0 f i Toolkit_Powerup.obj
 0001:0007ac20       ?Created@M00_Soldier_Powerup_Grant@@UAEXPAVScriptableGameObj@@@Z 1007bc20 f i Toolkit_Powerup.obj
 0001:0007ac50       ?Killed@M00_Soldier_Powerup_Grant@@UAEXPAVScriptableGameObj@@0@Z 1007bc50 f i Toolkit_Powerup.obj
 0001:0007afe0       ?Find_Powerup_Table_Index@M00_Soldier_Powerup_Grant@@QAEHPBD@Z 1007bfe0 f i Toolkit_Powerup.obj
 0001:0007b080       ?Custom@M00_Soldier_Powerup_Grant@@UAEXPAVScriptableGameObj@@HH0@Z 1007c080 f i Toolkit_Powerup.obj
 0001:0007b0b0       ??_G?$ScriptRegistrant@VM00_Soldier_Powerup_Disable@@@@UAEPAXI@Z 1007c0b0 f i Toolkit_Powerup.obj
 0001:0007b0b0       ??_E?$ScriptRegistrant@VM00_Soldier_Powerup_Disable@@@@UAEPAXI@Z 1007c0b0 f i Toolkit_Powerup.obj
 0001:0007b100       ??0M00_Soldier_Powerup_Disable@@QAE@XZ 1007c100 f i Toolkit_Powerup.obj
 0001:0007b130       ?Created@M00_Soldier_Powerup_Disable@@EAEXPAVScriptableGameObj@@@Z 1007c130 f i Toolkit_Powerup.obj
 0001:0007b170       ?Timer_Expired@M00_Soldier_Powerup_Disable@@EAEXPAVScriptableGameObj@@H@Z 1007c170 f i Toolkit_Powerup.obj
 0001:0007b1c0       ??_E?$ScriptRegistrant@VM00_Powerup_Destroy@@@@UAEPAXI@Z 1007c1c0 f i Toolkit_Powerup.obj
 0001:0007b1c0       ??_G?$ScriptRegistrant@VM00_Powerup_Destroy@@@@UAEPAXI@Z 1007c1c0 f i Toolkit_Powerup.obj
 0001:0007b210       ??0M00_Powerup_Destroy@@QAE@XZ 1007c210 f i Toolkit_Powerup.obj
 0001:0007b240       ?Created@M00_Powerup_Destroy@@EAEXPAVScriptableGameObj@@@Z 1007c240 f i Toolkit_Powerup.obj
 0001:0007b2b0       ?Timer_Expired@M00_Powerup_Destroy@@EAEXPAVScriptableGameObj@@H@Z 1007c2b0 f i Toolkit_Powerup.obj
 0001:0007b2f0       ??_E?$ScriptRegistrant@VM00_Reveal_Enc_Building_DAY@@@@UAEPAXI@Z 1007c2f0 f i Toolkit_Powerup.obj
 0001:0007b2f0       ??_G?$ScriptRegistrant@VM00_Reveal_Enc_Building_DAY@@@@UAEPAXI@Z 1007c2f0 f i Toolkit_Powerup.obj
 0001:0007b340       ??0M00_Reveal_Enc_Building_DAY@@QAE@XZ 1007c340 f i Toolkit_Powerup.obj
 0001:0007b370       ?Custom@M00_Reveal_Enc_Building_DAY@@EAEXPAVScriptableGameObj@@HH0@Z 1007c370 f i Toolkit_Powerup.obj
 0001:0007b3e0       ??_E?$ScriptRegistrant@VM00_Reveal_Enc_Character_DAY@@@@UAEPAXI@Z 1007c3e0 f i Toolkit_Powerup.obj
 0001:0007b3e0       ??_G?$ScriptRegistrant@VM00_Reveal_Enc_Character_DAY@@@@UAEPAXI@Z 1007c3e0 f i Toolkit_Powerup.obj
 0001:0007b430       ??0M00_Reveal_Enc_Character_DAY@@QAE@XZ 1007c430 f i Toolkit_Powerup.obj
 0001:0007b460       ?Custom@M00_Reveal_Enc_Character_DAY@@EAEXPAVScriptableGameObj@@HH0@Z 1007c460 f i Toolkit_Powerup.obj
 0001:0007b4d0       ??_G?$ScriptRegistrant@VM00_Reveal_Enc_Vehicle_DAY@@@@UAEPAXI@Z 1007c4d0 f i Toolkit_Powerup.obj
 0001:0007b4d0       ??_E?$ScriptRegistrant@VM00_Reveal_Enc_Vehicle_DAY@@@@UAEPAXI@Z 1007c4d0 f i Toolkit_Powerup.obj
 0001:0007b520       ??0M00_Reveal_Enc_Vehicle_DAY@@QAE@XZ 1007c520 f i Toolkit_Powerup.obj
 0001:0007b550       ?Custom@M00_Reveal_Enc_Vehicle_DAY@@EAEXPAVScriptableGameObj@@HH0@Z 1007c550 f i Toolkit_Powerup.obj
 0001:0007b5c0       ??_E?$ScriptRegistrant@VM00_Reveal_Enc_Weapon_DAY@@@@UAEPAXI@Z 1007c5c0 f i Toolkit_Powerup.obj
 0001:0007b5c0       ??_G?$ScriptRegistrant@VM00_Reveal_Enc_Weapon_DAY@@@@UAEPAXI@Z 1007c5c0 f i Toolkit_Powerup.obj
 0001:0007b610       ??0M00_Reveal_Enc_Weapon_DAY@@QAE@XZ 1007c610 f i Toolkit_Powerup.obj
 0001:0007b640       ?Custom@M00_Reveal_Enc_Weapon_DAY@@EAEXPAVScriptableGameObj@@HH0@Z 1007c640 f i Toolkit_Powerup.obj
 0001:0007b6b0       ??_G?$ScriptRegistrant@VM00_GrantScore_Powerup@@@@UAEPAXI@Z 1007c6b0 f i Toolkit_Powerup.obj
 0001:0007b6b0       ??_E?$ScriptRegistrant@VM00_GrantScore_Powerup@@@@UAEPAXI@Z 1007c6b0 f i Toolkit_Powerup.obj
 0001:0007b700       ??0M00_GrantScore_Powerup@@QAE@XZ 1007c700 f i Toolkit_Powerup.obj
 0001:0007b730       ?Custom@M00_GrantScore_Powerup@@EAEXPAVScriptableGameObj@@HH0@Z 1007c730 f i Toolkit_Powerup.obj
 0001:0007b800       ??_E?$ScriptRegistrant@VM00_GrantMoney_Powerup@@@@UAEPAXI@Z 1007c800 f i Toolkit_Powerup.obj
 0001:0007b800       ??_G?$ScriptRegistrant@VM00_GrantMoney_Powerup@@@@UAEPAXI@Z 1007c800 f i Toolkit_Powerup.obj
 0001:0007b850       ??0M00_GrantMoney_Powerup@@QAE@XZ 1007c850 f i Toolkit_Powerup.obj
 0001:0007b880       ?Custom@M00_GrantMoney_Powerup@@EAEXPAVScriptableGameObj@@HH0@Z 1007c880 f i Toolkit_Powerup.obj
 0001:0007b950       ??_G?$ScriptRegistrant@VM00_Tiberium_Refinery@@@@UAEPAXI@Z 1007c950 f i Toolkit_Powerup.obj
 0001:0007b950       ??_E?$ScriptRegistrant@VM00_Tiberium_Refinery@@@@UAEPAXI@Z 1007c950 f i Toolkit_Powerup.obj
 0001:0007b9a0       ??0M00_Tiberium_Refinery@@QAE@XZ 1007c9a0 f i Toolkit_Powerup.obj
 0001:0007b9d0       ?Created@M00_Tiberium_Refinery@@EAEXPAVScriptableGameObj@@@Z 1007c9d0 f i Toolkit_Powerup.obj
 0001:0007ba30       ?Timer_Expired@M00_Tiberium_Refinery@@EAEXPAVScriptableGameObj@@H@Z 1007ca30 f i Toolkit_Powerup.obj
 0001:0007bb00       ??_E?$ScriptRegistrant@VM00_CNC_Crate@@@@UAEPAXI@Z 1007cb00 f i Toolkit_Powerup.obj
 0001:0007bb00       ??_G?$ScriptRegistrant@VM00_CNC_Crate@@@@UAEPAXI@Z 1007cb00 f i Toolkit_Powerup.obj
 0001:0007bb50       ??0M00_CNC_Crate@@QAE@XZ   1007cb50 f i Toolkit_Powerup.obj
 0001:0007bb80       ?Custom@M00_CNC_Crate@@EAEXPAVScriptableGameObj@@HH0@Z 1007cb80 f i Toolkit_Powerup.obj
 0001:0007bbd0       ??_E?$ScriptRegistrant@VM00_Death_Powerup@@@@UAEPAXI@Z 1007cbd0 f i Toolkit_Powerup.obj
 0001:0007bbd0       ??_G?$ScriptRegistrant@VM00_Death_Powerup@@@@UAEPAXI@Z 1007cbd0 f i Toolkit_Powerup.obj
 0001:0007bc20       ??0M00_Death_Powerup@@QAE@XZ 1007cc20 f i Toolkit_Powerup.obj
 0001:0007bc50       ?Custom@M00_Death_Powerup@@EAEXPAVScriptableGameObj@@HH0@Z 1007cc50 f i Toolkit_Powerup.obj
 0001:0007bcb0       ??_EM00_Soldier_Powerup_Grant@@UAEPAXI@Z 1007ccb0 f i Toolkit_Powerup.obj
 0001:0007bcb0       ??_GM00_Soldier_Powerup_Grant@@UAEPAXI@Z 1007ccb0 f i Toolkit_Powerup.obj
 0001:0007bd00       ??_GM00_Soldier_Powerup_Disable@@UAEPAXI@Z 1007cd00 f i Toolkit_Powerup.obj
 0001:0007bd00       ??_EM00_Soldier_Powerup_Disable@@UAEPAXI@Z 1007cd00 f i Toolkit_Powerup.obj
 0001:0007bd50       ??_EM00_Powerup_Destroy@@UAEPAXI@Z 1007cd50 f i Toolkit_Powerup.obj
 0001:0007bd50       ??_GM00_Powerup_Destroy@@UAEPAXI@Z 1007cd50 f i Toolkit_Powerup.obj
 0001:0007bda0       ??_EM00_Reveal_Enc_Building_DAY@@UAEPAXI@Z 1007cda0 f i Toolkit_Powerup.obj
 0001:0007bda0       ??_GM00_Reveal_Enc_Building_DAY@@UAEPAXI@Z 1007cda0 f i Toolkit_Powerup.obj
 0001:0007bdf0       ??_GM00_Reveal_Enc_Character_DAY@@UAEPAXI@Z 1007cdf0 f i Toolkit_Powerup.obj
 0001:0007bdf0       ??_EM00_Reveal_Enc_Character_DAY@@UAEPAXI@Z 1007cdf0 f i Toolkit_Powerup.obj
 0001:0007be40       ??_GM00_Reveal_Enc_Vehicle_DAY@@UAEPAXI@Z 1007ce40 f i Toolkit_Powerup.obj
 0001:0007be40       ??_EM00_Reveal_Enc_Vehicle_DAY@@UAEPAXI@Z 1007ce40 f i Toolkit_Powerup.obj
 0001:0007be90       ??_EM00_Reveal_Enc_Weapon_DAY@@UAEPAXI@Z 1007ce90 f i Toolkit_Powerup.obj
 0001:0007be90       ??_GM00_Reveal_Enc_Weapon_DAY@@UAEPAXI@Z 1007ce90 f i Toolkit_Powerup.obj
 0001:0007bee0       ??_EM00_GrantScore_Powerup@@UAEPAXI@Z 1007cee0 f i Toolkit_Powerup.obj
 0001:0007bee0       ??_GM00_GrantScore_Powerup@@UAEPAXI@Z 1007cee0 f i Toolkit_Powerup.obj
 0001:0007bf30       ??_GM00_GrantMoney_Powerup@@UAEPAXI@Z 1007cf30 f i Toolkit_Powerup.obj
 0001:0007bf30       ??_EM00_GrantMoney_Powerup@@UAEPAXI@Z 1007cf30 f i Toolkit_Powerup.obj
 0001:0007bf80       ??_GM00_Tiberium_Refinery@@UAEPAXI@Z 1007cf80 f i Toolkit_Powerup.obj
 0001:0007bf80       ??_EM00_Tiberium_Refinery@@UAEPAXI@Z 1007cf80 f i Toolkit_Powerup.obj
 0001:0007bfd0       ??_GM00_CNC_Crate@@UAEPAXI@Z 1007cfd0 f i Toolkit_Powerup.obj
 0001:0007bfd0       ??_EM00_CNC_Crate@@UAEPAXI@Z 1007cfd0 f i Toolkit_Powerup.obj
 0001:0007c020       ??_EM00_Death_Powerup@@UAEPAXI@Z 1007d020 f i Toolkit_Powerup.obj
 0001:0007c020       ??_GM00_Death_Powerup@@UAEPAXI@Z 1007d020 f i Toolkit_Powerup.obj
 0001:0007c070       ??1M00_Soldier_Powerup_Grant@@UAE@XZ 1007d070 f i Toolkit_Powerup.obj
 0001:0007c0a0       ??1M00_Soldier_Powerup_Disable@@UAE@XZ 1007d0a0 f i Toolkit_Powerup.obj
 0001:0007c0d0       ??1M00_Powerup_Destroy@@UAE@XZ 1007d0d0 f i Toolkit_Powerup.obj
 0001:0007c100       ??1M00_Reveal_Enc_Building_DAY@@UAE@XZ 1007d100 f i Toolkit_Powerup.obj
 0001:0007c130       ??1M00_Reveal_Enc_Character_DAY@@UAE@XZ 1007d130 f i Toolkit_Powerup.obj
 0001:0007c160       ??1M00_Reveal_Enc_Vehicle_DAY@@UAE@XZ 1007d160 f i Toolkit_Powerup.obj
 0001:0007c190       ??1M00_Reveal_Enc_Weapon_DAY@@UAE@XZ 1007d190 f i Toolkit_Powerup.obj
 0001:0007c1c0       ??1M00_GrantScore_Powerup@@UAE@XZ 1007d1c0 f i Toolkit_Powerup.obj
 0001:0007c1f0       ??1M00_GrantMoney_Powerup@@UAE@XZ 1007d1f0 f i Toolkit_Powerup.obj
 0001:0007c220       ??1M00_Tiberium_Refinery@@UAE@XZ 1007d220 f i Toolkit_Powerup.obj
 0001:0007c250       ??1M00_CNC_Crate@@UAE@XZ   1007d250 f i Toolkit_Powerup.obj
 0001:0007c280       ??1M00_Death_Powerup@@UAE@XZ 1007d280 f i Toolkit_Powerup.obj
 0001:0007c350       ??1?$ScriptRegistrant@VM00_Siege_Zone_RAD@@@@UAE@XZ 1007d350 f i Toolkit_Siege.obj
 0001:0007c420       ??1?$ScriptRegistrant@VM00_Siege_Actor_RAD@@@@UAE@XZ 1007d420 f i Toolkit_Siege.obj
 0001:0007c450       ??0?$ScriptRegistrant@VM00_Siege_Zone_RAD@@@@QAE@PBD0@Z 1007d450 f i Toolkit_Siege.obj
 0001:0007c490       ?Create@?$ScriptRegistrant@VM00_Siege_Zone_RAD@@@@UAEPAVScriptImpClass@@XZ 1007d490 f i Toolkit_Siege.obj
 0001:0007c530       ??0?$ScriptRegistrant@VM00_Siege_Actor_RAD@@@@QAE@PBD0@Z 1007d530 f i Toolkit_Siege.obj
 0001:0007c570       ?Create@?$ScriptRegistrant@VM00_Siege_Actor_RAD@@@@UAEPAVScriptImpClass@@XZ 1007d570 f i Toolkit_Siege.obj
 0001:0007c610       ??_G?$ScriptRegistrant@VM00_Siege_Zone_RAD@@@@UAEPAXI@Z 1007d610 f i Toolkit_Siege.obj
 0001:0007c610       ??_E?$ScriptRegistrant@VM00_Siege_Zone_RAD@@@@UAEPAXI@Z 1007d610 f i Toolkit_Siege.obj
 0001:0007c660       ??0M00_Siege_Zone_RAD@@QAE@XZ 1007d660 f i Toolkit_Siege.obj
 0001:0007c690       ?Created@M00_Siege_Zone_RAD@@EAEXPAVScriptableGameObj@@@Z 1007d690 f i Toolkit_Siege.obj
 0001:0007c760       ?Timer_Expired@M00_Siege_Zone_RAD@@EAEXPAVScriptableGameObj@@H@Z 1007d760 f i Toolkit_Siege.obj
 0001:0007c8b0       ?Custom@M00_Siege_Zone_RAD@@EAEXPAVScriptableGameObj@@HH0@Z 1007d8b0 f i Toolkit_Siege.obj
 0001:0007caf0       ??_E?$ScriptRegistrant@VM00_Siege_Actor_RAD@@@@UAEPAXI@Z 1007daf0 f i Toolkit_Siege.obj
 0001:0007caf0       ??_G?$ScriptRegistrant@VM00_Siege_Actor_RAD@@@@UAEPAXI@Z 1007daf0 f i Toolkit_Siege.obj
 0001:0007cb40       ??0M00_Siege_Actor_RAD@@QAE@XZ 1007db40 f i Toolkit_Siege.obj
 0001:0007cb70       ?Created@M00_Siege_Actor_RAD@@EAEXPAVScriptableGameObj@@@Z 1007db70 f i Toolkit_Siege.obj
 0001:0007cc00       ?Sound_Heard@M00_Siege_Actor_RAD@@EAEXPAVScriptableGameObj@@ABVCombatSound@@@Z 1007dc00 f i Toolkit_Siege.obj
 0001:0007cc80       ?Custom@M00_Siege_Actor_RAD@@EAEXPAVScriptableGameObj@@HH0@Z 1007dc80 f i Toolkit_Siege.obj
 0001:0007cda0       ?Destroyed@M00_Siege_Actor_RAD@@EAEXPAVScriptableGameObj@@@Z 1007dda0 f i Toolkit_Siege.obj
 0001:0007ce30       ??_EM00_Siege_Zone_RAD@@UAEPAXI@Z 1007de30 f i Toolkit_Siege.obj
 0001:0007ce30       ??_GM00_Siege_Zone_RAD@@UAEPAXI@Z 1007de30 f i Toolkit_Siege.obj
 0001:0007ce80       ??_GM00_Siege_Actor_RAD@@UAEPAXI@Z 1007de80 f i Toolkit_Siege.obj
 0001:0007ce80       ??_EM00_Siege_Actor_RAD@@UAEPAXI@Z 1007de80 f i Toolkit_Siege.obj
 0001:0007ced0       ??1M00_Siege_Zone_RAD@@UAE@XZ 1007ded0 f i Toolkit_Siege.obj
 0001:0007cf00       ??1M00_Siege_Actor_RAD@@UAE@XZ 1007df00 f i Toolkit_Siege.obj
 0001:0007cf30       ?M00_Controller_Sound_RAD@@YAXPAVScriptableGameObj@@ABVVector3@@PBD_N@Z 1007df30 f   Toolkit_Sounds.obj
 0001:0007d030       ??1?$ScriptRegistrant@VM00_Sound_Play_2D_RAD@@@@UAE@XZ 1007e030 f i Toolkit_Sounds.obj
 0001:0007d100       ??1?$ScriptRegistrant@VM00_Sound_Play_3D_On_Object_RAD@@@@UAE@XZ 1007e100 f i Toolkit_Sounds.obj
 0001:0007d1d0       ??1?$ScriptRegistrant@VM00_Sound_Play_3D_At_Location_RMV@@@@UAE@XZ 1007e1d0 f i Toolkit_Sounds.obj
 0001:0007d2a0       ??1?$ScriptRegistrant@VM00_Sound_Play_3D_At_Bone_RMV@@@@UAE@XZ 1007e2a0 f i Toolkit_Sounds.obj
 0001:0007d370       ??1?$ScriptRegistrant@VM00_Sound_Building_Ambient_RAD@@@@UAE@XZ 1007e370 f i Toolkit_Sounds.obj
 0001:0007d440       ??1?$ScriptRegistrant@VRMV_Audio_Timer_Delay@@@@UAE@XZ 1007e440 f i Toolkit_Sounds.obj
 0001:0007d510       ??1?$ScriptRegistrant@VRMV_Audio_Sound_Player_WAV@@@@UAE@XZ 1007e510 f i Toolkit_Sounds.obj
 0001:0007d5e0       ??1?$ScriptRegistrant@VRMV_Audio_Sound_Player_Preset@@@@UAE@XZ 1007e5e0 f i Toolkit_Sounds.obj
 0001:0007d6b0       ??1?$ScriptRegistrant@VRMV_Sound_Play_Near_Player@@@@UAE@XZ 1007e6b0 f i Toolkit_Sounds.obj
 0001:0007d780       ??1?$ScriptRegistrant@VM00_BuildingStateSoundSpeaker@@@@UAE@XZ 1007e780 f i Toolkit_Sounds.obj
 0001:0007d850       ??1?$ScriptRegistrant@VM00_BuildingStateSoundController@@@@UAE@XZ 1007e850 f i Toolkit_Sounds.obj
 0001:0007d880       ??0?$ScriptRegistrant@VM00_Sound_Play_2D_RAD@@@@QAE@PBD0@Z 1007e880 f i Toolkit_Sounds.obj
 0001:0007d8c0       ?Create@?$ScriptRegistrant@VM00_Sound_Play_2D_RAD@@@@UAEPAVScriptImpClass@@XZ 1007e8c0 f i Toolkit_Sounds.obj
 0001:0007d960       ??0?$ScriptRegistrant@VM00_Sound_Play_3D_On_Object_RAD@@@@QAE@PBD0@Z 1007e960 f i Toolkit_Sounds.obj
 0001:0007d9a0       ?Create@?$ScriptRegistrant@VM00_Sound_Play_3D_On_Object_RAD@@@@UAEPAVScriptImpClass@@XZ 1007e9a0 f i Toolkit_Sounds.obj
 0001:0007da40       ??0?$ScriptRegistrant@VM00_Sound_Play_3D_At_Location_RMV@@@@QAE@PBD0@Z 1007ea40 f i Toolkit_Sounds.obj
 0001:0007da80       ?Create@?$ScriptRegistrant@VM00_Sound_Play_3D_At_Location_RMV@@@@UAEPAVScriptImpClass@@XZ 1007ea80 f i Toolkit_Sounds.obj
 0001:0007db20       ??0?$ScriptRegistrant@VM00_Sound_Play_3D_At_Bone_RMV@@@@QAE@PBD0@Z 1007eb20 f i Toolkit_Sounds.obj
 0001:0007db60       ?Create@?$ScriptRegistrant@VM00_Sound_Play_3D_At_Bone_RMV@@@@UAEPAVScriptImpClass@@XZ 1007eb60 f i Toolkit_Sounds.obj
 0001:0007dc00       ??0?$ScriptRegistrant@VM00_Sound_Building_Ambient_RAD@@@@QAE@PBD0@Z 1007ec00 f i Toolkit_Sounds.obj
 0001:0007dc40       ?Create@?$ScriptRegistrant@VM00_Sound_Building_Ambient_RAD@@@@UAEPAVScriptImpClass@@XZ 1007ec40 f i Toolkit_Sounds.obj
 0001:0007dce0       ??0?$ScriptRegistrant@VRMV_Audio_Timer_Delay@@@@QAE@PBD0@Z 1007ece0 f i Toolkit_Sounds.obj
 0001:0007dd20       ?Create@?$ScriptRegistrant@VRMV_Audio_Timer_Delay@@@@UAEPAVScriptImpClass@@XZ 1007ed20 f i Toolkit_Sounds.obj
 0001:0007ddc0       ??0?$ScriptRegistrant@VRMV_Audio_Sound_Player_WAV@@@@QAE@PBD0@Z 1007edc0 f i Toolkit_Sounds.obj
 0001:0007de00       ?Create@?$ScriptRegistrant@VRMV_Audio_Sound_Player_WAV@@@@UAEPAVScriptImpClass@@XZ 1007ee00 f i Toolkit_Sounds.obj
 0001:0007dea0       ??0?$ScriptRegistrant@VRMV_Audio_Sound_Player_Preset@@@@QAE@PBD0@Z 1007eea0 f i Toolkit_Sounds.obj
 0001:0007dee0       ?Create@?$ScriptRegistrant@VRMV_Audio_Sound_Player_Preset@@@@UAEPAVScriptImpClass@@XZ 1007eee0 f i Toolkit_Sounds.obj
 0001:0007df80       ??0?$ScriptRegistrant@VRMV_Sound_Play_Near_Player@@@@QAE@PBD0@Z 1007ef80 f i Toolkit_Sounds.obj
 0001:0007dfc0       ?Create@?$ScriptRegistrant@VRMV_Sound_Play_Near_Player@@@@UAEPAVScriptImpClass@@XZ 1007efc0 f i Toolkit_Sounds.obj
 0001:0007e060       ??0?$ScriptRegistrant@VM00_BuildingStateSoundSpeaker@@@@QAE@PBD0@Z 1007f060 f i Toolkit_Sounds.obj
 0001:0007e0a0       ?Create@?$ScriptRegistrant@VM00_BuildingStateSoundSpeaker@@@@UAEPAVScriptImpClass@@XZ 1007f0a0 f i Toolkit_Sounds.obj
 0001:0007e140       ??0?$ScriptRegistrant@VM00_BuildingStateSoundController@@@@QAE@PBD0@Z 1007f140 f i Toolkit_Sounds.obj
 0001:0007e180       ?Create@?$ScriptRegistrant@VM00_BuildingStateSoundController@@@@UAEPAVScriptImpClass@@XZ 1007f180 f i Toolkit_Sounds.obj
 0001:0007e220       ??_G?$ScriptRegistrant@VM00_Sound_Play_2D_RAD@@@@UAEPAXI@Z 1007f220 f i Toolkit_Sounds.obj
 0001:0007e220       ??_E?$ScriptRegistrant@VM00_Sound_Play_2D_RAD@@@@UAEPAXI@Z 1007f220 f i Toolkit_Sounds.obj
 0001:0007e270       ??0M00_Sound_Play_2D_RAD@@QAE@XZ 1007f270 f i Toolkit_Sounds.obj
 0001:0007e2a0       ?Created@M00_Sound_Play_2D_RAD@@EAEXPAVScriptableGameObj@@@Z 1007f2a0 f i Toolkit_Sounds.obj
 0001:0007e3b0       ?Custom@M00_Sound_Play_2D_RAD@@EAEXPAVScriptableGameObj@@HH0@Z 1007f3b0 f i Toolkit_Sounds.obj
 0001:0007e4b0       ?Timer_Expired@M00_Sound_Play_2D_RAD@@EAEXPAVScriptableGameObj@@H@Z 1007f4b0 f i Toolkit_Sounds.obj
 0001:0007e5d0       ??_E?$ScriptRegistrant@VM00_Sound_Play_3D_On_Object_RAD@@@@UAEPAXI@Z 1007f5d0 f i Toolkit_Sounds.obj
 0001:0007e5d0       ??_G?$ScriptRegistrant@VM00_Sound_Play_3D_On_Object_RAD@@@@UAEPAXI@Z 1007f5d0 f i Toolkit_Sounds.obj
 0001:0007e620       ??0M00_Sound_Play_3D_On_Object_RAD@@QAE@XZ 1007f620 f i Toolkit_Sounds.obj
 0001:0007e660       ?Created@M00_Sound_Play_3D_On_Object_RAD@@EAEXPAVScriptableGameObj@@@Z 1007f660 f i Toolkit_Sounds.obj
 0001:0007e770       ?Custom@M00_Sound_Play_3D_On_Object_RAD@@EAEXPAVScriptableGameObj@@HH0@Z 1007f770 f i Toolkit_Sounds.obj
 0001:0007e940       ?Timer_Expired@M00_Sound_Play_3D_On_Object_RAD@@EAEXPAVScriptableGameObj@@H@Z 1007f940 f i Toolkit_Sounds.obj
 0001:0007e9d0       ?Play_The_Sound@M00_Sound_Play_3D_On_Object_RAD@@AAEXPAVScriptableGameObj@@@Z 1007f9d0 f i Toolkit_Sounds.obj
 0001:0007eb70       ??_E?$ScriptRegistrant@VM00_Sound_Play_3D_At_Location_RMV@@@@UAEPAXI@Z 1007fb70 f i Toolkit_Sounds.obj
 0001:0007eb70       ??_G?$ScriptRegistrant@VM00_Sound_Play_3D_At_Location_RMV@@@@UAEPAXI@Z 1007fb70 f i Toolkit_Sounds.obj
 0001:0007ebc0       ??0M00_Sound_Play_3D_At_Location_RMV@@QAE@XZ 1007fbc0 f i Toolkit_Sounds.obj
 0001:0007ec00       ?Created@M00_Sound_Play_3D_At_Location_RMV@@EAEXPAVScriptableGameObj@@@Z 1007fc00 f i Toolkit_Sounds.obj
 0001:0007ed30       ?Custom@M00_Sound_Play_3D_At_Location_RMV@@EAEXPAVScriptableGameObj@@HH0@Z 1007fd30 f i Toolkit_Sounds.obj
 0001:0007ee20       ?Timer_Expired@M00_Sound_Play_3D_At_Location_RMV@@EAEXPAVScriptableGameObj@@H@Z 1007fe20 f i Toolkit_Sounds.obj
 0001:0007ef40       ??_G?$ScriptRegistrant@VM00_Sound_Play_3D_At_Bone_RMV@@@@UAEPAXI@Z 1007ff40 f i Toolkit_Sounds.obj
 0001:0007ef40       ??_E?$ScriptRegistrant@VM00_Sound_Play_3D_At_Bone_RMV@@@@UAEPAXI@Z 1007ff40 f i Toolkit_Sounds.obj
 0001:0007ef90       ??0M00_Sound_Play_3D_At_Bone_RMV@@QAE@XZ 1007ff90 f i Toolkit_Sounds.obj
 0001:0007efd0       ?Created@M00_Sound_Play_3D_At_Bone_RMV@@EAEXPAVScriptableGameObj@@@Z 1007ffd0 f i Toolkit_Sounds.obj
 0001:0007f0e0       ?Custom@M00_Sound_Play_3D_At_Bone_RMV@@EAEXPAVScriptableGameObj@@HH0@Z 100800e0 f i Toolkit_Sounds.obj
 0001:0007f240       ?Timer_Expired@M00_Sound_Play_3D_At_Bone_RMV@@EAEXPAVScriptableGameObj@@H@Z 10080240 f i Toolkit_Sounds.obj
 0001:0007f3c0       ??_E?$ScriptRegistrant@VM00_Sound_Building_Ambient_RAD@@@@UAEPAXI@Z 100803c0 f i Toolkit_Sounds.obj
 0001:0007f3c0       ??_G?$ScriptRegistrant@VM00_Sound_Building_Ambient_RAD@@@@UAEPAXI@Z 100803c0 f i Toolkit_Sounds.obj
 0001:0007f410       ??0M00_Sound_Building_Ambient_RAD@@QAE@XZ 10080410 f i Toolkit_Sounds.obj
 0001:0007f440       ??_E?$ScriptRegistrant@VRMV_Audio_Timer_Delay@@@@UAEPAXI@Z 10080440 f i Toolkit_Sounds.obj
 0001:0007f440       ??_G?$ScriptRegistrant@VRMV_Audio_Timer_Delay@@@@UAEPAXI@Z 10080440 f i Toolkit_Sounds.obj
 0001:0007f490       ??0RMV_Audio_Timer_Delay@@QAE@XZ 10080490 f i Toolkit_Sounds.obj
 0001:0007f4c0       ?Created@RMV_Audio_Timer_Delay@@EAEXPAVScriptableGameObj@@@Z 100804c0 f i Toolkit_Sounds.obj
 0001:0007f700       ?Timer_Expired@RMV_Audio_Timer_Delay@@EAEXPAVScriptableGameObj@@H@Z 10080700 f i Toolkit_Sounds.obj
 0001:0007f7c0       ??_E?$ScriptRegistrant@VRMV_Audio_Sound_Player_WAV@@@@UAEPAXI@Z 100807c0 f i Toolkit_Sounds.obj
 0001:0007f7c0       ??_G?$ScriptRegistrant@VRMV_Audio_Sound_Player_WAV@@@@UAEPAXI@Z 100807c0 f i Toolkit_Sounds.obj
 0001:0007f810       ??0RMV_Audio_Sound_Player_WAV@@QAE@XZ 10080810 f i Toolkit_Sounds.obj
 0001:0007f840       ?Created@RMV_Audio_Sound_Player_WAV@@EAEXPAVScriptableGameObj@@@Z 10080840 f i Toolkit_Sounds.obj
 0001:0007f8b0       ?Custom@RMV_Audio_Sound_Player_WAV@@EAEXPAVScriptableGameObj@@HH0@Z 100808b0 f i Toolkit_Sounds.obj
 0001:0007f950       ??_E?$ScriptRegistrant@VRMV_Audio_Sound_Player_Preset@@@@UAEPAXI@Z 10080950 f i Toolkit_Sounds.obj
 0001:0007f950       ??_G?$ScriptRegistrant@VRMV_Audio_Sound_Player_Preset@@@@UAEPAXI@Z 10080950 f i Toolkit_Sounds.obj
 0001:0007f9a0       ??0RMV_Audio_Sound_Player_Preset@@QAE@XZ 100809a0 f i Toolkit_Sounds.obj
 0001:0007f9e0       ?Created@RMV_Audio_Sound_Player_Preset@@EAEXPAVScriptableGameObj@@@Z 100809e0 f i Toolkit_Sounds.obj
 0001:0007fa50       ?Custom@RMV_Audio_Sound_Player_Preset@@EAEXPAVScriptableGameObj@@HH0@Z 10080a50 f i Toolkit_Sounds.obj
 0001:0007fac0       ??_E?$ScriptRegistrant@VRMV_Sound_Play_Near_Player@@@@UAEPAXI@Z 10080ac0 f i Toolkit_Sounds.obj
 0001:0007fac0       ??_G?$ScriptRegistrant@VRMV_Sound_Play_Near_Player@@@@UAEPAXI@Z 10080ac0 f i Toolkit_Sounds.obj
 0001:0007fb10       ??0RMV_Sound_Play_Near_Player@@QAE@XZ 10080b10 f i Toolkit_Sounds.obj
 0001:0007fb60       ?Created@RMV_Sound_Play_Near_Player@@EAEXPAVScriptableGameObj@@@Z 10080b60 f i Toolkit_Sounds.obj
 0001:0007fbe0       ?Custom@RMV_Sound_Play_Near_Player@@EAEXPAVScriptableGameObj@@HH0@Z 10080be0 f i Toolkit_Sounds.obj
 0001:0007fc60       ?Timer_Expired@RMV_Sound_Play_Near_Player@@EAEXPAVScriptableGameObj@@H@Z 10080c60 f i Toolkit_Sounds.obj
 0001:0007fe70       ??_E?$ScriptRegistrant@VM00_BuildingStateSoundSpeaker@@@@UAEPAXI@Z 10080e70 f i Toolkit_Sounds.obj
 0001:0007fe70       ??_G?$ScriptRegistrant@VM00_BuildingStateSoundSpeaker@@@@UAEPAXI@Z 10080e70 f i Toolkit_Sounds.obj
 0001:0007fec0       ??0M00_BuildingStateSoundSpeaker@@QAE@XZ 10080ec0 f i Toolkit_Sounds.obj
 0001:0007fef0       ?Register_Auto_Save_Variables@M00_BuildingStateSoundSpeaker@@UAEXXZ 10080ef0 f i Toolkit_Sounds.obj
 0001:0007ff40       ?Created@M00_BuildingStateSoundSpeaker@@UAEXPAVScriptableGameObj@@@Z 10080f40 f i Toolkit_Sounds.obj
 0001:00080080       ?Timer_Expired@M00_BuildingStateSoundSpeaker@@UAEXPAVScriptableGameObj@@H@Z 10081080 f i Toolkit_Sounds.obj
 0001:00080400       ?Custom@M00_BuildingStateSoundSpeaker@@UAEXPAVScriptableGameObj@@HH0@Z 10081400 f i Toolkit_Sounds.obj
 0001:000806e0       ??_G?$ScriptRegistrant@VM00_BuildingStateSoundController@@@@UAEPAXI@Z 100816e0 f i Toolkit_Sounds.obj
 0001:000806e0       ??_E?$ScriptRegistrant@VM00_BuildingStateSoundController@@@@UAEPAXI@Z 100816e0 f i Toolkit_Sounds.obj
 0001:00080730       ??0M00_BuildingStateSoundController@@QAE@XZ 10081730 f i Toolkit_Sounds.obj
 0001:00080760       ?Register_Auto_Save_Variables@M00_BuildingStateSoundController@@UAEXXZ 10081760 f i Toolkit_Sounds.obj
 0001:00080790       ?Created@M00_BuildingStateSoundController@@UAEXPAVScriptableGameObj@@@Z 10081790 f i Toolkit_Sounds.obj
 0001:000807d0       ?Killed@M00_BuildingStateSoundController@@UAEXPAVScriptableGameObj@@0@Z 100817d0 f i Toolkit_Sounds.obj
 0001:00080860       ?Custom@M00_BuildingStateSoundController@@UAEXPAVScriptableGameObj@@HH0@Z 10081860 f i Toolkit_Sounds.obj
 0001:00080930       ??_GM00_Sound_Play_2D_RAD@@UAEPAXI@Z 10081930 f i Toolkit_Sounds.obj
 0001:00080930       ??_EM00_Sound_Play_2D_RAD@@UAEPAXI@Z 10081930 f i Toolkit_Sounds.obj
 0001:00080980       ??_GM00_Sound_Play_3D_On_Object_RAD@@UAEPAXI@Z 10081980 f i Toolkit_Sounds.obj
 0001:00080980       ??_EM00_Sound_Play_3D_On_Object_RAD@@UAEPAXI@Z 10081980 f i Toolkit_Sounds.obj
 0001:000809d0       ??_EM00_Sound_Play_3D_At_Location_RMV@@UAEPAXI@Z 100819d0 f i Toolkit_Sounds.obj
 0001:000809d0       ??_GM00_Sound_Play_3D_At_Location_RMV@@UAEPAXI@Z 100819d0 f i Toolkit_Sounds.obj
 0001:00080a20       ??_GM00_Sound_Play_3D_At_Bone_RMV@@UAEPAXI@Z 10081a20 f i Toolkit_Sounds.obj
 0001:00080a20       ??_EM00_Sound_Play_3D_At_Bone_RMV@@UAEPAXI@Z 10081a20 f i Toolkit_Sounds.obj
 0001:00080a70       ??_GM00_Sound_Building_Ambient_RAD@@UAEPAXI@Z 10081a70 f i Toolkit_Sounds.obj
 0001:00080a70       ??_EM00_Sound_Building_Ambient_RAD@@UAEPAXI@Z 10081a70 f i Toolkit_Sounds.obj
 0001:00080ac0       ??_ERMV_Audio_Timer_Delay@@UAEPAXI@Z 10081ac0 f i Toolkit_Sounds.obj
 0001:00080ac0       ??_GRMV_Audio_Timer_Delay@@UAEPAXI@Z 10081ac0 f i Toolkit_Sounds.obj
 0001:00080b10       ??_GRMV_Audio_Sound_Player_WAV@@UAEPAXI@Z 10081b10 f i Toolkit_Sounds.obj
 0001:00080b10       ??_ERMV_Audio_Sound_Player_WAV@@UAEPAXI@Z 10081b10 f i Toolkit_Sounds.obj
 0001:00080b60       ??_ERMV_Audio_Sound_Player_Preset@@UAEPAXI@Z 10081b60 f i Toolkit_Sounds.obj
 0001:00080b60       ??_GRMV_Audio_Sound_Player_Preset@@UAEPAXI@Z 10081b60 f i Toolkit_Sounds.obj
 0001:00080bb0       ??_GRMV_Sound_Play_Near_Player@@UAEPAXI@Z 10081bb0 f i Toolkit_Sounds.obj
 0001:00080bb0       ??_ERMV_Sound_Play_Near_Player@@UAEPAXI@Z 10081bb0 f i Toolkit_Sounds.obj
 0001:00080c00       ??_EM00_BuildingStateSoundSpeaker@@UAEPAXI@Z 10081c00 f i Toolkit_Sounds.obj
 0001:00080c00       ??_GM00_BuildingStateSoundSpeaker@@UAEPAXI@Z 10081c00 f i Toolkit_Sounds.obj
 0001:00080c50       ??_GM00_BuildingStateSoundController@@UAEPAXI@Z 10081c50 f i Toolkit_Sounds.obj
 0001:00080c50       ??_EM00_BuildingStateSoundController@@UAEPAXI@Z 10081c50 f i Toolkit_Sounds.obj
 0001:00080ca0       ??1M00_Sound_Play_2D_RAD@@UAE@XZ 10081ca0 f i Toolkit_Sounds.obj
 0001:00080cd0       ??1M00_Sound_Play_3D_On_Object_RAD@@UAE@XZ 10081cd0 f i Toolkit_Sounds.obj
 0001:00080d00       ??1M00_Sound_Play_3D_At_Location_RMV@@UAE@XZ 10081d00 f i Toolkit_Sounds.obj
 0001:00080d30       ??1M00_Sound_Play_3D_At_Bone_RMV@@UAE@XZ 10081d30 f i Toolkit_Sounds.obj
 0001:00080d60       ??1M00_Sound_Building_Ambient_RAD@@UAE@XZ 10081d60 f i Toolkit_Sounds.obj
 0001:00080d90       ??1RMV_Audio_Timer_Delay@@UAE@XZ 10081d90 f i Toolkit_Sounds.obj
 0001:00080dc0       ??1RMV_Audio_Sound_Player_WAV@@UAE@XZ 10081dc0 f i Toolkit_Sounds.obj
 0001:00080df0       ??1RMV_Audio_Sound_Player_Preset@@UAE@XZ 10081df0 f i Toolkit_Sounds.obj
 0001:00080e20       ??1RMV_Sound_Play_Near_Player@@UAE@XZ 10081e20 f i Toolkit_Sounds.obj
 0001:00080e50       ??1M00_BuildingStateSoundSpeaker@@UAE@XZ 10081e50 f i Toolkit_Sounds.obj
 0001:00080e80       ??1M00_BuildingStateSoundController@@UAE@XZ 10081e80 f i Toolkit_Sounds.obj
 0001:00080f50       ??1?$ScriptRegistrant@VM00_Spawner_Controller_RMV@@@@UAE@XZ 10081f50 f i Toolkit_Spawners.obj
 0001:00080f80       ??0?$ScriptRegistrant@VM00_Spawner_Controller_RMV@@@@QAE@PBD0@Z 10081f80 f i Toolkit_Spawners.obj
 0001:00080fc0       ?Create@?$ScriptRegistrant@VM00_Spawner_Controller_RMV@@@@UAEPAVScriptImpClass@@XZ 10081fc0 f i Toolkit_Spawners.obj
 0001:00081060       ??_E?$ScriptRegistrant@VM00_Spawner_Controller_RMV@@@@UAEPAXI@Z 10082060 f i Toolkit_Spawners.obj
 0001:00081060       ??_G?$ScriptRegistrant@VM00_Spawner_Controller_RMV@@@@UAEPAXI@Z 10082060 f i Toolkit_Spawners.obj
 0001:000810b0       ??0M00_Spawner_Controller_RMV@@QAE@XZ 100820b0 f i Toolkit_Spawners.obj
 0001:000810e0       ?Created@M00_Spawner_Controller_RMV@@EAEXPAVScriptableGameObj@@@Z 100820e0 f i Toolkit_Spawners.obj
 0001:000811a0       ?Custom@M00_Spawner_Controller_RMV@@EAEXPAVScriptableGameObj@@HH0@Z 100821a0 f i Toolkit_Spawners.obj
 0001:00081260       ??_GM00_Spawner_Controller_RMV@@UAEPAXI@Z 10082260 f i Toolkit_Spawners.obj
 0001:00081260       ??_EM00_Spawner_Controller_RMV@@UAEPAXI@Z 10082260 f i Toolkit_Spawners.obj
 0001:000812b0       ??1M00_Spawner_Controller_RMV@@UAE@XZ 100822b0 f i Toolkit_Spawners.obj
 0001:000812e0       ?M00_Controller_Trigger_RMV@@YAXPAVScriptableGameObj@@0MMHH@Z 100822e0 f   Toolkit_Triggers.obj
 0001:000814c0       ??1?$ScriptRegistrant@VM00_Trigger_When_Killed_RMV@@@@UAE@XZ 100824c0 f i Toolkit_Triggers.obj
 0001:00081590       ??1?$ScriptRegistrant@VM00_Trigger_When_Destroyed_RMV@@@@UAE@XZ 10082590 f i Toolkit_Triggers.obj
 0001:00081660       ??1?$ScriptRegistrant@VM00_Trigger_When_Created_RMV@@@@UAE@XZ 10082660 f i Toolkit_Triggers.obj
 0001:00081730       ??1?$ScriptRegistrant@VM00_Trigger_Zone_Entered_RMV@@@@UAE@XZ 10082730 f i Toolkit_Triggers.obj
 0001:00081800       ??1?$ScriptRegistrant@VM00_Trigger_Zone_Exited_RMV@@@@UAE@XZ 10082800 f i Toolkit_Triggers.obj
 0001:000818d0       ??1?$ScriptRegistrant@VM00_Trigger_Zone_Entered_Or_Exited_RMV@@@@UAE@XZ 100828d0 f i Toolkit_Triggers.obj
 0001:000819a0       ??1?$ScriptRegistrant@VM00_Trigger_When_Enemy_Seen_RMV@@@@UAE@XZ 100829a0 f i Toolkit_Triggers.obj
 0001:00081a70       ??1?$ScriptRegistrant@VM00_Trigger_When_Damaged_RMV@@@@UAE@XZ 10082a70 f i Toolkit_Triggers.obj
 0001:00081b40       ??1?$ScriptRegistrant@VM00_Trigger_When_Action_Complete_RMV@@@@UAE@XZ 10082b40 f i Toolkit_Triggers.obj
 0001:00081c10       ??1?$ScriptRegistrant@VM00_Trigger_When_Animation_Complete_RMV@@@@UAE@XZ 10082c10 f i Toolkit_Triggers.obj
 0001:00081ce0       ??1?$ScriptRegistrant@VM00_Trigger_Timer_Expired_RAD@@@@UAE@XZ 10082ce0 f i Toolkit_Triggers.obj
 0001:00081db0       ??1?$ScriptRegistrant@VM00_Trigger_State_Sequence_RAD@@@@UAE@XZ 10082db0 f i Toolkit_Triggers.obj
 0001:00081de0       ??0?$ScriptRegistrant@VM00_Trigger_When_Killed_RMV@@@@QAE@PBD0@Z 10082de0 f i Toolkit_Triggers.obj
 0001:00081e20       ?Create@?$ScriptRegistrant@VM00_Trigger_When_Killed_RMV@@@@UAEPAVScriptImpClass@@XZ 10082e20 f i Toolkit_Triggers.obj
 0001:00081ec0       ??0?$ScriptRegistrant@VM00_Trigger_When_Destroyed_RMV@@@@QAE@PBD0@Z 10082ec0 f i Toolkit_Triggers.obj
 0001:00081f00       ?Create@?$ScriptRegistrant@VM00_Trigger_When_Destroyed_RMV@@@@UAEPAVScriptImpClass@@XZ 10082f00 f i Toolkit_Triggers.obj
 0001:00081fa0       ??0?$ScriptRegistrant@VM00_Trigger_When_Created_RMV@@@@QAE@PBD0@Z 10082fa0 f i Toolkit_Triggers.obj
 0001:00081fe0       ?Create@?$ScriptRegistrant@VM00_Trigger_When_Created_RMV@@@@UAEPAVScriptImpClass@@XZ 10082fe0 f i Toolkit_Triggers.obj
 0001:00082080       ??0?$ScriptRegistrant@VM00_Trigger_Zone_Entered_RMV@@@@QAE@PBD0@Z 10083080 f i Toolkit_Triggers.obj
 0001:000820c0       ?Create@?$ScriptRegistrant@VM00_Trigger_Zone_Entered_RMV@@@@UAEPAVScriptImpClass@@XZ 100830c0 f i Toolkit_Triggers.obj
 0001:00082160       ??0?$ScriptRegistrant@VM00_Trigger_Zone_Exited_RMV@@@@QAE@PBD0@Z 10083160 f i Toolkit_Triggers.obj
 0001:000821a0       ?Create@?$ScriptRegistrant@VM00_Trigger_Zone_Exited_RMV@@@@UAEPAVScriptImpClass@@XZ 100831a0 f i Toolkit_Triggers.obj
 0001:00082240       ??0?$ScriptRegistrant@VM00_Trigger_Zone_Entered_Or_Exited_RMV@@@@QAE@PBD0@Z 10083240 f i Toolkit_Triggers.obj
 0001:00082280       ?Create@?$ScriptRegistrant@VM00_Trigger_Zone_Entered_Or_Exited_RMV@@@@UAEPAVScriptImpClass@@XZ 10083280 f i Toolkit_Triggers.obj
 0001:00082320       ??0?$ScriptRegistrant@VM00_Trigger_When_Enemy_Seen_RMV@@@@QAE@PBD0@Z 10083320 f i Toolkit_Triggers.obj
 0001:00082360       ?Create@?$ScriptRegistrant@VM00_Trigger_When_Enemy_Seen_RMV@@@@UAEPAVScriptImpClass@@XZ 10083360 f i Toolkit_Triggers.obj
 0001:00082400       ??0?$ScriptRegistrant@VM00_Trigger_When_Damaged_RMV@@@@QAE@PBD0@Z 10083400 f i Toolkit_Triggers.obj
 0001:00082440       ?Create@?$ScriptRegistrant@VM00_Trigger_When_Damaged_RMV@@@@UAEPAVScriptImpClass@@XZ 10083440 f i Toolkit_Triggers.obj
 0001:000824e0       ??0?$ScriptRegistrant@VM00_Trigger_When_Action_Complete_RMV@@@@QAE@PBD0@Z 100834e0 f i Toolkit_Triggers.obj
 0001:00082520       ?Create@?$ScriptRegistrant@VM00_Trigger_When_Action_Complete_RMV@@@@UAEPAVScriptImpClass@@XZ 10083520 f i Toolkit_Triggers.obj
 0001:000825c0       ??0?$ScriptRegistrant@VM00_Trigger_When_Animation_Complete_RMV@@@@QAE@PBD0@Z 100835c0 f i Toolkit_Triggers.obj
 0001:00082600       ?Create@?$ScriptRegistrant@VM00_Trigger_When_Animation_Complete_RMV@@@@UAEPAVScriptImpClass@@XZ 10083600 f i Toolkit_Triggers.obj
 0001:000826a0       ??0?$ScriptRegistrant@VM00_Trigger_Timer_Expired_RAD@@@@QAE@PBD0@Z 100836a0 f i Toolkit_Triggers.obj
 0001:000826e0       ?Create@?$ScriptRegistrant@VM00_Trigger_Timer_Expired_RAD@@@@UAEPAVScriptImpClass@@XZ 100836e0 f i Toolkit_Triggers.obj
 0001:00082780       ??0?$ScriptRegistrant@VM00_Trigger_State_Sequence_RAD@@@@QAE@PBD0@Z 10083780 f i Toolkit_Triggers.obj
 0001:000827c0       ?Create@?$ScriptRegistrant@VM00_Trigger_State_Sequence_RAD@@@@UAEPAVScriptImpClass@@XZ 100837c0 f i Toolkit_Triggers.obj
 0001:00082860       ??_G?$ScriptRegistrant@VM00_Trigger_When_Killed_RMV@@@@UAEPAXI@Z 10083860 f i Toolkit_Triggers.obj
 0001:00082860       ??_E?$ScriptRegistrant@VM00_Trigger_When_Killed_RMV@@@@UAEPAXI@Z 10083860 f i Toolkit_Triggers.obj
 0001:000828b0       ??0M00_Trigger_When_Killed_RMV@@QAE@XZ 100838b0 f i Toolkit_Triggers.obj
 0001:000828e0       ?Register_Auto_Save_Variables@M00_Trigger_When_Killed_RMV@@UAEXXZ 100838e0 f i Toolkit_Triggers.obj
 0001:00082930       ?Created@M00_Trigger_When_Killed_RMV@@UAEXPAVScriptableGameObj@@@Z 10083930 f i Toolkit_Triggers.obj
 0001:000829a0       ?Killed@M00_Trigger_When_Killed_RMV@@UAEXPAVScriptableGameObj@@0@Z 100839a0 f i Toolkit_Triggers.obj
 0001:00082ab0       ?Custom@M00_Trigger_When_Killed_RMV@@UAEXPAVScriptableGameObj@@HH0@Z 10083ab0 f i Toolkit_Triggers.obj
 0001:00082b40       ??_G?$ScriptRegistrant@VM00_Trigger_When_Destroyed_RMV@@@@UAEPAXI@Z 10083b40 f i Toolkit_Triggers.obj
 0001:00082b40       ??_E?$ScriptRegistrant@VM00_Trigger_When_Destroyed_RMV@@@@UAEPAXI@Z 10083b40 f i Toolkit_Triggers.obj
 0001:00082b90       ??0M00_Trigger_When_Destroyed_RMV@@QAE@XZ 10083b90 f i Toolkit_Triggers.obj
 0001:00082bc0       ?Register_Auto_Save_Variables@M00_Trigger_When_Destroyed_RMV@@UAEXXZ 10083bc0 f i Toolkit_Triggers.obj
 0001:00082c10       ?Created@M00_Trigger_When_Destroyed_RMV@@UAEXPAVScriptableGameObj@@@Z 10083c10 f i Toolkit_Triggers.obj
 0001:00082c80       ?Destroyed@M00_Trigger_When_Destroyed_RMV@@UAEXPAVScriptableGameObj@@@Z 10083c80 f i Toolkit_Triggers.obj
 0001:00082d90       ?Custom@M00_Trigger_When_Destroyed_RMV@@UAEXPAVScriptableGameObj@@HH0@Z 10083d90 f i Toolkit_Triggers.obj
 0001:00082e20       ??_G?$ScriptRegistrant@VM00_Trigger_When_Created_RMV@@@@UAEPAXI@Z 10083e20 f i Toolkit_Triggers.obj
 0001:00082e20       ??_E?$ScriptRegistrant@VM00_Trigger_When_Created_RMV@@@@UAEPAXI@Z 10083e20 f i Toolkit_Triggers.obj
 0001:00082e70       ??0M00_Trigger_When_Created_RMV@@QAE@XZ 10083e70 f i Toolkit_Triggers.obj
 0001:00082ea0       ?Register_Auto_Save_Variables@M00_Trigger_When_Created_RMV@@UAEXXZ 10083ea0 f i Toolkit_Triggers.obj
 0001:00082ed0       ?Created@M00_Trigger_When_Created_RMV@@UAEXPAVScriptableGameObj@@@Z 10083ed0 f i Toolkit_Triggers.obj
 0001:00082ff0       ??_E?$ScriptRegistrant@VM00_Trigger_Zone_Entered_RMV@@@@UAEPAXI@Z 10083ff0 f i Toolkit_Triggers.obj
 0001:00082ff0       ??_G?$ScriptRegistrant@VM00_Trigger_Zone_Entered_RMV@@@@UAEPAXI@Z 10083ff0 f i Toolkit_Triggers.obj
 0001:00083040       ??0M00_Trigger_Zone_Entered_RMV@@QAE@XZ 10084040 f i Toolkit_Triggers.obj
 0001:00083070       ?Register_Auto_Save_Variables@M00_Trigger_Zone_Entered_RMV@@UAEXXZ 10084070 f i Toolkit_Triggers.obj
 0001:000830f0       ?Created@M00_Trigger_Zone_Entered_RMV@@UAEXPAVScriptableGameObj@@@Z 100840f0 f i Toolkit_Triggers.obj
 0001:00083170       ?Entered@M00_Trigger_Zone_Entered_RMV@@UAEXPAVScriptableGameObj@@0@Z 10084170 f i Toolkit_Triggers.obj
 0001:000833e0       ?Custom@M00_Trigger_Zone_Entered_RMV@@UAEXPAVScriptableGameObj@@HH0@Z 100843e0 f i Toolkit_Triggers.obj
 0001:00083480       ??_G?$ScriptRegistrant@VM00_Trigger_Zone_Exited_RMV@@@@UAEPAXI@Z 10084480 f i Toolkit_Triggers.obj
 0001:00083480       ??_E?$ScriptRegistrant@VM00_Trigger_Zone_Exited_RMV@@@@UAEPAXI@Z 10084480 f i Toolkit_Triggers.obj
 0001:000834d0       ??0M00_Trigger_Zone_Exited_RMV@@QAE@XZ 100844d0 f i Toolkit_Triggers.obj
 0001:00083500       ?Register_Auto_Save_Variables@M00_Trigger_Zone_Exited_RMV@@UAEXXZ 10084500 f i Toolkit_Triggers.obj
 0001:00083580       ?Created@M00_Trigger_Zone_Exited_RMV@@UAEXPAVScriptableGameObj@@@Z 10084580 f i Toolkit_Triggers.obj
 0001:00083600       ?Exited@M00_Trigger_Zone_Exited_RMV@@UAEXPAVScriptableGameObj@@0@Z 10084600 f i Toolkit_Triggers.obj
 0001:00083870       ?Custom@M00_Trigger_Zone_Exited_RMV@@UAEXPAVScriptableGameObj@@HH0@Z 10084870 f i Toolkit_Triggers.obj
 0001:00083910       ??_G?$ScriptRegistrant@VM00_Trigger_Zone_Entered_Or_Exited_RMV@@@@UAEPAXI@Z 10084910 f i Toolkit_Triggers.obj
 0001:00083910       ??_E?$ScriptRegistrant@VM00_Trigger_Zone_Entered_Or_Exited_RMV@@@@UAEPAXI@Z 10084910 f i Toolkit_Triggers.obj
 0001:00083960       ??0M00_Trigger_Zone_Entered_Or_Exited_RMV@@QAE@XZ 10084960 f i Toolkit_Triggers.obj
 0001:00083990       ?Created@M00_Trigger_Zone_Entered_Or_Exited_RMV@@EAEXPAVScriptableGameObj@@@Z 10084990 f i Toolkit_Triggers.obj
 0001:00083a10       ?Exited@M00_Trigger_Zone_Entered_Or_Exited_RMV@@EAEXPAVScriptableGameObj@@0@Z 10084a10 f i Toolkit_Triggers.obj
 0001:00083c80       ?Entered@M00_Trigger_Zone_Entered_Or_Exited_RMV@@EAEXPAVScriptableGameObj@@0@Z 10084c80 f i Toolkit_Triggers.obj
 0001:00083ef0       ?Custom@M00_Trigger_Zone_Entered_Or_Exited_RMV@@EAEXPAVScriptableGameObj@@HH0@Z 10084ef0 f i Toolkit_Triggers.obj
 0001:00083f90       ??_E?$ScriptRegistrant@VM00_Trigger_When_Enemy_Seen_RMV@@@@UAEPAXI@Z 10084f90 f i Toolkit_Triggers.obj
 0001:00083f90       ??_G?$ScriptRegistrant@VM00_Trigger_When_Enemy_Seen_RMV@@@@UAEPAXI@Z 10084f90 f i Toolkit_Triggers.obj
 0001:00083fe0       ??0M00_Trigger_When_Enemy_Seen_RMV@@QAE@XZ 10084fe0 f i Toolkit_Triggers.obj
 0001:00084010       ?Created@M00_Trigger_When_Enemy_Seen_RMV@@EAEXPAVScriptableGameObj@@@Z 10085010 f i Toolkit_Triggers.obj
 0001:00084090       ?Enemy_Seen@M00_Trigger_When_Enemy_Seen_RMV@@EAEXPAVScriptableGameObj@@0@Z 10085090 f i Toolkit_Triggers.obj
 0001:000841d0       ?Custom@M00_Trigger_When_Enemy_Seen_RMV@@EAEXPAVScriptableGameObj@@HH0@Z 100851d0 f i Toolkit_Triggers.obj
 0001:00084270       ??_G?$ScriptRegistrant@VM00_Trigger_When_Damaged_RMV@@@@UAEPAXI@Z 10085270 f i Toolkit_Triggers.obj
 0001:00084270       ??_E?$ScriptRegistrant@VM00_Trigger_When_Damaged_RMV@@@@UAEPAXI@Z 10085270 f i Toolkit_Triggers.obj
 0001:000842c0       ??0M00_Trigger_When_Damaged_RMV@@QAE@XZ 100852c0 f i Toolkit_Triggers.obj
 0001:000842f0       ?Created@M00_Trigger_When_Damaged_RMV@@EAEXPAVScriptableGameObj@@@Z 100852f0 f i Toolkit_Triggers.obj
 0001:00084370       ?Damaged@M00_Trigger_When_Damaged_RMV@@EAEXPAVScriptableGameObj@@0M@Z 10085370 f i Toolkit_Triggers.obj
 0001:000844b0       ?Custom@M00_Trigger_When_Damaged_RMV@@EAEXPAVScriptableGameObj@@HH0@Z 100854b0 f i Toolkit_Triggers.obj
 0001:00084550       ??_G?$ScriptRegistrant@VM00_Trigger_When_Action_Complete_RMV@@@@UAEPAXI@Z 10085550 f i Toolkit_Triggers.obj
 0001:00084550       ??_E?$ScriptRegistrant@VM00_Trigger_When_Action_Complete_RMV@@@@UAEPAXI@Z 10085550 f i Toolkit_Triggers.obj
 0001:000845a0       ??0M00_Trigger_When_Action_Complete_RMV@@QAE@XZ 100855a0 f i Toolkit_Triggers.obj
 0001:000845d0       ?Created@M00_Trigger_When_Action_Complete_RMV@@EAEXPAVScriptableGameObj@@@Z 100855d0 f i Toolkit_Triggers.obj
 0001:00084650       ?Custom@M00_Trigger_When_Action_Complete_RMV@@EAEXPAVScriptableGameObj@@HH0@Z 10085650 f i Toolkit_Triggers.obj
 0001:000846f0       ??_E?$ScriptRegistrant@VM00_Trigger_When_Animation_Complete_RMV@@@@UAEPAXI@Z 100856f0 f i Toolkit_Triggers.obj
 0001:000846f0       ??_G?$ScriptRegistrant@VM00_Trigger_When_Animation_Complete_RMV@@@@UAEPAXI@Z 100856f0 f i Toolkit_Triggers.obj
 0001:00084740       ??0M00_Trigger_When_Animation_Complete_RMV@@QAE@XZ 10085740 f i Toolkit_Triggers.obj
 0001:00084770       ?Created@M00_Trigger_When_Animation_Complete_RMV@@EAEXPAVScriptableGameObj@@@Z 10085770 f i Toolkit_Triggers.obj
 0001:000847f0       ?Animation_Complete@M00_Trigger_When_Animation_Complete_RMV@@EAEXPAVScriptableGameObj@@PBD@Z 100857f0 f i Toolkit_Triggers.obj
 0001:00084960       ?Custom@M00_Trigger_When_Animation_Complete_RMV@@EAEXPAVScriptableGameObj@@HH0@Z 10085960 f i Toolkit_Triggers.obj
 0001:00084a00       ??_G?$ScriptRegistrant@VM00_Trigger_Timer_Expired_RAD@@@@UAEPAXI@Z 10085a00 f i Toolkit_Triggers.obj
 0001:00084a00       ??_E?$ScriptRegistrant@VM00_Trigger_Timer_Expired_RAD@@@@UAEPAXI@Z 10085a00 f i Toolkit_Triggers.obj
 0001:00084a50       ??0M00_Trigger_Timer_Expired_RAD@@QAE@XZ 10085a50 f i Toolkit_Triggers.obj
 0001:00084a80       ?Created@M00_Trigger_Timer_Expired_RAD@@EAEXPAVScriptableGameObj@@@Z 10085a80 f i Toolkit_Triggers.obj
 0001:00084af0       ?Start_Now@M00_Trigger_Timer_Expired_RAD@@AAEXPAVScriptableGameObj@@@Z 10085af0 f i Toolkit_Triggers.obj
 0001:00084b60       ?Set_Timer@M00_Trigger_Timer_Expired_RAD@@AAEXPAVScriptableGameObj@@@Z 10085b60 f i Toolkit_Triggers.obj
 0001:00084c10       ?Timer_Expired@M00_Trigger_Timer_Expired_RAD@@EAEXPAVScriptableGameObj@@H@Z 10085c10 f i Toolkit_Triggers.obj
 0001:00084d90       ?Custom@M00_Trigger_Timer_Expired_RAD@@EAEXPAVScriptableGameObj@@HH0@Z 10085d90 f i Toolkit_Triggers.obj
 0001:00084e40       ??_E?$ScriptRegistrant@VM00_Trigger_State_Sequence_RAD@@@@UAEPAXI@Z 10085e40 f i Toolkit_Triggers.obj
 0001:00084e40       ??_G?$ScriptRegistrant@VM00_Trigger_State_Sequence_RAD@@@@UAEPAXI@Z 10085e40 f i Toolkit_Triggers.obj
 0001:00084e90       ??0M00_Trigger_State_Sequence_RAD@@QAE@XZ 10085e90 f i Toolkit_Triggers.obj
 0001:00084ec0       ?Created@M00_Trigger_State_Sequence_RAD@@EAEXPAVScriptableGameObj@@@Z 10085ec0 f i Toolkit_Triggers.obj
 0001:00084f30       ?Custom@M00_Trigger_State_Sequence_RAD@@EAEXPAVScriptableGameObj@@HH0@Z 10085f30 f i Toolkit_Triggers.obj
 0001:00085060       ?Send_Custom@M00_Trigger_State_Sequence_RAD@@AAEXPAVScriptableGameObj@@@Z 10086060 f i Toolkit_Triggers.obj
 0001:00085160       ??_GM00_Trigger_When_Killed_RMV@@UAEPAXI@Z 10086160 f i Toolkit_Triggers.obj
 0001:00085160       ??_EM00_Trigger_When_Killed_RMV@@UAEPAXI@Z 10086160 f i Toolkit_Triggers.obj
 0001:000851b0       ??_EM00_Trigger_When_Destroyed_RMV@@UAEPAXI@Z 100861b0 f i Toolkit_Triggers.obj
 0001:000851b0       ??_GM00_Trigger_When_Destroyed_RMV@@UAEPAXI@Z 100861b0 f i Toolkit_Triggers.obj
 0001:00085200       ??_GM00_Trigger_When_Created_RMV@@UAEPAXI@Z 10086200 f i Toolkit_Triggers.obj
 0001:00085200       ??_EM00_Trigger_When_Created_RMV@@UAEPAXI@Z 10086200 f i Toolkit_Triggers.obj
 0001:00085250       ??_GM00_Trigger_Zone_Entered_RMV@@UAEPAXI@Z 10086250 f i Toolkit_Triggers.obj
 0001:00085250       ??_EM00_Trigger_Zone_Entered_RMV@@UAEPAXI@Z 10086250 f i Toolkit_Triggers.obj
 0001:000852a0       ??_EM00_Trigger_Zone_Exited_RMV@@UAEPAXI@Z 100862a0 f i Toolkit_Triggers.obj
 0001:000852a0       ??_GM00_Trigger_Zone_Exited_RMV@@UAEPAXI@Z 100862a0 f i Toolkit_Triggers.obj
 0001:000852f0       ??_GM00_Trigger_Zone_Entered_Or_Exited_RMV@@UAEPAXI@Z 100862f0 f i Toolkit_Triggers.obj
 0001:000852f0       ??_EM00_Trigger_Zone_Entered_Or_Exited_RMV@@UAEPAXI@Z 100862f0 f i Toolkit_Triggers.obj
 0001:00085340       ??_EM00_Trigger_When_Enemy_Seen_RMV@@UAEPAXI@Z 10086340 f i Toolkit_Triggers.obj
 0001:00085340       ??_GM00_Trigger_When_Enemy_Seen_RMV@@UAEPAXI@Z 10086340 f i Toolkit_Triggers.obj
 0001:00085390       ??_EM00_Trigger_When_Damaged_RMV@@UAEPAXI@Z 10086390 f i Toolkit_Triggers.obj
 0001:00085390       ??_GM00_Trigger_When_Damaged_RMV@@UAEPAXI@Z 10086390 f i Toolkit_Triggers.obj
 0001:000853e0       ??_GM00_Trigger_When_Action_Complete_RMV@@UAEPAXI@Z 100863e0 f i Toolkit_Triggers.obj
 0001:000853e0       ??_EM00_Trigger_When_Action_Complete_RMV@@UAEPAXI@Z 100863e0 f i Toolkit_Triggers.obj
 0001:00085430       ??_EM00_Trigger_When_Animation_Complete_RMV@@UAEPAXI@Z 10086430 f i Toolkit_Triggers.obj
 0001:00085430       ??_GM00_Trigger_When_Animation_Complete_RMV@@UAEPAXI@Z 10086430 f i Toolkit_Triggers.obj
 0001:00085480       ??_EM00_Trigger_Timer_Expired_RAD@@UAEPAXI@Z 10086480 f i Toolkit_Triggers.obj
 0001:00085480       ??_GM00_Trigger_Timer_Expired_RAD@@UAEPAXI@Z 10086480 f i Toolkit_Triggers.obj
 0001:000854d0       ??_EM00_Trigger_State_Sequence_RAD@@UAEPAXI@Z 100864d0 f i Toolkit_Triggers.obj
 0001:000854d0       ??_GM00_Trigger_State_Sequence_RAD@@UAEPAXI@Z 100864d0 f i Toolkit_Triggers.obj
 0001:00085520       ??1M00_Trigger_When_Killed_RMV@@UAE@XZ 10086520 f i Toolkit_Triggers.obj
 0001:00085550       ??1M00_Trigger_When_Destroyed_RMV@@UAE@XZ 10086550 f i Toolkit_Triggers.obj
 0001:00085580       ??1M00_Trigger_When_Created_RMV@@UAE@XZ 10086580 f i Toolkit_Triggers.obj
 0001:000855b0       ??1M00_Trigger_Zone_Entered_RMV@@UAE@XZ 100865b0 f i Toolkit_Triggers.obj
 0001:000855e0       ??1M00_Trigger_Zone_Exited_RMV@@UAE@XZ 100865e0 f i Toolkit_Triggers.obj
 0001:00085610       ??1M00_Trigger_Zone_Entered_Or_Exited_RMV@@UAE@XZ 10086610 f i Toolkit_Triggers.obj
 0001:00085640       ??1M00_Trigger_When_Enemy_Seen_RMV@@UAE@XZ 10086640 f i Toolkit_Triggers.obj
 0001:00085670       ??1M00_Trigger_When_Damaged_RMV@@UAE@XZ 10086670 f i Toolkit_Triggers.obj
 0001:000856a0       ??1M00_Trigger_When_Action_Complete_RMV@@UAE@XZ 100866a0 f i Toolkit_Triggers.obj
 0001:000856d0       ??1M00_Trigger_When_Animation_Complete_RMV@@UAE@XZ 100866d0 f i Toolkit_Triggers.obj
 0001:00085700       ??1M00_Trigger_Timer_Expired_RAD@@UAE@XZ 10086700 f i Toolkit_Triggers.obj
 0001:00085730       ??1M00_Trigger_State_Sequence_RAD@@UAE@XZ 10086730 f i Toolkit_Triggers.obj
 0001:00085800       ??1?$ScriptRegistrant@VMTU_Tutorial_Controller@@@@UAE@XZ 10086800 f i Mission00.obj
 0001:000858d0       ??1?$ScriptRegistrant@VMTU_Tutorial_Instructor@@@@UAE@XZ 100868d0 f i Mission00.obj
 0001:000859a0       ??1?$ScriptRegistrant@VMTU_Trigger_Zone@@@@UAE@XZ 100869a0 f i Mission00.obj
 0001:00085a70       ??1?$ScriptRegistrant@VMTU_GDI_Soldier@@@@UAE@XZ 10086a70 f i Mission00.obj
 0001:00085b40       ??1?$ScriptRegistrant@VMTU_Commando@@@@UAE@XZ 10086b40 f i Mission00.obj
 0001:00085c10       ??1?$ScriptRegistrant@VMTU_Commando_Startup@@@@UAE@XZ 10086c10 f i Mission00.obj
 0001:00085ce0       ??1?$ScriptRegistrant@VMTU_PowerUp_Health@@@@UAE@XZ 10086ce0 f i Mission00.obj
 0001:00085db0       ??1?$ScriptRegistrant@VMTU_PowerUp_Armor@@@@UAE@XZ 10086db0 f i Mission00.obj
 0001:00085e80       ??1?$ScriptRegistrant@VMTU_Nod_Apache@@@@UAE@XZ 10086e80 f i Mission00.obj
 0001:00085f50       ??1?$ScriptRegistrant@VMTU_Range_Target@@@@UAE@XZ 10086f50 f i Mission00.obj
 0001:00086020       ??1?$ScriptRegistrant@VMTU_Range_Target_Path_Mid@@@@UAE@XZ 10087020 f i Mission00.obj
 0001:000860f0       ??1?$ScriptRegistrant@VMTU_Range_Target_Path_Right@@@@UAE@XZ 100870f0 f i Mission00.obj
 0001:000861c0       ??1?$ScriptRegistrant@VMTU_Range_Target_Path_Left@@@@UAE@XZ 100871c0 f i Mission00.obj
 0001:00086290       ??1?$ScriptRegistrant@VMTU_Range_Target_Miss_Commando@@@@UAE@XZ 10087290 f i Mission00.obj
 0001:00086360       ??1?$ScriptRegistrant@VMTU_Range_Powerup@@@@UAE@XZ 10087360 f i Mission00.obj
 0001:00086430       ??1?$ScriptRegistrant@VMTU_GDI_Vehicle@@@@UAE@XZ 10087430 f i Mission00.obj
 0001:00086500       ??1?$ScriptRegistrant@VMTU_Building_Controller@@@@UAE@XZ 10087500 f i Mission00.obj
 0001:000865d0       ??1?$ScriptRegistrant@VMTU_Nod_Soldier@@@@UAE@XZ 100875d0 f i Mission00.obj
 0001:000866a0       ??1?$ScriptRegistrant@VMTU_Flyover@@@@UAE@XZ 100876a0 f i Mission00.obj
 0001:00086770       ??1?$ScriptRegistrant@VMSK_Controller@@@@UAE@XZ 10087770 f i Mission00.obj
 0001:00086840       ??1?$ScriptRegistrant@VMSK_Soldier@@@@UAE@XZ 10087840 f i Mission00.obj
 0001:00086910       ??1?$ScriptRegistrant@VMSK_Info_Zone@@@@UAE@XZ 10087910 f i Mission00.obj
 0001:00086940       ??0?$ScriptRegistrant@VMTU_Tutorial_Controller@@@@QAE@PBD0@Z 10087940 f i Mission00.obj
 0001:00086980       ?Create@?$ScriptRegistrant@VMTU_Tutorial_Controller@@@@UAEPAVScriptImpClass@@XZ 10087980 f i Mission00.obj
 0001:00086a20       ??0?$ScriptRegistrant@VMTU_Tutorial_Instructor@@@@QAE@PBD0@Z 10087a20 f i Mission00.obj
 0001:00086a60       ?Create@?$ScriptRegistrant@VMTU_Tutorial_Instructor@@@@UAEPAVScriptImpClass@@XZ 10087a60 f i Mission00.obj
 0001:00086b00       ??0?$ScriptRegistrant@VMTU_Trigger_Zone@@@@QAE@PBD0@Z 10087b00 f i Mission00.obj
 0001:00086b40       ?Create@?$ScriptRegistrant@VMTU_Trigger_Zone@@@@UAEPAVScriptImpClass@@XZ 10087b40 f i Mission00.obj
 0001:00086be0       ??0?$ScriptRegistrant@VMTU_GDI_Soldier@@@@QAE@PBD0@Z 10087be0 f i Mission00.obj
 0001:00086c20       ?Create@?$ScriptRegistrant@VMTU_GDI_Soldier@@@@UAEPAVScriptImpClass@@XZ 10087c20 f i Mission00.obj
 0001:00086cc0       ??0?$ScriptRegistrant@VMTU_Commando@@@@QAE@PBD0@Z 10087cc0 f i Mission00.obj
 0001:00086d00       ?Create@?$ScriptRegistrant@VMTU_Commando@@@@UAEPAVScriptImpClass@@XZ 10087d00 f i Mission00.obj
 0001:00086da0       ??0?$ScriptRegistrant@VMTU_Commando_Startup@@@@QAE@PBD0@Z 10087da0 f i Mission00.obj
 0001:00086de0       ?Create@?$ScriptRegistrant@VMTU_Commando_Startup@@@@UAEPAVScriptImpClass@@XZ 10087de0 f i Mission00.obj
 0001:00086e80       ??0?$ScriptRegistrant@VMTU_PowerUp_Health@@@@QAE@PBD0@Z 10087e80 f i Mission00.obj
 0001:00086ec0       ?Create@?$ScriptRegistrant@VMTU_PowerUp_Health@@@@UAEPAVScriptImpClass@@XZ 10087ec0 f i Mission00.obj
 0001:00086f60       ??0?$ScriptRegistrant@VMTU_PowerUp_Armor@@@@QAE@PBD0@Z 10087f60 f i Mission00.obj
 0001:00086fa0       ?Create@?$ScriptRegistrant@VMTU_PowerUp_Armor@@@@UAEPAVScriptImpClass@@XZ 10087fa0 f i Mission00.obj
 0001:00087040       ??0?$ScriptRegistrant@VMTU_Nod_Apache@@@@QAE@PBD0@Z 10088040 f i Mission00.obj
 0001:00087080       ?Create@?$ScriptRegistrant@VMTU_Nod_Apache@@@@UAEPAVScriptImpClass@@XZ 10088080 f i Mission00.obj
 0001:00087120       ??0?$ScriptRegistrant@VMTU_Range_Target@@@@QAE@PBD0@Z 10088120 f i Mission00.obj
 0001:00087160       ?Create@?$ScriptRegistrant@VMTU_Range_Target@@@@UAEPAVScriptImpClass@@XZ 10088160 f i Mission00.obj
 0001:00087200       ??0?$ScriptRegistrant@VMTU_Range_Target_Path_Mid@@@@QAE@PBD0@Z 10088200 f i Mission00.obj
 0001:00087240       ?Create@?$ScriptRegistrant@VMTU_Range_Target_Path_Mid@@@@UAEPAVScriptImpClass@@XZ 10088240 f i Mission00.obj
 0001:000872e0       ??0?$ScriptRegistrant@VMTU_Range_Target_Path_Right@@@@QAE@PBD0@Z 100882e0 f i Mission00.obj
 0001:00087320       ?Create@?$ScriptRegistrant@VMTU_Range_Target_Path_Right@@@@UAEPAVScriptImpClass@@XZ 10088320 f i Mission00.obj
 0001:000873c0       ??0?$ScriptRegistrant@VMTU_Range_Target_Path_Left@@@@QAE@PBD0@Z 100883c0 f i Mission00.obj
 0001:00087400       ?Create@?$ScriptRegistrant@VMTU_Range_Target_Path_Left@@@@UAEPAVScriptImpClass@@XZ 10088400 f i Mission00.obj
 0001:000874a0       ??0?$ScriptRegistrant@VMTU_Range_Target_Miss_Commando@@@@QAE@PBD0@Z 100884a0 f i Mission00.obj
 0001:000874e0       ?Create@?$ScriptRegistrant@VMTU_Range_Target_Miss_Commando@@@@UAEPAVScriptImpClass@@XZ 100884e0 f i Mission00.obj
 0001:00087580       ??0?$ScriptRegistrant@VMTU_Range_Powerup@@@@QAE@PBD0@Z 10088580 f i Mission00.obj
 0001:000875c0       ?Create@?$ScriptRegistrant@VMTU_Range_Powerup@@@@UAEPAVScriptImpClass@@XZ 100885c0 f i Mission00.obj
 0001:00087660       ??0?$ScriptRegistrant@VMTU_GDI_Vehicle@@@@QAE@PBD0@Z 10088660 f i Mission00.obj
 0001:000876a0       ?Create@?$ScriptRegistrant@VMTU_GDI_Vehicle@@@@UAEPAVScriptImpClass@@XZ 100886a0 f i Mission00.obj
 0001:00087740       ??0?$ScriptRegistrant@VMTU_Building_Controller@@@@QAE@PBD0@Z 10088740 f i Mission00.obj
 0001:00087780       ?Create@?$ScriptRegistrant@VMTU_Building_Controller@@@@UAEPAVScriptImpClass@@XZ 10088780 f i Mission00.obj
 0001:00087820       ??0?$ScriptRegistrant@VMTU_Nod_Soldier@@@@QAE@PBD0@Z 10088820 f i Mission00.obj
 0001:00087860       ?Create@?$ScriptRegistrant@VMTU_Nod_Soldier@@@@UAEPAVScriptImpClass@@XZ 10088860 f i Mission00.obj
 0001:00087900       ??0?$ScriptRegistrant@VMTU_Flyover@@@@QAE@PBD0@Z 10088900 f i Mission00.obj
 0001:00087940       ?Create@?$ScriptRegistrant@VMTU_Flyover@@@@UAEPAVScriptImpClass@@XZ 10088940 f i Mission00.obj
 0001:000879e0       ??0?$ScriptRegistrant@VMSK_Controller@@@@QAE@PBD0@Z 100889e0 f i Mission00.obj
 0001:00087a20       ?Create@?$ScriptRegistrant@VMSK_Controller@@@@UAEPAVScriptImpClass@@XZ 10088a20 f i Mission00.obj
 0001:00087ac0       ??0?$ScriptRegistrant@VMSK_Soldier@@@@QAE@PBD0@Z 10088ac0 f i Mission00.obj
 0001:00087b00       ?Create@?$ScriptRegistrant@VMSK_Soldier@@@@UAEPAVScriptImpClass@@XZ 10088b00 f i Mission00.obj
 0001:00087ba0       ??0?$ScriptRegistrant@VMSK_Info_Zone@@@@QAE@PBD0@Z 10088ba0 f i Mission00.obj
 0001:00087be0       ?Create@?$ScriptRegistrant@VMSK_Info_Zone@@@@UAEPAVScriptImpClass@@XZ 10088be0 f i Mission00.obj
 0001:00087c80       ??_E?$ScriptRegistrant@VMTU_Tutorial_Controller@@@@UAEPAXI@Z 10088c80 f i Mission00.obj
 0001:00087c80       ??_G?$ScriptRegistrant@VMTU_Tutorial_Controller@@@@UAEPAXI@Z 10088c80 f i Mission00.obj
 0001:00087cd0       ??0MTU_Tutorial_Controller@@QAE@XZ 10088cd0 f i Mission00.obj
 0001:00087d00       ?Register_Auto_Save_Variables@MTU_Tutorial_Controller@@UAEXXZ 10088d00 f i Mission00.obj
 0001:00087f30       ?Created@MTU_Tutorial_Controller@@UAEXPAVScriptableGameObj@@@Z 10088f30 f i Mission00.obj
 0001:000883f0       ?Timer_Expired@MTU_Tutorial_Controller@@UAEXPAVScriptableGameObj@@H@Z 100893f0 f i Mission00.obj
 0001:000889e0       ?Custom@MTU_Tutorial_Controller@@UAEXPAVScriptableGameObj@@HH0@Z 100899e0 f i Mission00.obj
 0001:0008bb30       ??_G?$ScriptRegistrant@VMTU_Tutorial_Instructor@@@@UAEPAXI@Z 1008cb30 f i Mission00.obj
 0001:0008bb30       ??_E?$ScriptRegistrant@VMTU_Tutorial_Instructor@@@@UAEPAXI@Z 1008cb30 f i Mission00.obj
 0001:0008bb80       ??0MTU_Tutorial_Instructor@@QAE@XZ 1008cb80 f i Mission00.obj
 0001:0008bbb0       ?Register_Auto_Save_Variables@MTU_Tutorial_Instructor@@UAEXXZ 1008cbb0 f i Mission00.obj
 0001:0008bd90       ?Created@MTU_Tutorial_Instructor@@UAEXPAVScriptableGameObj@@@Z 1008cd90 f i Mission00.obj
 0001:0008bec0       ?Custom@MTU_Tutorial_Instructor@@UAEXPAVScriptableGameObj@@HH0@Z 1008cec0 f i Mission00.obj
 0001:0008d140       ?Timer_Expired@MTU_Tutorial_Instructor@@UAEXPAVScriptableGameObj@@H@Z 1008e140 f i Mission00.obj
 0001:0008d760       ?Get_Obj_Distance@@YAMPAVScriptableGameObj@@0@Z 1008e760 f i Mission00.obj
 0001:0008d810       ?Say_Something@MTU_Tutorial_Instructor@@QAEXPAVScriptableGameObj@@H@Z 1008e810 f i Mission00.obj
 0001:0008e670       ?Move_Somewhere@MTU_Tutorial_Instructor@@QAEXPAVScriptableGameObj@@HH@Z 1008f670 f i Mission00.obj
 0001:0008e9e0       ?Action_Complete@MTU_Tutorial_Instructor@@UAEXPAVScriptableGameObj@@HW4ActionCompleteReason@@@Z 1008f9e0 f i Mission00.obj
 0001:00090800       ?Sound_Heard@MTU_Tutorial_Instructor@@UAEXPAVScriptableGameObj@@ABVCombatSound@@@Z 10091800 f i Mission00.obj
 0001:000908b0       ?Damaged@MTU_Tutorial_Instructor@@UAEXPAVScriptableGameObj@@0M@Z 100918b0 f i Mission00.obj
 0001:00090910       ??_E?$ScriptRegistrant@VMTU_Trigger_Zone@@@@UAEPAXI@Z 10091910 f i Mission00.obj
 0001:00090910       ??_G?$ScriptRegistrant@VMTU_Trigger_Zone@@@@UAEPAXI@Z 10091910 f i Mission00.obj
 0001:00090960       ??0MTU_Trigger_Zone@@QAE@XZ 10091960 f i Mission00.obj
 0001:00090990       ?Register_Auto_Save_Variables@MTU_Trigger_Zone@@UAEXXZ 10091990 f i Mission00.obj
 0001:000909e0       ?Created@MTU_Trigger_Zone@@UAEXPAVScriptableGameObj@@@Z 100919e0 f i Mission00.obj
 0001:00090a10       ?Entered@MTU_Trigger_Zone@@UAEXPAVScriptableGameObj@@0@Z 10091a10 f i Mission00.obj
 0001:00091e40       ?Custom@MTU_Trigger_Zone@@UAEXPAVScriptableGameObj@@HH0@Z 10092e40 f i Mission00.obj
 0001:00091fb0       ??_E?$ScriptRegistrant@VMTU_GDI_Soldier@@@@UAEPAXI@Z 10092fb0 f i Mission00.obj
 0001:00091fb0       ??_G?$ScriptRegistrant@VMTU_GDI_Soldier@@@@UAEPAXI@Z 10092fb0 f i Mission00.obj
 0001:00092000       ??0MTU_GDI_Soldier@@QAE@XZ 10093000 f i Mission00.obj
 0001:00092030       ?Register_Auto_Save_Variables@MTU_GDI_Soldier@@UAEXXZ 10093030 f i Mission00.obj
 0001:00092060       ?Created@MTU_GDI_Soldier@@UAEXPAVScriptableGameObj@@@Z 10093060 f i Mission00.obj
 0001:00092130       ?Timer_Expired@MTU_GDI_Soldier@@UAEXPAVScriptableGameObj@@H@Z 10093130 f i Mission00.obj
 0001:00092410       ?Poked@MTU_GDI_Soldier@@UAEXPAVScriptableGameObj@@0@Z 10093410 f i Mission00.obj
 0001:00092480       ?Action_Complete@MTU_GDI_Soldier@@UAEXPAVScriptableGameObj@@HW4ActionCompleteReason@@@Z 10093480 f i Mission00.obj
 0001:00092600       ?Custom@MTU_GDI_Soldier@@UAEXPAVScriptableGameObj@@HH0@Z 10093600 f i Mission00.obj
 0001:00092670       ?Damaged@MTU_GDI_Soldier@@UAEXPAVScriptableGameObj@@0M@Z 10093670 f i Mission00.obj
 0001:000926f0       ??_E?$ScriptRegistrant@VMTU_Commando@@@@UAEPAXI@Z 100936f0 f i Mission00.obj
 0001:000926f0       ??_G?$ScriptRegistrant@VMTU_Commando@@@@UAEPAXI@Z 100936f0 f i Mission00.obj
 0001:00092740       ??0MTU_Commando@@QAE@XZ    10093740 f i Mission00.obj
 0001:00092770       ?Register_Auto_Save_Variables@MTU_Commando@@UAEXXZ 10093770 f i Mission00.obj
 0001:000927a0       ?Created@MTU_Commando@@UAEXPAVScriptableGameObj@@@Z 100937a0 f i Mission00.obj
 0001:00092800       ?Custom@MTU_Commando@@UAEXPAVScriptableGameObj@@HH0@Z 10093800 f i Mission00.obj
 0001:000929b0       ?Timer_Expired@MTU_Commando@@UAEXPAVScriptableGameObj@@H@Z 100939b0 f i Mission00.obj
 0001:00092a40       ?Damaged@MTU_Commando@@UAEXPAVScriptableGameObj@@0M@Z 10093a40 f i Mission00.obj
 0001:00092c40       ??_E?$ScriptRegistrant@VMTU_Commando_Startup@@@@UAEPAXI@Z 10093c40 f i Mission00.obj
 0001:00092c40       ??_G?$ScriptRegistrant@VMTU_Commando_Startup@@@@UAEPAXI@Z 10093c40 f i Mission00.obj
 0001:00092c90       ??0MTU_Commando_Startup@@QAE@XZ 10093c90 f i Mission00.obj
 0001:00092cc0       ?Created@MTU_Commando_Startup@@EAEXPAVScriptableGameObj@@@Z 10093cc0 f i Mission00.obj
 0001:00092d00       ??_G?$ScriptRegistrant@VMTU_PowerUp_Health@@@@UAEPAXI@Z 10093d00 f i Mission00.obj
 0001:00092d00       ??_E?$ScriptRegistrant@VMTU_PowerUp_Health@@@@UAEPAXI@Z 10093d00 f i Mission00.obj
 0001:00092d50       ??0MTU_PowerUp_Health@@QAE@XZ 10093d50 f i Mission00.obj
 0001:00092d80       ?Custom@MTU_PowerUp_Health@@EAEXPAVScriptableGameObj@@HH0@Z 10093d80 f i Mission00.obj
 0001:00092e30       ??_G?$ScriptRegistrant@VMTU_PowerUp_Armor@@@@UAEPAXI@Z 10093e30 f i Mission00.obj
 0001:00092e30       ??_E?$ScriptRegistrant@VMTU_PowerUp_Armor@@@@UAEPAXI@Z 10093e30 f i Mission00.obj
 0001:00092e80       ??0MTU_PowerUp_Armor@@QAE@XZ 10093e80 f i Mission00.obj
 0001:00092eb0       ?Custom@MTU_PowerUp_Armor@@EAEXPAVScriptableGameObj@@HH0@Z 10093eb0 f i Mission00.obj
 0001:00092f60       ??_G?$ScriptRegistrant@VMTU_Nod_Apache@@@@UAEPAXI@Z 10093f60 f i Mission00.obj
 0001:00092f60       ??_E?$ScriptRegistrant@VMTU_Nod_Apache@@@@UAEPAXI@Z 10093f60 f i Mission00.obj
 0001:00092fb0       ??0MTU_Nod_Apache@@QAE@XZ  10093fb0 f i Mission00.obj
 0001:00092fe0       ?Created@MTU_Nod_Apache@@EAEXPAVScriptableGameObj@@@Z 10093fe0 f i Mission00.obj
 0001:00093110       ?Timer_Expired@MTU_Nod_Apache@@EAEXPAVScriptableGameObj@@H@Z 10094110 f i Mission00.obj
 0001:000931a0       ??_E?$ScriptRegistrant@VMTU_Range_Target@@@@UAEPAXI@Z 100941a0 f i Mission00.obj
 0001:000931a0       ??_G?$ScriptRegistrant@VMTU_Range_Target@@@@UAEPAXI@Z 100941a0 f i Mission00.obj
 0001:000931f0       ??0MTU_Range_Target@@QAE@XZ 100941f0 f i Mission00.obj
 0001:00093220       ?Created@MTU_Range_Target@@EAEXPAVScriptableGameObj@@@Z 10094220 f i Mission00.obj
 0001:00093280       ?Killed@MTU_Range_Target@@EAEXPAVScriptableGameObj@@0@Z 10094280 f i Mission00.obj
 0001:00093320       ??_G?$ScriptRegistrant@VMTU_Range_Target_Path_Mid@@@@UAEPAXI@Z 10094320 f i Mission00.obj
 0001:00093320       ??_E?$ScriptRegistrant@VMTU_Range_Target_Path_Mid@@@@UAEPAXI@Z 10094320 f i Mission00.obj
 0001:00093370       ??0MTU_Range_Target_Path_Mid@@QAE@XZ 10094370 f i Mission00.obj
 0001:000933a0       ?Created@MTU_Range_Target_Path_Mid@@EAEXPAVScriptableGameObj@@@Z 100943a0 f i Mission00.obj
 0001:00093450       ??_E?$ScriptRegistrant@VMTU_Range_Target_Path_Right@@@@UAEPAXI@Z 10094450 f i Mission00.obj
 0001:00093450       ??_G?$ScriptRegistrant@VMTU_Range_Target_Path_Right@@@@UAEPAXI@Z 10094450 f i Mission00.obj
 0001:000934a0       ??0MTU_Range_Target_Path_Right@@QAE@XZ 100944a0 f i Mission00.obj
 0001:000934d0       ?Created@MTU_Range_Target_Path_Right@@EAEXPAVScriptableGameObj@@@Z 100944d0 f i Mission00.obj
 0001:00093580       ??_E?$ScriptRegistrant@VMTU_Range_Target_Path_Left@@@@UAEPAXI@Z 10094580 f i Mission00.obj
 0001:00093580       ??_G?$ScriptRegistrant@VMTU_Range_Target_Path_Left@@@@UAEPAXI@Z 10094580 f i Mission00.obj
 0001:000935d0       ??0MTU_Range_Target_Path_Left@@QAE@XZ 100945d0 f i Mission00.obj
 0001:00093600       ?Created@MTU_Range_Target_Path_Left@@EAEXPAVScriptableGameObj@@@Z 10094600 f i Mission00.obj
 0001:000936b0       ??_E?$ScriptRegistrant@VMTU_Range_Target_Miss_Commando@@@@UAEPAXI@Z 100946b0 f i Mission00.obj
 0001:000936b0       ??_G?$ScriptRegistrant@VMTU_Range_Target_Miss_Commando@@@@UAEPAXI@Z 100946b0 f i Mission00.obj
 0001:00093700       ??0MTU_Range_Target_Miss_Commando@@QAE@XZ 10094700 f i Mission00.obj
 0001:00093730       ?Created@MTU_Range_Target_Miss_Commando@@EAEXPAVScriptableGameObj@@@Z 10094730 f i Mission00.obj
 0001:00093770       ?Enemy_Seen@MTU_Range_Target_Miss_Commando@@EAEXPAVScriptableGameObj@@0@Z 10094770 f i Mission00.obj
 0001:00093840       ??_E?$ScriptRegistrant@VMTU_Range_Powerup@@@@UAEPAXI@Z 10094840 f i Mission00.obj
 0001:00093840       ??_G?$ScriptRegistrant@VMTU_Range_Powerup@@@@UAEPAXI@Z 10094840 f i Mission00.obj
 0001:00093890       ??0MTU_Range_Powerup@@QAE@XZ 10094890 f i Mission00.obj
 0001:000938c0       ?Custom@MTU_Range_Powerup@@EAEXPAVScriptableGameObj@@HH0@Z 100948c0 f i Mission00.obj
 0001:00093940       ??_E?$ScriptRegistrant@VMTU_GDI_Vehicle@@@@UAEPAXI@Z 10094940 f i Mission00.obj
 0001:00093940       ??_G?$ScriptRegistrant@VMTU_GDI_Vehicle@@@@UAEPAXI@Z 10094940 f i Mission00.obj
 0001:00093990       ??0MTU_GDI_Vehicle@@QAE@XZ 10094990 f i Mission00.obj
 0001:000939c0       ?Register_Auto_Save_Variables@MTU_GDI_Vehicle@@UAEXXZ 100949c0 f i Mission00.obj
 0001:000939f0       ?Created@MTU_GDI_Vehicle@@UAEXPAVScriptableGameObj@@@Z 100949f0 f i Mission00.obj
 0001:00093a30       ?Killed@MTU_GDI_Vehicle@@UAEXPAVScriptableGameObj@@0@Z 10094a30 f i Mission00.obj
 0001:00093b00       ?Custom@MTU_GDI_Vehicle@@UAEXPAVScriptableGameObj@@HH0@Z 10094b00 f i Mission00.obj
 0001:00093d00       ??_G?$ScriptRegistrant@VMTU_Building_Controller@@@@UAEPAXI@Z 10094d00 f i Mission00.obj
 0001:00093d00       ??_E?$ScriptRegistrant@VMTU_Building_Controller@@@@UAEPAXI@Z 10094d00 f i Mission00.obj
 0001:00093d50       ??0MTU_Building_Controller@@QAE@XZ 10094d50 f i Mission00.obj
 0001:00093d80       ?Created@MTU_Building_Controller@@EAEXPAVScriptableGameObj@@@Z 10094d80 f i Mission00.obj
 0001:00093db0       ?Damaged@MTU_Building_Controller@@EAEXPAVScriptableGameObj@@0M@Z 10094db0 f i Mission00.obj
 0001:00093e40       ?Custom@MTU_Building_Controller@@EAEXPAVScriptableGameObj@@HH0@Z 10094e40 f i Mission00.obj
 0001:00093ef0       ??_E?$ScriptRegistrant@VMTU_Nod_Soldier@@@@UAEPAXI@Z 10094ef0 f i Mission00.obj
 0001:00093ef0       ??_G?$ScriptRegistrant@VMTU_Nod_Soldier@@@@UAEPAXI@Z 10094ef0 f i Mission00.obj
 0001:00093f40       ??0MTU_Nod_Soldier@@QAE@XZ 10094f40 f i Mission00.obj
 0001:00093f70       ?Created@MTU_Nod_Soldier@@EAEXPAVScriptableGameObj@@@Z 10094f70 f i Mission00.obj
 0001:00094150       ?Damaged@MTU_Nod_Soldier@@EAEXPAVScriptableGameObj@@0M@Z 10095150 f i Mission00.obj
 0001:000941f0       ?Killed@MTU_Nod_Soldier@@EAEXPAVScriptableGameObj@@0@Z 100951f0 f i Mission00.obj
 0001:000942c0       ?Timer_Expired@MTU_Nod_Soldier@@EAEXPAVScriptableGameObj@@H@Z 100952c0 f i Mission00.obj
 0001:00094310       ??_E?$ScriptRegistrant@VMTU_Flyover@@@@UAEPAXI@Z 10095310 f i Mission00.obj
 0001:00094310       ??_G?$ScriptRegistrant@VMTU_Flyover@@@@UAEPAXI@Z 10095310 f i Mission00.obj
 0001:00094360       ??0MTU_Flyover@@QAE@XZ     10095360 f i Mission00.obj
 0001:00094390       ?Created@MTU_Flyover@@EAEXPAVScriptableGameObj@@@Z 10095390 f i Mission00.obj
 0001:000944a0       ?Action_Complete@MTU_Flyover@@EAEXPAVScriptableGameObj@@HW4ActionCompleteReason@@@Z 100954a0 f i Mission00.obj
 0001:000944d0       ??_E?$ScriptRegistrant@VMSK_Controller@@@@UAEPAXI@Z 100954d0 f i Mission00.obj
 0001:000944d0       ??_G?$ScriptRegistrant@VMSK_Controller@@@@UAEPAXI@Z 100954d0 f i Mission00.obj
 0001:00094520       ??0MSK_Controller@@QAE@XZ  10095520 f i Mission00.obj
 0001:00094550       ?Created@MSK_Controller@@EAEXPAVScriptableGameObj@@@Z 10095550 f i Mission00.obj
 0001:00094b40       ?Custom@MSK_Controller@@EAEXPAVScriptableGameObj@@HH0@Z 10095b40 f i Mission00.obj
 0001:00094b80       ??_E?$ScriptRegistrant@VMSK_Soldier@@@@UAEPAXI@Z 10095b80 f i Mission00.obj
 0001:00094b80       ??_G?$ScriptRegistrant@VMSK_Soldier@@@@UAEPAXI@Z 10095b80 f i Mission00.obj
 0001:00094bd0       ??0MSK_Soldier@@QAE@XZ     10095bd0 f i Mission00.obj
 0001:00094c00       ?Created@MSK_Soldier@@EAEXPAVScriptableGameObj@@@Z 10095c00 f i Mission00.obj
 0001:00094c90       ?Timer_Expired@MSK_Soldier@@EAEXPAVScriptableGameObj@@H@Z 10095c90 f i Mission00.obj
 0001:00095520       ?Action_Complete@MSK_Soldier@@EAEXPAVScriptableGameObj@@HW4ActionCompleteReason@@@Z 10096520 f i Mission00.obj
 0001:000955a0       ?Killed@MSK_Soldier@@EAEXPAVScriptableGameObj@@0@Z 100965a0 f i Mission00.obj
 0001:00095610       ?Damaged@MSK_Soldier@@EAEXPAVScriptableGameObj@@0M@Z 10096610 f i Mission00.obj
 0001:000956e0       ??_E?$ScriptRegistrant@VMSK_Info_Zone@@@@UAEPAXI@Z 100966e0 f i Mission00.obj
 0001:000956e0       ??_G?$ScriptRegistrant@VMSK_Info_Zone@@@@UAEPAXI@Z 100966e0 f i Mission00.obj
 0001:00095730       ??0MSK_Info_Zone@@QAE@XZ   10096730 f i Mission00.obj
 0001:00095760       ?Created@MSK_Info_Zone@@EAEXPAVScriptableGameObj@@@Z 10096760 f i Mission00.obj
 0001:00095790       ?Entered@MSK_Info_Zone@@EAEXPAVScriptableGameObj@@0@Z 10096790 f i Mission00.obj
 0001:00096e80       ??_EMTU_Tutorial_Controller@@UAEPAXI@Z 10097e80 f i Mission00.obj
 0001:00096e80       ??_GMTU_Tutorial_Controller@@UAEPAXI@Z 10097e80 f i Mission00.obj
 0001:00096ed0       ??_GMTU_Tutorial_Instructor@@UAEPAXI@Z 10097ed0 f i Mission00.obj
 0001:00096ed0       ??_EMTU_Tutorial_Instructor@@UAEPAXI@Z 10097ed0 f i Mission00.obj
 0001:00096f20       ??_GMTU_Trigger_Zone@@UAEPAXI@Z 10097f20 f i Mission00.obj
 0001:00096f20       ??_EMTU_Trigger_Zone@@UAEPAXI@Z 10097f20 f i Mission00.obj
 0001:00096f70       ??_GMTU_GDI_Soldier@@UAEPAXI@Z 10097f70 f i Mission00.obj
 0001:00096f70       ??_EMTU_GDI_Soldier@@UAEPAXI@Z 10097f70 f i Mission00.obj
 0001:00096fc0       ??_EMTU_Commando@@UAEPAXI@Z 10097fc0 f i Mission00.obj
 0001:00096fc0       ??_GMTU_Commando@@UAEPAXI@Z 10097fc0 f i Mission00.obj
 0001:00097010       ??_EMTU_Commando_Startup@@UAEPAXI@Z 10098010 f i Mission00.obj
 0001:00097010       ??_GMTU_Commando_Startup@@UAEPAXI@Z 10098010 f i Mission00.obj
 0001:00097060       ??_GMTU_PowerUp_Health@@UAEPAXI@Z 10098060 f i Mission00.obj
 0001:00097060       ??_EMTU_PowerUp_Health@@UAEPAXI@Z 10098060 f i Mission00.obj
 0001:000970b0       ??_EMTU_PowerUp_Armor@@UAEPAXI@Z 100980b0 f i Mission00.obj
 0001:000970b0       ??_GMTU_PowerUp_Armor@@UAEPAXI@Z 100980b0 f i Mission00.obj
 0001:00097100       ??_EMTU_Nod_Apache@@UAEPAXI@Z 10098100 f i Mission00.obj
 0001:00097100       ??_GMTU_Nod_Apache@@UAEPAXI@Z 10098100 f i Mission00.obj
 0001:00097150       ??_GMTU_Range_Target@@UAEPAXI@Z 10098150 f i Mission00.obj
 0001:00097150       ??_EMTU_Range_Target@@UAEPAXI@Z 10098150 f i Mission00.obj
 0001:000971a0       ??_EMTU_Range_Target_Path_Mid@@UAEPAXI@Z 100981a0 f i Mission00.obj
 0001:000971a0       ??_GMTU_Range_Target_Path_Mid@@UAEPAXI@Z 100981a0 f i Mission00.obj
 0001:000971f0       ??_EMTU_Range_Target_Path_Right@@UAEPAXI@Z 100981f0 f i Mission00.obj
 0001:000971f0       ??_GMTU_Range_Target_Path_Right@@UAEPAXI@Z 100981f0 f i Mission00.obj
 0001:00097240       ??_EMTU_Range_Target_Path_Left@@UAEPAXI@Z 10098240 f i Mission00.obj
 0001:00097240       ??_GMTU_Range_Target_Path_Left@@UAEPAXI@Z 10098240 f i Mission00.obj
 0001:00097290       ??_EMTU_Range_Target_Miss_Commando@@UAEPAXI@Z 10098290 f i Mission00.obj
 0001:00097290       ??_GMTU_Range_Target_Miss_Commando@@UAEPAXI@Z 10098290 f i Mission00.obj
 0001:000972e0       ??_GMTU_Range_Powerup@@UAEPAXI@Z 100982e0 f i Mission00.obj
 0001:000972e0       ??_EMTU_Range_Powerup@@UAEPAXI@Z 100982e0 f i Mission00.obj
 0001:00097330       ??_GMTU_GDI_Vehicle@@UAEPAXI@Z 10098330 f i Mission00.obj
 0001:00097330       ??_EMTU_GDI_Vehicle@@UAEPAXI@Z 10098330 f i Mission00.obj
 0001:00097380       ??_EMTU_Building_Controller@@UAEPAXI@Z 10098380 f i Mission00.obj
 0001:00097380       ??_GMTU_Building_Controller@@UAEPAXI@Z 10098380 f i Mission00.obj
 0001:000973d0       ??_EMTU_Nod_Soldier@@UAEPAXI@Z 100983d0 f i Mission00.obj
 0001:000973d0       ??_GMTU_Nod_Soldier@@UAEPAXI@Z 100983d0 f i Mission00.obj
 0001:00097420       ??_EMTU_Flyover@@UAEPAXI@Z 10098420 f i Mission00.obj
 0001:00097420       ??_GMTU_Flyover@@UAEPAXI@Z 10098420 f i Mission00.obj
 0001:00097470       ??_EMSK_Controller@@UAEPAXI@Z 10098470 f i Mission00.obj
 0001:00097470       ??_GMSK_Controller@@UAEPAXI@Z 10098470 f i Mission00.obj
 0001:000974c0       ??_EMSK_Soldier@@UAEPAXI@Z 100984c0 f i Mission00.obj
 0001:000974c0       ??_GMSK_Soldier@@UAEPAXI@Z 100984c0 f i Mission00.obj
 0001:00097510       ??_EMSK_Info_Zone@@UAEPAXI@Z 10098510 f i Mission00.obj
 0001:00097510       ??_GMSK_Info_Zone@@UAEPAXI@Z 10098510 f i Mission00.obj
 0001:00097560       ??1MTU_Tutorial_Controller@@UAE@XZ 10098560 f i Mission00.obj
 0001:00097590       ??1MTU_Tutorial_Instructor@@UAE@XZ 10098590 f i Mission00.obj
 0001:000975c0       ??1MTU_Trigger_Zone@@UAE@XZ 100985c0 f i Mission00.obj
 0001:000975f0       ??1MTU_GDI_Soldier@@UAE@XZ 100985f0 f i Mission00.obj
 0001:00097620       ??1MTU_Commando@@UAE@XZ    10098620 f i Mission00.obj
 0001:00097650       ??1MTU_Commando_Startup@@UAE@XZ 10098650 f i Mission00.obj
 0001:00097680       ??1MTU_PowerUp_Health@@UAE@XZ 10098680 f i Mission00.obj
 0001:000976b0       ??1MTU_PowerUp_Armor@@UAE@XZ 100986b0 f i Mission00.obj
 0001:000976e0       ??1MTU_Nod_Apache@@UAE@XZ  100986e0 f i Mission00.obj
 0001:00097710       ??1MTU_Range_Target@@UAE@XZ 10098710 f i Mission00.obj
 0001:00097740       ??1MTU_Range_Target_Path_Mid@@UAE@XZ 10098740 f i Mission00.obj
 0001:00097770       ??1MTU_Range_Target_Path_Right@@UAE@XZ 10098770 f i Mission00.obj
 0001:000977a0       ??1MTU_Range_Target_Path_Left@@UAE@XZ 100987a0 f i Mission00.obj
 0001:000977d0       ??1MTU_Range_Target_Miss_Commando@@UAE@XZ 100987d0 f i Mission00.obj
 0001:00097800       ??1MTU_Range_Powerup@@UAE@XZ 10098800 f i Mission00.obj
 0001:00097830       ??1MTU_GDI_Vehicle@@UAE@XZ 10098830 f i Mission00.obj
 0001:00097860       ??1MTU_Building_Controller@@UAE@XZ 10098860 f i Mission00.obj
 0001:00097890       ??1MTU_Nod_Soldier@@UAE@XZ 10098890 f i Mission00.obj
 0001:000978c0       ??1MTU_Flyover@@UAE@XZ     100988c0 f i Mission00.obj
 0001:000978f0       ??1MSK_Controller@@UAE@XZ  100988f0 f i Mission00.obj
 0001:00097920       ??1MSK_Soldier@@UAE@XZ     10098920 f i Mission00.obj
 0001:00097950       ??1MSK_Info_Zone@@UAE@XZ   10098950 f i Mission00.obj
 0001:00097a20       ??1?$ScriptRegistrant@VM01_Mission_Controller_JDG@@@@UAE@XZ 10098a20 f i Mission01.obj
 0001:00097af0       ??1?$ScriptRegistrant@VM01_HON_Medlab_DropOff_Guy_JDG@@@@UAE@XZ 10098af0 f i Mission01.obj
 0001:00097bc0       ??1?$ScriptRegistrant@VM01_Hand_of_Nod_Building_Script_JDG@@@@UAE@XZ 10098bc0 f i Mission01.obj
 0001:00097c90       ??1?$ScriptRegistrant@VM01_Flyover_Generic_Script_JDG@@@@UAE@XZ 10098c90 f i Mission01.obj
 0001:00097d60       ??1?$ScriptRegistrant@VM01_Ambient_Sound_Controller_JDG@@@@UAE@XZ 10098d60 f i Mission01.obj
 0001:00097e30       ??1?$ScriptRegistrant@VM01_Entering_Church_Area_Zone@@@@UAE@XZ 10098e30 f i Mission01.obj
 0001:00097f00       ??1?$ScriptRegistrant@VM01_Hand_Of_Nod_Interior_Zone@@@@UAE@XZ 10098f00 f i Mission01.obj
 0001:00097fd0       ??1?$ScriptRegistrant@VM01_Hand_Of_Nod_Exterior_Zone@@@@UAE@XZ 10098fd0 f i Mission01.obj
 0001:000980a0       ??1?$ScriptRegistrant@VM01_Comm_Center_Interior_Zone@@@@UAE@XZ 100990a0 f i Mission01.obj
 0001:00098170       ??1?$ScriptRegistrant@VM01_Comm_Center_Exterior_Zone@@@@UAE@XZ 10099170 f i Mission01.obj
 0001:00098240       ??1?$ScriptRegistrant@VM01_Tunnel_Interior_Zone@@@@UAE@XZ 10099240 f i Mission01.obj
 0001:00098310       ??1?$ScriptRegistrant@VM01_Tunnel_Exterior_Zone@@@@UAE@XZ 10099310 f i Mission01.obj
 0001:000983e0       ??1?$ScriptRegistrant@VM01_Waterfall_Interior_Zone@@@@UAE@XZ 100993e0 f i Mission01.obj
 0001:000984b0       ??1?$ScriptRegistrant@VM01_Waterfall_Exterior_Zone@@@@UAE@XZ 100994b0 f i Mission01.obj
 0001:00098580       ??1?$ScriptRegistrant@VM01_Player_is_Leaving_GDI_Base_Zone@@@@UAE@XZ 10099580 f i Mission01.obj
 0001:00098650       ??1?$ScriptRegistrant@VM01_Player_is_Entering_GDI_Base_Zone@@@@UAE@XZ 10099650 f i Mission01.obj
 0001:00098720       ??1?$ScriptRegistrant@VM01_Lose_Any_Church_Escorts_Zone@@@@UAE@XZ 10099720 f i Mission01.obj
 0001:000987f0       ??1?$ScriptRegistrant@VM01_Lose_Any_Church_Escorts_Zone_02@@@@UAE@XZ 100997f0 f i Mission01.obj
 0001:000988c0       ??1?$ScriptRegistrant@VM01_Lose_Any_HON_Escorts_Zone@@@@UAE@XZ 100998c0 f i Mission01.obj
 0001:00098990       ??1?$ScriptRegistrant@VM01_Lose_Any_HON_Escorts_Zone_02@@@@UAE@XZ 10099990 f i Mission01.obj
 0001:00098a60       ??1?$ScriptRegistrant@VM01_Announce_Prisoner_Objective_Zone@@@@UAE@XZ 10099a60 f i Mission01.obj
 0001:00098b30       ??1?$ScriptRegistrant@VM01_Scramble_Radar_Zone@@@@UAE@XZ 10099b30 f i Mission01.obj
 0001:00098c00       ??1?$ScriptRegistrant@VM01_UnScramble_Radar_Zone@@@@UAE@XZ 10099c00 f i Mission01.obj
 0001:00098cd0       ??1?$ScriptRegistrant@VM01_HON_Commander_Guy@@@@UAE@XZ 10099cd0 f i Mission01.obj
 0001:00098da0       ??1?$ScriptRegistrant@VM01_COMM_Commander_Guy@@@@UAE@XZ 10099da0 f i Mission01.obj
 0001:00098e70       ??1?$ScriptRegistrant@VM01_HandOfNod_SAMSite_Script@@@@UAE@XZ 10099e70 f i Mission01.obj
 0001:00098f40       ??1?$ScriptRegistrant@VM01_Destroyed_SAMSITE_JDG@@@@UAE@XZ 10099f40 f i Mission01.obj
 0001:00099010       ??1?$ScriptRegistrant@VM01_CommCenter_Evacuator_JDG@@@@UAE@XZ 1009a010 f i Mission01.obj
 0001:000990e0       ??1?$ScriptRegistrant@VM01_HON_FrontDoor_Evacuator_JDG@@@@UAE@XZ 1009a0e0 f i Mission01.obj
 0001:000991b0       ??1?$ScriptRegistrant@VM01_HON_BackDoor_Evacuator_JDG@@@@UAE@XZ 1009a1b0 f i Mission01.obj
 0001:00099280       ??1?$ScriptRegistrant@VM01_HON_Dorm_Crapper_JDG@@@@UAE@XZ 1009a280 f i Mission01.obj
 0001:00099350       ??1?$ScriptRegistrant@VM01_HON_Dorm_FlameGuy_JDG@@@@UAE@XZ 1009a350 f i Mission01.obj
 0001:00099420       ??1?$ScriptRegistrant@VM01_HON_Dorm_ChemGuy_JDG@@@@UAE@XZ 1009a420 f i Mission01.obj
 0001:000994f0       ??1?$ScriptRegistrant@VM01_HON_Dorm_RocketGuy_JDG@@@@UAE@XZ 1009a4f0 f i Mission01.obj
 0001:000995c0       ??1?$ScriptRegistrant@VM01_HON_Dorm_MiniGunner_JDG@@@@UAE@XZ 1009a5c0 f i Mission01.obj
 0001:00099690       ??1?$ScriptRegistrant@VM01_HON_Cafeteria_Eating_Guy_JDG@@@@UAE@XZ 1009a690 f i Mission01.obj
 0001:00099760       ??1?$ScriptRegistrant@VM01_HON_Cafeteria_Walking_Guy_JDG@@@@UAE@XZ 1009a760 f i Mission01.obj
 0001:00099830       ??1?$ScriptRegistrant@VM01_Hand_Of_Nod_Grunt_Zone@@@@UAE@XZ 1009a830 f i Mission01.obj
 0001:00099900       ??1?$ScriptRegistrant@VM01_Hand_Of_Nod_Dojo_Zone@@@@UAE@XZ 1009a900 f i Mission01.obj
 0001:000999d0       ??1?$ScriptRegistrant@VM01_Church_LoveShack_MiniGunner_JDG@@@@UAE@XZ 1009a9d0 f i Mission01.obj
 0001:00099aa0       ??1?$ScriptRegistrant@VM01_Church_Exterior_MiniGunner_JDG@@@@UAE@XZ 1009aaa0 f i Mission01.obj
 0001:00099b70       ??1?$ScriptRegistrant@VM01_Church_Balcony_MiniGunner_JDG@@@@UAE@XZ 1009ab70 f i Mission01.obj
 0001:00099c40       ??1?$ScriptRegistrant@VM01_Announce_Hand_of_Nod_Zone@@@@UAE@XZ 1009ac40 f i Mission01.obj
 0001:00099d10       ??1?$ScriptRegistrant@VM01_Announce_Barn_Objective_Zone@@@@UAE@XZ 1009ad10 f i Mission01.obj
 0001:00099de0       ??1?$ScriptRegistrant@VM01_Tiberium_Cave_Helicopter_JDG@@@@UAE@XZ 1009ade0 f i Mission01.obj
 0001:00099eb0       ??1?$ScriptRegistrant@VM01_Player_Is_Crossing_Bridge_Zone@@@@UAE@XZ 1009aeb0 f i Mission01.obj
 0001:00099f80       ??1?$ScriptRegistrant@VM01_Player_Is_Crossing_Bridge_Via_Cave_Zone@@@@UAE@XZ 1009af80 f i Mission01.obj
 0001:0009a050       ??1?$ScriptRegistrant@VM01_Player_Is_Crossing_Bridge_Via_Church_Zone@@@@UAE@XZ 1009b050 f i Mission01.obj
 0001:0009a120       ??1?$ScriptRegistrant@VM01_Flamethrower_Point_Guard_JDG@@@@UAE@XZ 1009b120 f i Mission01.obj
 0001:0009a1f0       ??1?$ScriptRegistrant@VM01_MiniGunner_Point_Guard_JDG@@@@UAE@XZ 1009b1f0 f i Mission01.obj
 0001:0009a2c0       ??1?$ScriptRegistrant@VM01_HON_Easy_Spawned_Guy_01_JDG@@@@UAE@XZ 1009b2c0 f i Mission01.obj
 0001:0009a390       ??1?$ScriptRegistrant@VM01_HON_Easy_Spawned_Guy_02_JDG@@@@UAE@XZ 1009b390 f i Mission01.obj
 0001:0009a460       ??1?$ScriptRegistrant@VM01_HON_Easy_Spawned_Guy_03_JDG@@@@UAE@XZ 1009b460 f i Mission01.obj
 0001:0009a530       ??1?$ScriptRegistrant@VM01_Whack_A_Mole_Enter_Zone_JDG@@@@UAE@XZ 1009b530 f i Mission01.obj
 0001:0009a600       ??1?$ScriptRegistrant@VM01_Whack_A_Mole_Exit_Zone_JDG@@@@UAE@XZ 1009b600 f i Mission01.obj
 0001:0009a6d0       ??1?$ScriptRegistrant@VM01_Whack_A_Mole_Minigunner_JDG@@@@UAE@XZ 1009b6d0 f i Mission01.obj
 0001:0009a7a0       ??1?$ScriptRegistrant@VM01_Left_Interrogation_Room_Enter_Zone_JDG@@@@UAE@XZ 1009b7a0 f i Mission01.obj
 0001:0009a870       ??1?$ScriptRegistrant@VM01_Right_Interrogation_Room_Enter_Zone_JDG@@@@UAE@XZ 1009b870 f i Mission01.obj
 0001:0009a940       ??1?$ScriptRegistrant@VM01_Interrogation_Room_L03_Keycard_JDG@@@@UAE@XZ 1009b940 f i Mission01.obj
 0001:0009aa10       ??1?$ScriptRegistrant@VM01_Interrogation_Room_Surprise_Guy_JDG@@@@UAE@XZ 1009ba10 f i Mission01.obj
 0001:0009aae0       ??1?$ScriptRegistrant@VM01_Medium_Tank_Tunnel_Squish_Guy_JDG@@@@UAE@XZ 1009bae0 f i Mission01.obj
 0001:0009abb0       ??1?$ScriptRegistrant@VM01_Billys_Conversation_Zone_JDG@@@@UAE@XZ 1009bbb0 f i Mission01.obj
 0001:0009ac80       ??1?$ScriptRegistrant@VM01_Tank_Entering_Tunnel_Zone_JDG@@@@UAE@XZ 1009bc80 f i Mission01.obj
 0001:0009ad50       ??1?$ScriptRegistrant@VM01_Player_Is_Entering_Tailgun_Alley_JDG@@@@UAE@XZ 1009bd50 f i Mission01.obj
 0001:0009ae20       ??1?$ScriptRegistrant@VM01_Player_Is_Entering_Tailgun_Alley_Backway_JDG@@@@UAE@XZ 1009be20 f i Mission01.obj
 0001:0009aef0       ??1?$ScriptRegistrant@VM01_TailGunner_01_JDG@@@@UAE@XZ 1009bef0 f i Mission01.obj
 0001:0009afc0       ??1?$ScriptRegistrant@VM01_TailGunner_02_JDG@@@@UAE@XZ 1009bfc0 f i Mission01.obj
 0001:0009b090       ??1?$ScriptRegistrant@VM01_TailGunner_03_JDG@@@@UAE@XZ 1009c090 f i Mission01.obj
 0001:0009b160       ??1?$ScriptRegistrant@VM01_TailGun_01_JDG@@@@UAE@XZ 1009c160 f i Mission01.obj
 0001:0009b230       ??1?$ScriptRegistrant@VM01_TailGun_02_JDG@@@@UAE@XZ 1009c230 f i Mission01.obj
 0001:0009b300       ??1?$ScriptRegistrant@VM01_TailGun_03_JDG@@@@UAE@XZ 1009c300 f i Mission01.obj
 0001:0009b3d0       ??1?$ScriptRegistrant@VM01_Tailgun_02_SpawnApache_Zone_JDG@@@@UAE@XZ 1009c3d0 f i Mission01.obj
 0001:0009b4a0       ??1?$ScriptRegistrant@VM01_Civ_To_Minigunner_Guy_JDG@@@@UAE@XZ 1009c4a0 f i Mission01.obj
 0001:0009b570       ??1?$ScriptRegistrant@VM01_Comm_Base_Commander_JDG@@@@UAE@XZ 1009c570 f i Mission01.obj
 0001:0009b640       ??1?$ScriptRegistrant@VM01_Comm_Stationary_Tech_JDG@@@@UAE@XZ 1009c640 f i Mission01.obj
 0001:0009b710       ??1?$ScriptRegistrant@VM01_Comm_ComputerRoom_Tech_JDG@@@@UAE@XZ 1009c710 f i Mission01.obj
 0001:0009b7e0       ??1?$ScriptRegistrant@VM01_Comm_Upstairs_Guard_JDG@@@@UAE@XZ 1009c7e0 f i Mission01.obj
 0001:0009b8b0       ??1?$ScriptRegistrant@VM01_Comm_Base_Commander_Conv_Start_Zone_JDG@@@@UAE@XZ 1009c8b0 f i Mission01.obj
 0001:0009b980       ??1?$ScriptRegistrant@VM01_Comm_Kane_n_Havoc_Conv_Start_Zone_JDG@@@@UAE@XZ 1009c980 f i Mission01.obj
 0001:0009ba50       ??1?$ScriptRegistrant@VM01_HON_MCT_Placeholder_JDG@@@@UAE@XZ 1009ca50 f i Mission01.obj
 0001:0009bb20       ??1?$ScriptRegistrant@VM01_Comm_MCT_Placeholder_JDG@@@@UAE@XZ 1009cb20 f i Mission01.obj
 0001:0009bbf0       ??1?$ScriptRegistrant@VM01_GDI_Toolshed_PatrolGuy_JDG@@@@UAE@XZ 1009cbf0 f i Mission01.obj
 0001:0009bcc0       ??1?$ScriptRegistrant@VM01_GDI_Base_Spawner_Controller_JDG@@@@UAE@XZ 1009ccc0 f i Mission01.obj
 0001:0009bd90       ??1?$ScriptRegistrant@VM01_GDI_Base_Spawner_Guy_JDG@@@@UAE@XZ 1009cd90 f i Mission01.obj
 0001:0009be60       ??1?$ScriptRegistrant@VM01_Tailgun_Run_Spawner_Controller_JDG@@@@UAE@XZ 1009ce60 f i Mission01.obj
 0001:0009bf30       ??1?$ScriptRegistrant@VM01_TailgunRun_Spawner_Guy_JDG@@@@UAE@XZ 1009cf30 f i Mission01.obj
 0001:0009c000       ??1?$ScriptRegistrant@VM01_ChurchArea_Spawner_Controller_JDG@@@@UAE@XZ 1009d000 f i Mission01.obj
 0001:0009c0d0       ??1?$ScriptRegistrant@VM01_ChurchArea_Spawner_Guy_JDG@@@@UAE@XZ 1009d0d0 f i Mission01.obj
 0001:0009c1a0       ??1?$ScriptRegistrant@VM01_Turn_on_the_Hand_of_Nod_Zone_JDG@@@@UAE@XZ 1009d1a0 f i Mission01.obj
 0001:0009c270       ??1?$ScriptRegistrant@VM01_TailgunRun_NOD_Commander_JDG@@@@UAE@XZ 1009d270 f i Mission01.obj
 0001:0009c340       ??1?$ScriptRegistrant@VM01_ChurchArea_NOD_Commander_JDG@@@@UAE@XZ 1009d340 f i Mission01.obj
 0001:0009c410       ??1?$ScriptRegistrant@VM01_GDI_Base_Artillery_Controller_JDG@@@@UAE@XZ 1009d410 f i Mission01.obj
 0001:0009c4e0       ??1?$ScriptRegistrant@VM01_Nod_GuardTower_01_Enter_Zone_JDG@@@@UAE@XZ 1009d4e0 f i Mission01.obj
 0001:0009c5b0       ??1?$ScriptRegistrant@VM01_Nod_GuardTower_02_Enter_Zone_JDG@@@@UAE@XZ 1009d5b0 f i Mission01.obj
 0001:0009c680       ??1?$ScriptRegistrant@VM01_Nod_GuardTower_03_Enter_Zone_JDG@@@@UAE@XZ 1009d680 f i Mission01.obj
 0001:0009c750       ??1?$ScriptRegistrant@VM01_GuardTower_Sniper_Target_JDG@@@@UAE@XZ 1009d750 f i Mission01.obj
 0001:0009c820       ??1?$ScriptRegistrant@VM01_Gunboat_Spawn_Hovercraft_Zone_JDG@@@@UAE@XZ 1009d820 f i Mission01.obj
 0001:0009c8f0       ??1?$ScriptRegistrant@VM01_BasalBuilding_Population_JDG@@@@UAE@XZ 1009d8f0 f i Mission01.obj
 0001:0009c9c0       ??1?$ScriptRegistrant@VM01_HarvesterScript_New_JDG@@@@UAE@XZ 1009d9c0 f i Mission01.obj
 0001:0009ca90       ??1?$ScriptRegistrant@VM01_TibField_Guard01_New_JDG@@@@UAE@XZ 1009da90 f i Mission01.obj
 0001:0009cb60       ??1?$ScriptRegistrant@VM01_Barn_Babushkas_Conversation_Zone_JDG@@@@UAE@XZ 1009db60 f i Mission01.obj
 0001:0009cc30       ??1?$ScriptRegistrant@VM01_Barn_Point_Guard_01_JDG@@@@UAE@XZ 1009dc30 f i Mission01.obj
 0001:0009cd00       ??1?$ScriptRegistrant@VM01_Barn_Point_Guard_02_JDG@@@@UAE@XZ 1009dd00 f i Mission01.obj
 0001:0009cdd0       ??1?$ScriptRegistrant@VM01_Barn_Door_Guard_JDG@@@@UAE@XZ 1009ddd0 f i Mission01.obj
 0001:0009cea0       ??1?$ScriptRegistrant@VM01_Barn_Talk_Guard_01_JDG@@@@UAE@XZ 1009dea0 f i Mission01.obj
 0001:0009cf70       ??1?$ScriptRegistrant@VM01_BarnArea_AI_ExitZone_JDG@@@@UAE@XZ 1009df70 f i Mission01.obj
 0001:0009d040       ??1?$ScriptRegistrant@VM01_TurretBeach_GDI_Guy_01_JDG@@@@UAE@XZ 1009e040 f i Mission01.obj
 0001:0009d110       ??1?$ScriptRegistrant@VM01_TurretBeach_GDI_Guy_02_JDG@@@@UAE@XZ 1009e110 f i Mission01.obj
 0001:0009d1e0       ??1?$ScriptRegistrant@VM01_DetentionPen_CivDeathMonitor@@@@UAE@XZ 1009e1e0 f i Mission01.obj
 0001:0009d2b0       ??1?$ScriptRegistrant@VM01_DetentionPen_GDIDeathMonitor@@@@UAE@XZ 1009e2b0 f i Mission01.obj
 0001:0009d380       ??1?$ScriptRegistrant@VM01_DetentionPen_Evac_Controller01_JDG@@@@UAE@XZ 1009e380 f i Mission01.obj
 0001:0009d450       ??1?$ScriptRegistrant@VM01_DetentionCiv_Air_Evac_Waypath_JDG@@@@UAE@XZ 1009e450 f i Mission01.obj
 0001:0009d520       ??1?$ScriptRegistrant@VM01_DetentionCiv_Air_Evac_Chopper_JDG@@@@UAE@XZ 1009e520 f i Mission01.obj
 0001:0009d5f0       ??1?$ScriptRegistrant@VM01_DetentionPen_Evac_Controller02_JDG@@@@UAE@XZ 1009e5f0 f i Mission01.obj
 0001:0009d6c0       ??1?$ScriptRegistrant@VM01_DetentionGDI_Air_Evac_Waypath_JDG@@@@UAE@XZ 1009e6c0 f i Mission01.obj
 0001:0009d790       ??1?$ScriptRegistrant@VM01_DetentionGDI_Air_Evac_Chopper_JDG@@@@UAE@XZ 1009e790 f i Mission01.obj
 0001:0009d860       ??1?$ScriptRegistrant@VM01_Nod_Chinook_Reinforcement_Guy_JDG@@@@UAE@XZ 1009e860 f i Mission01.obj
 0001:0009d930       ??1?$ScriptRegistrant@VM01_Hunt_The_Player_JDG@@@@UAE@XZ 1009e930 f i Mission01.obj
 0001:0009da00       ??1?$ScriptRegistrant@VM01_HON_Escorts_Warroom_MCT_Commander_JDG@@@@UAE@XZ 1009ea00 f i Mission01.obj
 0001:0009dad0       ??1?$ScriptRegistrant@VM01_HON_Escorts_Warroom_MCT_Protector01_JDG@@@@UAE@XZ 1009ead0 f i Mission01.obj
 0001:0009dba0       ??1?$ScriptRegistrant@VM01_HON_Escorts_Warroom_MCT_Protector02_JDG@@@@UAE@XZ 1009eba0 f i Mission01.obj
 0001:0009dc70       ??1?$ScriptRegistrant@VM01_HON_Engineer02_JDG@@@@UAE@XZ 1009ec70 f i Mission01.obj
 0001:0009dd40       ??1?$ScriptRegistrant@VM01_HON_Chinook_Spawned_Soldier_03_GDI_JDG@@@@UAE@XZ 1009ed40 f i Mission01.obj
 0001:0009de10       ??1?$ScriptRegistrant@VM01_HON_Chinook_Spawned_Soldier_04_GDI_JDG@@@@UAE@XZ 1009ee10 f i Mission01.obj
 0001:0009dee0       ??1?$ScriptRegistrant@VM01_BuggyNew_Controller_JDG@@@@UAE@XZ 1009eee0 f i Mission01.obj
 0001:0009dfb0       ??1?$ScriptRegistrant@VM01_BuggyScript_New_JDG@@@@UAE@XZ 1009efb0 f i Mission01.obj
 0001:0009e080       ??1?$ScriptRegistrant@VM01_Priest_Conversation_Zone_JDG@@@@UAE@XZ 1009f080 f i Mission01.obj
 0001:0009e150       ??1?$ScriptRegistrant@VM01_Loveshack_Nun_Conversation_Zone_JDG@@@@UAE@XZ 1009f150 f i Mission01.obj
 0001:0009e220       ??1?$ScriptRegistrant@VM01_Interior_Nun_Conversation_Zone_JDG@@@@UAE@XZ 1009f220 f i Mission01.obj
 0001:0009e2f0       ??1?$ScriptRegistrant@VM01_Church_Guard_MiniGunner_JDG@@@@UAE@XZ 1009f2f0 f i Mission01.obj
 0001:0009e3c0       ??1?$ScriptRegistrant@VM01_Church_Loveshack_InterrogationConv_Zone_JDG@@@@UAE@XZ 1009f3c0 f i Mission01.obj
 0001:0009e490       ??1?$ScriptRegistrant@VM01_GDI_Escort_Conversation_Controller_GDI@@@@UAE@XZ 1009f490 f i Mission01.obj
 0001:0009e560       ??1?$ScriptRegistrant@VM01_CHURCH_Chinook_Spawned_Soldier01_GDI@@@@UAE@XZ 1009f560 f i Mission01.obj
 0001:0009e630       ??1?$ScriptRegistrant@VM01_CHURCH_Chinook_Spawned_Soldier02_GDI@@@@UAE@XZ 1009f630 f i Mission01.obj
 0001:0009e700       ??1?$ScriptRegistrant@VM01_COMM_Chinook_Spawned_Soldier_GDI@@@@UAE@XZ 1009f700 f i Mission01.obj
 0001:0009e7d0       ??1?$ScriptRegistrant@VM01_Barn_Truck_JDG@@@@UAE@XZ 1009f7d0 f i Mission01.obj
 0001:0009e8a0       ??1?$ScriptRegistrant@VM01_GDIBase_EvacMonitor_JDG@@@@UAE@XZ 1009f8a0 f i Mission01.obj
 0001:0009e970       ??1?$ScriptRegistrant@VM01_ChurchArea_EvacMonitor_JDG@@@@UAE@XZ 1009f970 f i Mission01.obj
 0001:0009ea40       ??1?$ScriptRegistrant@VM01_MovieProjector_JDG@@@@UAE@XZ 1009fa40 f i Mission01.obj
 0001:0009eb10       ??1?$ScriptRegistrant@VM01_Propaganda_Sounds_Controller_JDG@@@@UAE@XZ 1009fb10 f i Mission01.obj
 0001:0009ebe0       ??1?$ScriptRegistrant@VM01_BackPath_NodGuy_JDG@@@@UAE@XZ 1009fbe0 f i Mission01.obj
 0001:0009ecb0       ??1?$ScriptRegistrant@VM01_Comm_Repair_Engineer_JDG@@@@UAE@XZ 1009fcb0 f i Mission01.obj
 0001:0009ed80       ??1?$ScriptRegistrant@VM01_Comm_Center_Building_Script_JDG@@@@UAE@XZ 1009fd80 f i Mission01.obj
 0001:0009ee50       ??1?$ScriptRegistrant@VM01_PaintballRoom_ChatterController_JDG@@@@UAE@XZ 1009fe50 f i Mission01.obj
 0001:0009ef20       ??1?$ScriptRegistrant@VM01_HON_Paintball_Team_01_JDG@@@@UAE@XZ 1009ff20 f i Mission01.obj
 0001:0009eff0       ??1?$ScriptRegistrant@VM01_HON_Paintball_Team_02_JDG@@@@UAE@XZ 1009fff0 f i Mission01.obj
 0001:0009f0c0       ??1?$ScriptRegistrant@VM01_HON_Dojo_Trainer_JDG@@@@UAE@XZ 100a00c0 f i Mission01.obj
 0001:0009f190       ??1?$ScriptRegistrant@VM01_HON_Dojo_Civ_01_JDG@@@@UAE@XZ 100a0190 f i Mission01.obj
 0001:0009f260       ??1?$ScriptRegistrant@VM01_Nod_GuardTower_Tailgun_JDG@@@@UAE@XZ 100a0260 f i Mission01.obj
 0001:0009f330       ??1?$ScriptRegistrant@VM01_Comm_Mainframe_PogZone_01_JDG@@@@UAE@XZ 100a0330 f i Mission01.obj
 0001:0009f400       ??1?$ScriptRegistrant@VM01_Comm_Mainframe_PogZone_02_JDG@@@@UAE@XZ 100a0400 f i Mission01.obj
 0001:0009f4d0       ??1?$ScriptRegistrant@VM01_Comm_Mainframe_PogZone_03_JDG@@@@UAE@XZ 100a04d0 f i Mission01.obj
 0001:0009f5a0       ??1?$ScriptRegistrant@VM01_Comm_Center_Player_Terminal_Zone@@@@UAE@XZ 100a05a0 f i Mission01.obj
 0001:0009f670       ??1?$ScriptRegistrant@VM01_Objective_Pog_Controller_JDG@@@@UAE@XZ 100a0670 f i Mission01.obj
 0001:0009f740       ??1?$ScriptRegistrant@VM01_GDIBase_FirstChinook_Script_JDG@@@@UAE@XZ 100a0740 f i Mission01.obj
 0001:0009f810       ??1?$ScriptRegistrant@VM01_Church_EvacController_JDG@@@@UAE@XZ 100a0810 f i Mission01.obj
 0001:0009f8e0       ??1?$ScriptRegistrant@VM01_ChurchArea_Air_Evac_Rope_JDG@@@@UAE@XZ 100a08e0 f i Mission01.obj
 0001:0009f9b0       ??1?$ScriptRegistrant@VM01_ChurchArea_Air_Evac_Waypath_JDG@@@@UAE@XZ 100a09b0 f i Mission01.obj
 0001:0009fa80       ??1?$ScriptRegistrant@VM01_ChurchArea_Air_Evac_Chopper_JDG@@@@UAE@XZ 100a0a80 f i Mission01.obj
 0001:0009fb50       ??1?$ScriptRegistrant@VM01_Church_Priest_JDG@@@@UAE@XZ 100a0b50 f i Mission01.obj
 0001:0009fc20       ??1?$ScriptRegistrant@VM01_Church_Interior_Nun_JDG@@@@UAE@XZ 100a0c20 f i Mission01.obj
 0001:0009fcf0       ??1?$ScriptRegistrant@VM01_Church_LoveShack_Nun_JDG@@@@UAE@XZ 100a0cf0 f i Mission01.obj
 0001:0009fdc0       ??1?$ScriptRegistrant@VM01_BarnArea_Air_Evac_Rope_JDG@@@@UAE@XZ 100a0dc0 f i Mission01.obj
 0001:0009fe90       ??1?$ScriptRegistrant@VM01_BarnArea_Air_Evac_Waypath_JDG@@@@UAE@XZ 100a0e90 f i Mission01.obj
 0001:0009ff60       ??1?$ScriptRegistrant@VM01_BarnArea_Air_Evac_Chopper_JDG@@@@UAE@XZ 100a0f60 f i Mission01.obj
 0001:000a0030       ??1?$ScriptRegistrant@VM01_Barn_Prisoner_01_JDG@@@@UAE@XZ 100a1030 f i Mission01.obj
 0001:000a0100       ??1?$ScriptRegistrant@VM01_Barn_Prisoner_02_JDG@@@@UAE@XZ 100a1100 f i Mission01.obj
 0001:000a01d0       ??1?$ScriptRegistrant@VM01_Barn_Prisoner_03_JDG@@@@UAE@XZ 100a11d0 f i Mission01.obj
 0001:000a02a0       ??1?$ScriptRegistrant@VM01_GDIBasePOW_Air_Evac_Rope_JDG@@@@UAE@XZ 100a12a0 f i Mission01.obj
 0001:000a0370       ??1?$ScriptRegistrant@VM01_GDIBasePOW_Air_Evac_Waypath_JDG@@@@UAE@XZ 100a1370 f i Mission01.obj
 0001:000a0440       ??1?$ScriptRegistrant@VM01_Evac_TroopBone_JDG@@@@UAE@XZ 100a1440 f i Mission01.obj
 0001:000a0510       ??1?$ScriptRegistrant@VM01_GDIBaseCommander_Air_Evac_Waypath_JDG@@@@UAE@XZ 100a1510 f i Mission01.obj
 0001:000a05e0       ??1?$ScriptRegistrant@VM01_GDIBaseCommander_Air_Evac_Rope_JDG@@@@UAE@XZ 100a15e0 f i Mission01.obj
 0001:000a06b0       ??1?$ScriptRegistrant@VM01_TriggerZone_GDIBase_BaseCommander_JDG@@@@UAE@XZ 100a16b0 f i Mission01.obj
 0001:000a0780       ??1?$ScriptRegistrant@VM01_GDIBase_FirstChinookFlamethrowerGuy_JDG@@@@UAE@XZ 100a1780 f i Mission01.obj
 0001:000a0850       ??1?$ScriptRegistrant@VM01_TibCave_StartZone_JDG@@@@UAE@XZ 100a1850 f i Mission01.obj
 0001:000a0920       ??1?$ScriptRegistrant@VM01_Visceroid01_JDG@@@@UAE@XZ 100a1920 f i Mission01.obj
 0001:000a09f0       ??1?$ScriptRegistrant@VM01_Visceroid02_JDG@@@@UAE@XZ 100a19f0 f i Mission01.obj
 0001:000a0ac0       ??1?$ScriptRegistrant@VM01_Visceroid03_JDG@@@@UAE@XZ 100a1ac0 f i Mission01.obj
 0001:000a0b90       ??1?$ScriptRegistrant@VM01_Visceroid_NodGuy01_JDG@@@@UAE@XZ 100a1b90 f i Mission01.obj
 0001:000a0c60       ??1?$ScriptRegistrant@VM01_Visceroid_NodGuy02_JDG@@@@UAE@XZ 100a1c60 f i Mission01.obj
 0001:000a0d30       ??1?$ScriptRegistrant@VM01_Tiberium_Cave_Spawn_Helicopter_Zone_JDG@@@@UAE@XZ 100a1d30 f i Mission01.obj
 0001:000a0e00       ??1?$ScriptRegistrant@VM01_TiberiumCave_UpThere_NodGuy_JDG@@@@UAE@XZ 100a1e00 f i Mission01.obj
 0001:000a0ed0       ??1?$ScriptRegistrant@VM01_Detention_GuardTower_Enter_Zone_JDG@@@@UAE@XZ 100a1ed0 f i Mission01.obj
 0001:000a0fa0       ??1?$ScriptRegistrant@VM01_PrisonPen_POW_JDG@@@@UAE@XZ 100a1fa0 f i Mission01.obj
 0001:000a1070       ??1?$ScriptRegistrant@VM01_PrisonPen_Civilian_JDG@@@@UAE@XZ 100a2070 f i Mission01.obj
 0001:000a1140       ??1?$ScriptRegistrant@VM01_BarnArea_NOD_Commander_Trigger_Zone_JDG@@@@UAE@XZ 100a2140 f i Mission01.obj
 0001:000a1210       ??1?$ScriptRegistrant@VM01_GDI_GuardTower_NOD_Commander_JDG@@@@UAE@XZ 100a2210 f i Mission01.obj
 0001:000a12e0       ??1?$ScriptRegistrant@VM01_Nod_Commander_Conversation_Controller_GDI@@@@UAE@XZ 100a22e0 f i Mission01.obj
 0001:000a13b0       ??1?$ScriptRegistrant@VM01_GDIBase_LightTank_PastTunnelZone_JDG@@@@UAE@XZ 100a23b0 f i Mission01.obj
 0001:000a1480       ??1?$ScriptRegistrant@VM01_KeyCard01_Script_JDG@@@@UAE@XZ 100a2480 f i Mission01.obj
 0001:000a1550       ??1?$ScriptRegistrant@VM01_GDIBase_AI_ExitZone_JDG@@@@UAE@XZ 100a2550 f i Mission01.obj
 0001:000a1620       ??1?$ScriptRegistrant@VM01_GDIBase_LightTank_JDG@@@@UAE@XZ 100a2620 f i Mission01.obj
 0001:000a16f0       ??1?$ScriptRegistrant@VM01_GDIBase_BackPath_NodGuy_JDG@@@@UAE@XZ 100a26f0 f i Mission01.obj
 0001:000a17c0       ??1?$ScriptRegistrant@VM01_Sinking_Gunboat_JDG@@@@UAE@XZ 100a27c0 f i Mission01.obj
 0001:000a1890       ??1?$ScriptRegistrant@VM01_PlayerEntering_BarnArea_Zone_JDG@@@@UAE@XZ 100a2890 f i Mission01.obj
 0001:000a1960       ??1?$ScriptRegistrant@VM01_PlayerLeaving_BarnArea_Zone_JDG@@@@UAE@XZ 100a2960 f i Mission01.obj
 0001:000a1a30       ??1?$ScriptRegistrant@VM01_Barn_EntryZone_JDG@@@@UAE@XZ 100a2a30 f i Mission01.obj
 0001:000a1b00       ??1?$ScriptRegistrant@VM01_GDI_BaseCommander_Backside_EntryZone_JDG@@@@UAE@XZ 100a2b00 f i Mission01.obj
 0001:000a1bd0       ??1?$ScriptRegistrant@VM01_Obelisk_UpdateDisc_JDG@@@@UAE@XZ 100a2bd0 f i Mission01.obj
 0001:000a1ca0       ??1?$ScriptRegistrant@VM01_BarnArea_EvacMonitor_JDG@@@@UAE@XZ 100a2ca0 f i Mission01.obj
 0001:000a1d70       ??1?$ScriptRegistrant@VM01_HON_RedKey_Zone_JDG@@@@UAE@XZ 100a2d70 f i Mission01.obj
 0001:000a1e40       ??1?$ScriptRegistrant@VM01_Comm_Center_Pen_Gate@@@@UAE@XZ 100a2e40 f i Mission01.obj
 0001:000a1f10       ??1?$ScriptRegistrant@VM01_CommCenter_SAMSite_Script@@@@UAE@XZ 100a2f10 f i Mission01.obj
 0001:000a1fe0       ??1?$ScriptRegistrant@VM01_Commander_Shack_Zone_JDG@@@@UAE@XZ 100a2fe0 f i Mission01.obj
 0001:000a20b0       ??1?$ScriptRegistrant@VM01_TurretBeach_Engineer_JDG@@@@UAE@XZ 100a30b0 f i Mission01.obj
 0001:000a2180       ??1?$ScriptRegistrant@VM01_TurretBeach_Chinook_Spawned_Soldier_NOD@@@@UAE@XZ 100a3180 f i Mission01.obj
 0001:000a2250       ??1?$ScriptRegistrant@VM01_FP_NodBase_Dogfight_Contoller_JDG@@@@UAE@XZ 100a3250 f i Mission01.obj
 0001:000a2320       ??1?$ScriptRegistrant@VM01_FP_BaseToBase_NorthSouth_Contoller_JDG@@@@UAE@XZ 100a3320 f i Mission01.obj
 0001:000a23f0       ??1?$ScriptRegistrant@VM01_FP_BaseToBase_SouthNorth_Contoller_JDG@@@@UAE@XZ 100a33f0 f i Mission01.obj
 0001:000a24c0       ??1?$ScriptRegistrant@VM01_FP_NodBase_EastWest_Contoller_JDG@@@@UAE@XZ 100a34c0 f i Mission01.obj
 0001:000a2590       ??1?$ScriptRegistrant@VM01_FP_NodBase_WestEast_Contoller_JDG@@@@UAE@XZ 100a3590 f i Mission01.obj
 0001:000a2660       ??1?$ScriptRegistrant@VM01_FP_NodBase_NorthSouth_Contoller_JDG@@@@UAE@XZ 100a3660 f i Mission01.obj
 0001:000a2730       ??1?$ScriptRegistrant@VM01_FP_NodBase_SouthNorth_Contoller_JDG@@@@UAE@XZ 100a3730 f i Mission01.obj
 0001:000a2800       ??1?$ScriptRegistrant@VM01_FP_GDIOcean_NorthSouth_Contoller_JDG@@@@UAE@XZ 100a3800 f i Mission01.obj
 0001:000a28d0       ??1?$ScriptRegistrant@VM01_FP_GDIOcean_SouthNorth_Contoller_JDG@@@@UAE@XZ 100a38d0 f i Mission01.obj
 0001:000a29a0       ??1?$ScriptRegistrant@VM01_Deco_LightTanks_JDG@@@@UAE@XZ 100a39a0 f i Mission01.obj
 0001:000a2a70       ??1?$ScriptRegistrant@VM01_Airstrike_Controller_JDG@@@@UAE@XZ 100a3a70 f i Mission01.obj
 0001:000a2b40       ??1?$ScriptRegistrant@VM01_GDIBase_RealLightTank_JDG@@@@UAE@XZ 100a3b40 f i Mission01.obj
 0001:000a2c10       ??1?$ScriptRegistrant@VM01_RealLightTank_TriggerZone_JDG@@@@UAE@XZ 100a3c10 f i Mission01.obj
 0001:000a2ce0       ??1?$ScriptRegistrant@VM01_First_AutoRifle_JDG@@@@UAE@XZ 100a3ce0 f i Mission01.obj
 0001:000a2db0       ??1?$ScriptRegistrant@VM01_Announce_First_ObjectiveZone_JDG@@@@UAE@XZ 100a3db0 f i Mission01.obj
 0001:000a2e80       ??1?$ScriptRegistrant@VM01_SniperRifle_01_JDG@@@@UAE@XZ 100a3e80 f i Mission01.obj
 0001:000a2f50       ??1?$ScriptRegistrant@VM01_SniperRifle_01_Target_JDG@@@@UAE@XZ 100a3f50 f i Mission01.obj
 0001:000a3020       ??1?$ScriptRegistrant@VM01_SniperRifle_02_JDG@@@@UAE@XZ 100a4020 f i Mission01.obj
 0001:000a30f0       ??1?$ScriptRegistrant@VM01_SniperRifle_02_AirdropZone_JDG@@@@UAE@XZ 100a40f0 f i Mission01.obj
 0001:000a31c0       ??1?$ScriptRegistrant@VM01_C4_TutorialScript_JDG@@@@UAE@XZ 100a41c0 f i Mission01.obj
 0001:000a3290       ??1?$ScriptRegistrant@VM01_Use_Ladder_Zone_JDG@@@@UAE@XZ 100a4290 f i Mission01.obj
 0001:000a3360       ??1?$ScriptRegistrant@VM01_AccessDenied_Zone_JDG@@@@UAE@XZ 100a4360 f i Mission01.obj
 0001:000a3430       ??1?$ScriptRegistrant@VM01_GDIBase_FirstChinookMinigunnerGuy_JDG@@@@UAE@XZ 100a4430 f i Mission01.obj
 0001:000a3500       ??1?$ScriptRegistrant@VM01_QuickSave_Zone_JDG@@@@UAE@XZ 100a4500 f i Mission01.obj
 0001:000a35d0       ??1?$ScriptRegistrant@VM01_GDIBaseCommander_Air_Evac_Chopper_JDG@@@@UAE@XZ 100a45d0 f i Mission01.obj
 0001:000a36a0       ??1?$ScriptRegistrant@VM01_GDIBaseCommander_EvacController_JDG@@@@UAE@XZ 100a46a0 f i Mission01.obj
 0001:000a3770       ??1?$ScriptRegistrant@VM01_Base_Nod_Minigunner_JDG@@@@UAE@XZ 100a4770 f i Mission01.obj
 0001:000a3840       ??1?$ScriptRegistrant@VM01_POW_Nod_Minigunner01_JDG@@@@UAE@XZ 100a4840 f i Mission01.obj
 0001:000a3910       ??1?$ScriptRegistrant@VM01_GDIBase_POWEncounter02_Controller_JDG@@@@UAE@XZ 100a4910 f i Mission01.obj
 0001:000a39e0       ??1?$ScriptRegistrant@VM01_GDIBasePOW_Air_Evac_Chopper_JDG@@@@UAE@XZ 100a49e0 f i Mission01.obj
 0001:000a3ab0       ??1?$ScriptRegistrant@VM01_ConDropZone_JDG@@@@UAE@XZ 100a4ab0 f i Mission01.obj
 0001:000a3b80       ??1?$ScriptRegistrant@VM01_ConYard_Dropoff_Dude_JDG@@@@UAE@XZ 100a4b80 f i Mission01.obj
 0001:000a3c50       ??1?$ScriptRegistrant@VM01_C130_Dropoff_Dude_JDG@@@@UAE@XZ 100a4c50 f i Mission01.obj
 0001:000a3d20       ??1?$ScriptRegistrant@VM01_Base_GDI_Fodder_JDG@@@@UAE@XZ 100a4d20 f i Mission01.obj
 0001:000a3df0       ??1?$ScriptRegistrant@VM01_Base_StartZone_JDG@@@@UAE@XZ 100a4df0 f i Mission01.obj
 0001:000a3ec0       ??1?$ScriptRegistrant@VM01_Nod_Truck_JDG@@@@UAE@XZ 100a4ec0 f i Mission01.obj
 0001:000a3f90       ??1?$ScriptRegistrant@VM01_C4_Tutorial_Zone_JDG@@@@UAE@XZ 100a4f90 f i Mission01.obj
 0001:000a4060       ??1?$ScriptRegistrant@VM01_Mainframe_Tutorial_Zone_JDG@@@@UAE@XZ 100a5060 f i Mission01.obj
 0001:000a4130       ??1?$ScriptRegistrant@VM01_GateSwitch_Tutorial_Zone_JDG@@@@UAE@XZ 100a5130 f i Mission01.obj
 0001:000a4200       ??1?$ScriptRegistrant@VM01_BarnArea_NOD_Commander_Trigger_Zone02_JDG@@@@UAE@XZ 100a5200 f i Mission01.obj
 0001:000a42d0       ??1?$ScriptRegistrant@VM01_TurretBeach_Turret_01_Script_JDG@@@@UAE@XZ 100a52d0 f i Mission01.obj
 0001:000a43a0       ??1?$ScriptRegistrant@VM01_GunboatAction_Controller_JDG@@@@UAE@XZ 100a53a0 f i Mission01.obj
 0001:000a4470       ??1?$ScriptRegistrant@VM01_Initial_Gunboat_Script_JDG@@@@UAE@XZ 100a5470 f i Mission01.obj
 0001:000a4540       ??1?$ScriptRegistrant@VM01_GDIBase_BaseCommander_JDG@@@@UAE@XZ 100a5540 f i Mission01.obj
 0001:000a4610       ??1?$ScriptRegistrant@VM01_Base_GDI_Grenadier_JDG@@@@UAE@XZ 100a5610 f i Mission01.obj
 0001:000a46e0       ??1?$ScriptRegistrant@VM01_MediumTank_ReminderZone_JDG@@@@UAE@XZ 100a56e0 f i Mission01.obj
 0001:000a47b0       ??1?$ScriptRegistrant@VM01_Base_POW01_JDG@@@@UAE@XZ 100a57b0 f i Mission01.obj
 0001:000a4880       ??1?$ScriptRegistrant@VM01_Base_POW02_JDG@@@@UAE@XZ 100a5880 f i Mission01.obj
 0001:000a4950       ??1?$ScriptRegistrant@VM01_GDIBase_POW_Conversation_Controller_JDG@@@@UAE@XZ 100a5950 f i Mission01.obj
 0001:000a4a20       ??1?$ScriptRegistrant@VM01_GDI_BeachGuy01_JDG@@@@UAE@XZ 100a5a20 f i Mission01.obj
 0001:000a4af0       ??1?$ScriptRegistrant@VM01_Announce_TankAirstrikeZone_JDG@@@@UAE@XZ 100a5af0 f i Mission01.obj
 0001:000a4bc0       ??1?$ScriptRegistrant@VM01_GDI_GuardTower_02_Enter_Zone_JDG@@@@UAE@XZ 100a5bc0 f i Mission01.obj
 0001:000a4c90       ??1?$ScriptRegistrant@VM01_GDI_GuardTower02_SniperRifle_JDG@@@@UAE@XZ 100a5c90 f i Mission01.obj
 0001:000a4d60       ??1?$ScriptRegistrant@VM01_GuardTower02_Sniper_Target01_JDG@@@@UAE@XZ 100a5d60 f i Mission01.obj
 0001:000a4e30       ??1?$ScriptRegistrant@VM01_GuardTower02_Sniper_TowerZone_JDG@@@@UAE@XZ 100a5e30 f i Mission01.obj
 0001:000a4f00       ??1?$ScriptRegistrant@VM01_GuardTower02_NewSniperTarget_JDG@@@@UAE@XZ 100a5f00 f i Mission01.obj
 0001:000a4fd0       ??1?$ScriptRegistrant@VM01_GuardTower02_Sniper_Target02_JDG@@@@UAE@XZ 100a5fd0 f i Mission01.obj
 0001:000a50a0       ??1?$ScriptRegistrant@VM01_TurnOff_TankReminder_Zone_JDG@@@@UAE@XZ 100a60a0 f i Mission01.obj
 0001:000a5170       ??1?$ScriptRegistrant@VM01_HON_Escorts_Warroom_MCT_ZoneController_JDG@@@@UAE@XZ 100a6170 f i Mission01.obj
 0001:000a5240       ??1?$ScriptRegistrant@VM01_HON_Chinook_Spawned_Soldier_01_GDI_JDG@@@@UAE@XZ 100a6240 f i Mission01.obj
 0001:000a5310       ??1?$ScriptRegistrant@VM01_HON_Chinook_Spawned_Soldier_02_GDI_JDG@@@@UAE@XZ 100a6310 f i Mission01.obj
 0001:000a53e0       ??1?$ScriptRegistrant@VM01_GiveMCTSpeech_Zone_JDG@@@@UAE@XZ 100a63e0 f i Mission01.obj
 0001:000a54b0       ??1?$ScriptRegistrant@VM01_Havoc_In_WarroomZone_JDG@@@@UAE@XZ 100a64b0 f i Mission01.obj
 0001:000a5580       ??1?$ScriptRegistrant@VM01_Havoc_Out_WarroomZone_JDG@@@@UAE@XZ 100a6580 f i Mission01.obj
 0001:000a5650       ??1?$ScriptRegistrant@VM01_HON_WarroomController_JDG@@@@UAE@XZ 100a6650 f i Mission01.obj
 0001:000a5720       ??1?$ScriptRegistrant@VM01_Medium_Tank01_JDG@@@@UAE@XZ 100a6720 f i Mission01.obj
 0001:000a57f0       ??1?$ScriptRegistrant@VM01_CantBring_MediumTank_ThroughHereZone_JDG@@@@UAE@XZ 100a67f0 f i Mission01.obj
 0001:000a58c0       ??1?$ScriptRegistrant@VM01_Medium_Tank_JDG@@@@UAE@XZ 100a68c0 f i Mission01.obj
 0001:000a5990       ??1?$ScriptRegistrant@VM01_TurretBeach_FodderHovercraft_Controller_JDG@@@@UAE@XZ 100a6990 f i Mission01.obj
 0001:000a5a60       ??1?$ScriptRegistrant@VM01_Hovercraft_Explosion_Controller_JDG@@@@UAE@XZ 100a6a60 f i Mission01.obj
 0001:000a5b30       ??1?$ScriptRegistrant@VM01_FodderHovercraft_Script_JDG@@@@UAE@XZ 100a6b30 f i Mission01.obj
 0001:000a5c00       ??1?$ScriptRegistrant@VM01_Beach_Datadisc_JDG@@@@UAE@XZ 100a6c00 f i Mission01.obj
 0001:000a5cd0       ??1?$ScriptRegistrant@VM01_TibCave01_Datadisc_JDG@@@@UAE@XZ 100a6cd0 f i Mission01.obj
 0001:000a5da0       ??1?$ScriptRegistrant@VM01_Shed_Datadisc_JDG@@@@UAE@XZ 100a6da0 f i Mission01.obj
 0001:000a5e70       ??1?$ScriptRegistrant@VM01_TibCave02_Datadisc_JDG@@@@UAE@XZ 100a6e70 f i Mission01.obj
 0001:000a5f40       ??1?$ScriptRegistrant@VM01_Priest_Datadisc_JDG@@@@UAE@XZ 100a6f40 f i Mission01.obj
 0001:000a6010       ??1?$ScriptRegistrant@VM01_Medlab_Datadisc_JDG@@@@UAE@XZ 100a7010 f i Mission01.obj
 0001:000a60e0       ??1?$ScriptRegistrant@VM01_DataDisc_TextController_JDG@@@@UAE@XZ 100a70e0 f i Mission01.obj
 0001:000a61b0       ??1?$ScriptRegistrant@VM01_Duncan_Assailer_JDG@@@@UAE@XZ 100a71b0 f i Mission01.obj
 0001:000a6280       ??1?$ScriptRegistrant@VM01_Duncan_InHere_ConvController_JDG@@@@UAE@XZ 100a7280 f i Mission01.obj
 0001:000a6350       ??1?$ScriptRegistrant@VM01_BackPath_EntranceZone_JDG@@@@UAE@XZ 100a7350 f i Mission01.obj
 0001:000a6420       ??1?$ScriptRegistrant@VM01_Base_GDI_Minigunner_JDG@@@@UAE@XZ 100a7420 f i Mission01.obj
 0001:000a6450       ??0?$ScriptRegistrant@VM01_Mission_Controller_JDG@@@@QAE@PBD0@Z 100a7450 f i Mission01.obj
 0001:000a6490       ?Create@?$ScriptRegistrant@VM01_Mission_Controller_JDG@@@@UAEPAVScriptImpClass@@XZ 100a7490 f i Mission01.obj
 0001:000a6530       ??0?$ScriptRegistrant@VM01_HON_Medlab_DropOff_Guy_JDG@@@@QAE@PBD0@Z 100a7530 f i Mission01.obj
 0001:000a6570       ?Create@?$ScriptRegistrant@VM01_HON_Medlab_DropOff_Guy_JDG@@@@UAEPAVScriptImpClass@@XZ 100a7570 f i Mission01.obj
 0001:000a6610       ??0?$ScriptRegistrant@VM01_Hand_of_Nod_Building_Script_JDG@@@@QAE@PBD0@Z 100a7610 f i Mission01.obj
 0001:000a6650       ?Create@?$ScriptRegistrant@VM01_Hand_of_Nod_Building_Script_JDG@@@@UAEPAVScriptImpClass@@XZ 100a7650 f i Mission01.obj
 0001:000a66f0       ??0?$ScriptRegistrant@VM01_Flyover_Generic_Script_JDG@@@@QAE@PBD0@Z 100a76f0 f i Mission01.obj
 0001:000a6730       ?Create@?$ScriptRegistrant@VM01_Flyover_Generic_Script_JDG@@@@UAEPAVScriptImpClass@@XZ 100a7730 f i Mission01.obj
 0001:000a67d0       ??0?$ScriptRegistrant@VM01_Ambient_Sound_Controller_JDG@@@@QAE@PBD0@Z 100a77d0 f i Mission01.obj
 0001:000a6810       ?Create@?$ScriptRegistrant@VM01_Ambient_Sound_Controller_JDG@@@@UAEPAVScriptImpClass@@XZ 100a7810 f i Mission01.obj
 0001:000a68b0       ??0?$ScriptRegistrant@VM01_Entering_Church_Area_Zone@@@@QAE@PBD0@Z 100a78b0 f i Mission01.obj
 0001:000a68f0       ?Create@?$ScriptRegistrant@VM01_Entering_Church_Area_Zone@@@@UAEPAVScriptImpClass@@XZ 100a78f0 f i Mission01.obj
 0001:000a6990       ??0?$ScriptRegistrant@VM01_Hand_Of_Nod_Interior_Zone@@@@QAE@PBD0@Z 100a7990 f i Mission01.obj
 0001:000a69d0       ?Create@?$ScriptRegistrant@VM01_Hand_Of_Nod_Interior_Zone@@@@UAEPAVScriptImpClass@@XZ 100a79d0 f i Mission01.obj
 0001:000a6a70       ??0?$ScriptRegistrant@VM01_Hand_Of_Nod_Exterior_Zone@@@@QAE@PBD0@Z 100a7a70 f i Mission01.obj
 0001:000a6ab0       ?Create@?$ScriptRegistrant@VM01_Hand_Of_Nod_Exterior_Zone@@@@UAEPAVScriptImpClass@@XZ 100a7ab0 f i Mission01.obj
 0001:000a6b50       ??0?$ScriptRegistrant@VM01_Comm_Center_Interior_Zone@@@@QAE@PBD0@Z 100a7b50 f i Mission01.obj
 0001:000a6b90       ?Create@?$ScriptRegistrant@VM01_Comm_Center_Interior_Zone@@@@UAEPAVScriptImpClass@@XZ 100a7b90 f i Mission01.obj
 0001:000a6c30       ??0?$ScriptRegistrant@VM01_Comm_Center_Exterior_Zone@@@@QAE@PBD0@Z 100a7c30 f i Mission01.obj
 0001:000a6c70       ?Create@?$ScriptRegistrant@VM01_Comm_Center_Exterior_Zone@@@@UAEPAVScriptImpClass@@XZ 100a7c70 f i Mission01.obj
 0001:000a6d10       ??0?$ScriptRegistrant@VM01_Tunnel_Interior_Zone@@@@QAE@PBD0@Z 100a7d10 f i Mission01.obj
 0001:000a6d50       ?Create@?$ScriptRegistrant@VM01_Tunnel_Interior_Zone@@@@UAEPAVScriptImpClass@@XZ 100a7d50 f i Mission01.obj
 0001:000a6df0       ??0?$ScriptRegistrant@VM01_Tunnel_Exterior_Zone@@@@QAE@PBD0@Z 100a7df0 f i Mission01.obj
 0001:000a6e30       ?Create@?$ScriptRegistrant@VM01_Tunnel_Exterior_Zone@@@@UAEPAVScriptImpClass@@XZ 100a7e30 f i Mission01.obj
 0001:000a6ed0       ??0?$ScriptRegistrant@VM01_Waterfall_Interior_Zone@@@@QAE@PBD0@Z 100a7ed0 f i Mission01.obj
 0001:000a6f10       ?Create@?$ScriptRegistrant@VM01_Waterfall_Interior_Zone@@@@UAEPAVScriptImpClass@@XZ 100a7f10 f i Mission01.obj
 0001:000a6fb0       ??0?$ScriptRegistrant@VM01_Waterfall_Exterior_Zone@@@@QAE@PBD0@Z 100a7fb0 f i Mission01.obj
 0001:000a6ff0       ?Create@?$ScriptRegistrant@VM01_Waterfall_Exterior_Zone@@@@UAEPAVScriptImpClass@@XZ 100a7ff0 f i Mission01.obj
 0001:000a7090       ??0?$ScriptRegistrant@VM01_Player_is_Leaving_GDI_Base_Zone@@@@QAE@PBD0@Z 100a8090 f i Mission01.obj
 0001:000a70d0       ?Create@?$ScriptRegistrant@VM01_Player_is_Leaving_GDI_Base_Zone@@@@UAEPAVScriptImpClass@@XZ 100a80d0 f i Mission01.obj
 0001:000a7170       ??0?$ScriptRegistrant@VM01_Player_is_Entering_GDI_Base_Zone@@@@QAE@PBD0@Z 100a8170 f i Mission01.obj
 0001:000a71b0       ?Create@?$ScriptRegistrant@VM01_Player_is_Entering_GDI_Base_Zone@@@@UAEPAVScriptImpClass@@XZ 100a81b0 f i Mission01.obj
 0001:000a7250       ??0?$ScriptRegistrant@VM01_Lose_Any_Church_Escorts_Zone@@@@QAE@PBD0@Z 100a8250 f i Mission01.obj
 0001:000a7290       ?Create@?$ScriptRegistrant@VM01_Lose_Any_Church_Escorts_Zone@@@@UAEPAVScriptImpClass@@XZ 100a8290 f i Mission01.obj
 0001:000a7330       ??0?$ScriptRegistrant@VM01_Lose_Any_Church_Escorts_Zone_02@@@@QAE@PBD0@Z 100a8330 f i Mission01.obj
 0001:000a7370       ?Create@?$ScriptRegistrant@VM01_Lose_Any_Church_Escorts_Zone_02@@@@UAEPAVScriptImpClass@@XZ 100a8370 f i Mission01.obj
 0001:000a7410       ??0?$ScriptRegistrant@VM01_Lose_Any_HON_Escorts_Zone@@@@QAE@PBD0@Z 100a8410 f i Mission01.obj
 0001:000a7450       ?Create@?$ScriptRegistrant@VM01_Lose_Any_HON_Escorts_Zone@@@@UAEPAVScriptImpClass@@XZ 100a8450 f i Mission01.obj
 0001:000a74f0       ??0?$ScriptRegistrant@VM01_Lose_Any_HON_Escorts_Zone_02@@@@QAE@PBD0@Z 100a84f0 f i Mission01.obj
 0001:000a7530       ?Create@?$ScriptRegistrant@VM01_Lose_Any_HON_Escorts_Zone_02@@@@UAEPAVScriptImpClass@@XZ 100a8530 f i Mission01.obj
 0001:000a75d0       ??0?$ScriptRegistrant@VM01_Announce_Prisoner_Objective_Zone@@@@QAE@PBD0@Z 100a85d0 f i Mission01.obj
 0001:000a7610       ?Create@?$ScriptRegistrant@VM01_Announce_Prisoner_Objective_Zone@@@@UAEPAVScriptImpClass@@XZ 100a8610 f i Mission01.obj
 0001:000a76b0       ??0?$ScriptRegistrant@VM01_Scramble_Radar_Zone@@@@QAE@PBD0@Z 100a86b0 f i Mission01.obj
 0001:000a76f0       ?Create@?$ScriptRegistrant@VM01_Scramble_Radar_Zone@@@@UAEPAVScriptImpClass@@XZ 100a86f0 f i Mission01.obj
 0001:000a7790       ??0?$ScriptRegistrant@VM01_UnScramble_Radar_Zone@@@@QAE@PBD0@Z 100a8790 f i Mission01.obj
 0001:000a77d0       ?Create@?$ScriptRegistrant@VM01_UnScramble_Radar_Zone@@@@UAEPAVScriptImpClass@@XZ 100a87d0 f i Mission01.obj
 0001:000a7870       ??0?$ScriptRegistrant@VM01_HON_Commander_Guy@@@@QAE@PBD0@Z 100a8870 f i Mission01.obj
 0001:000a78b0       ?Create@?$ScriptRegistrant@VM01_HON_Commander_Guy@@@@UAEPAVScriptImpClass@@XZ 100a88b0 f i Mission01.obj
 0001:000a7950       ??0?$ScriptRegistrant@VM01_COMM_Commander_Guy@@@@QAE@PBD0@Z 100a8950 f i Mission01.obj
 0001:000a7990       ?Create@?$ScriptRegistrant@VM01_COMM_Commander_Guy@@@@UAEPAVScriptImpClass@@XZ 100a8990 f i Mission01.obj
 0001:000a7a30       ??0?$ScriptRegistrant@VM01_HandOfNod_SAMSite_Script@@@@QAE@PBD0@Z 100a8a30 f i Mission01.obj
 0001:000a7a70       ?Create@?$ScriptRegistrant@VM01_HandOfNod_SAMSite_Script@@@@UAEPAVScriptImpClass@@XZ 100a8a70 f i Mission01.obj
 0001:000a7b10       ??0?$ScriptRegistrant@VM01_Destroyed_SAMSITE_JDG@@@@QAE@PBD0@Z 100a8b10 f i Mission01.obj
 0001:000a7b50       ?Create@?$ScriptRegistrant@VM01_Destroyed_SAMSITE_JDG@@@@UAEPAVScriptImpClass@@XZ 100a8b50 f i Mission01.obj
 0001:000a7bf0       ??0?$ScriptRegistrant@VM01_CommCenter_Evacuator_JDG@@@@QAE@PBD0@Z 100a8bf0 f i Mission01.obj
 0001:000a7c30       ?Create@?$ScriptRegistrant@VM01_CommCenter_Evacuator_JDG@@@@UAEPAVScriptImpClass@@XZ 100a8c30 f i Mission01.obj
 0001:000a7cd0       ??0?$ScriptRegistrant@VM01_HON_FrontDoor_Evacuator_JDG@@@@QAE@PBD0@Z 100a8cd0 f i Mission01.obj
 0001:000a7d10       ?Create@?$ScriptRegistrant@VM01_HON_FrontDoor_Evacuator_JDG@@@@UAEPAVScriptImpClass@@XZ 100a8d10 f i Mission01.obj
 0001:000a7db0       ??0?$ScriptRegistrant@VM01_HON_BackDoor_Evacuator_JDG@@@@QAE@PBD0@Z 100a8db0 f i Mission01.obj
 0001:000a7df0       ?Create@?$ScriptRegistrant@VM01_HON_BackDoor_Evacuator_JDG@@@@UAEPAVScriptImpClass@@XZ 100a8df0 f i Mission01.obj
 0001:000a7e90       ??0?$ScriptRegistrant@VM01_HON_Dorm_Crapper_JDG@@@@QAE@PBD0@Z 100a8e90 f i Mission01.obj
 0001:000a7ed0       ?Create@?$ScriptRegistrant@VM01_HON_Dorm_Crapper_JDG@@@@UAEPAVScriptImpClass@@XZ 100a8ed0 f i Mission01.obj
 0001:000a7f70       ??0?$ScriptRegistrant@VM01_HON_Dorm_FlameGuy_JDG@@@@QAE@PBD0@Z 100a8f70 f i Mission01.obj
 0001:000a7fb0       ?Create@?$ScriptRegistrant@VM01_HON_Dorm_FlameGuy_JDG@@@@UAEPAVScriptImpClass@@XZ 100a8fb0 f i Mission01.obj
 0001:000a8050       ??0?$ScriptRegistrant@VM01_HON_Dorm_ChemGuy_JDG@@@@QAE@PBD0@Z 100a9050 f i Mission01.obj
 0001:000a8090       ?Create@?$ScriptRegistrant@VM01_HON_Dorm_ChemGuy_JDG@@@@UAEPAVScriptImpClass@@XZ 100a9090 f i Mission01.obj
 0001:000a8130       ??0?$ScriptRegistrant@VM01_HON_Dorm_RocketGuy_JDG@@@@QAE@PBD0@Z 100a9130 f i Mission01.obj
 0001:000a8170       ?Create@?$ScriptRegistrant@VM01_HON_Dorm_RocketGuy_JDG@@@@UAEPAVScriptImpClass@@XZ 100a9170 f i Mission01.obj
 0001:000a8210       ??0?$ScriptRegistrant@VM01_HON_Dorm_MiniGunner_JDG@@@@QAE@PBD0@Z 100a9210 f i Mission01.obj
 0001:000a8250       ?Create@?$ScriptRegistrant@VM01_HON_Dorm_MiniGunner_JDG@@@@UAEPAVScriptImpClass@@XZ 100a9250 f i Mission01.obj
 0001:000a82f0       ??0?$ScriptRegistrant@VM01_HON_Cafeteria_Eating_Guy_JDG@@@@QAE@PBD0@Z 100a92f0 f i Mission01.obj
 0001:000a8330       ?Create@?$ScriptRegistrant@VM01_HON_Cafeteria_Eating_Guy_JDG@@@@UAEPAVScriptImpClass@@XZ 100a9330 f i Mission01.obj
 0001:000a83d0       ??0?$ScriptRegistrant@VM01_HON_Cafeteria_Walking_Guy_JDG@@@@QAE@PBD0@Z 100a93d0 f i Mission01.obj
 0001:000a8410       ?Create@?$ScriptRegistrant@VM01_HON_Cafeteria_Walking_Guy_JDG@@@@UAEPAVScriptImpClass@@XZ 100a9410 f i Mission01.obj
 0001:000a84b0       ??0?$ScriptRegistrant@VM01_Hand_Of_Nod_Grunt_Zone@@@@QAE@PBD0@Z 100a94b0 f i Mission01.obj
 0001:000a84f0       ?Create@?$ScriptRegistrant@VM01_Hand_Of_Nod_Grunt_Zone@@@@UAEPAVScriptImpClass@@XZ 100a94f0 f i Mission01.obj
 0001:000a8590       ??0?$ScriptRegistrant@VM01_Hand_Of_Nod_Dojo_Zone@@@@QAE@PBD0@Z 100a9590 f i Mission01.obj
 0001:000a85d0       ?Create@?$ScriptRegistrant@VM01_Hand_Of_Nod_Dojo_Zone@@@@UAEPAVScriptImpClass@@XZ 100a95d0 f i Mission01.obj
 0001:000a8670       ??0?$ScriptRegistrant@VM01_Church_LoveShack_MiniGunner_JDG@@@@QAE@PBD0@Z 100a9670 f i Mission01.obj
 0001:000a86b0       ?Create@?$ScriptRegistrant@VM01_Church_LoveShack_MiniGunner_JDG@@@@UAEPAVScriptImpClass@@XZ 100a96b0 f i Mission01.obj
 0001:000a8750       ??0?$ScriptRegistrant@VM01_Church_Exterior_MiniGunner_JDG@@@@QAE@PBD0@Z 100a9750 f i Mission01.obj
 0001:000a8790       ?Create@?$ScriptRegistrant@VM01_Church_Exterior_MiniGunner_JDG@@@@UAEPAVScriptImpClass@@XZ 100a9790 f i Mission01.obj
 0001:000a8830       ??0?$ScriptRegistrant@VM01_Church_Balcony_MiniGunner_JDG@@@@QAE@PBD0@Z 100a9830 f i Mission01.obj
 0001:000a8870       ?Create@?$ScriptRegistrant@VM01_Church_Balcony_MiniGunner_JDG@@@@UAEPAVScriptImpClass@@XZ 100a9870 f i Mission01.obj
 0001:000a8910       ??0?$ScriptRegistrant@VM01_Announce_Hand_of_Nod_Zone@@@@QAE@PBD0@Z 100a9910 f i Mission01.obj
 0001:000a8950       ?Create@?$ScriptRegistrant@VM01_Announce_Hand_of_Nod_Zone@@@@UAEPAVScriptImpClass@@XZ 100a9950 f i Mission01.obj
 0001:000a89f0       ??0?$ScriptRegistrant@VM01_Announce_Barn_Objective_Zone@@@@QAE@PBD0@Z 100a99f0 f i Mission01.obj
 0001:000a8a30       ?Create@?$ScriptRegistrant@VM01_Announce_Barn_Objective_Zone@@@@UAEPAVScriptImpClass@@XZ 100a9a30 f i Mission01.obj
 0001:000a8ad0       ??0?$ScriptRegistrant@VM01_Tiberium_Cave_Helicopter_JDG@@@@QAE@PBD0@Z 100a9ad0 f i Mission01.obj
 0001:000a8b10       ?Create@?$ScriptRegistrant@VM01_Tiberium_Cave_Helicopter_JDG@@@@UAEPAVScriptImpClass@@XZ 100a9b10 f i Mission01.obj
 0001:000a8bb0       ??0?$ScriptRegistrant@VM01_Player_Is_Crossing_Bridge_Zone@@@@QAE@PBD0@Z 100a9bb0 f i Mission01.obj
 0001:000a8bf0       ?Create@?$ScriptRegistrant@VM01_Player_Is_Crossing_Bridge_Zone@@@@UAEPAVScriptImpClass@@XZ 100a9bf0 f i Mission01.obj
 0001:000a8c90       ??0?$ScriptRegistrant@VM01_Player_Is_Crossing_Bridge_Via_Cave_Zone@@@@QAE@PBD0@Z 100a9c90 f i Mission01.obj
 0001:000a8cd0       ?Create@?$ScriptRegistrant@VM01_Player_Is_Crossing_Bridge_Via_Cave_Zone@@@@UAEPAVScriptImpClass@@XZ 100a9cd0 f i Mission01.obj
 0001:000a8d70       ??0?$ScriptRegistrant@VM01_Player_Is_Crossing_Bridge_Via_Church_Zone@@@@QAE@PBD0@Z 100a9d70 f i Mission01.obj
 0001:000a8db0       ?Create@?$ScriptRegistrant@VM01_Player_Is_Crossing_Bridge_Via_Church_Zone@@@@UAEPAVScriptImpClass@@XZ 100a9db0 f i Mission01.obj
 0001:000a8e50       ??0?$ScriptRegistrant@VM01_Flamethrower_Point_Guard_JDG@@@@QAE@PBD0@Z 100a9e50 f i Mission01.obj
 0001:000a8e90       ?Create@?$ScriptRegistrant@VM01_Flamethrower_Point_Guard_JDG@@@@UAEPAVScriptImpClass@@XZ 100a9e90 f i Mission01.obj
 0001:000a8f30       ??0?$ScriptRegistrant@VM01_MiniGunner_Point_Guard_JDG@@@@QAE@PBD0@Z 100a9f30 f i Mission01.obj
 0001:000a8f70       ?Create@?$ScriptRegistrant@VM01_MiniGunner_Point_Guard_JDG@@@@UAEPAVScriptImpClass@@XZ 100a9f70 f i Mission01.obj
 0001:000a9010       ??0?$ScriptRegistrant@VM01_HON_Easy_Spawned_Guy_01_JDG@@@@QAE@PBD0@Z 100aa010 f i Mission01.obj
 0001:000a9050       ?Create@?$ScriptRegistrant@VM01_HON_Easy_Spawned_Guy_01_JDG@@@@UAEPAVScriptImpClass@@XZ 100aa050 f i Mission01.obj
 0001:000a90f0       ??0?$ScriptRegistrant@VM01_HON_Easy_Spawned_Guy_02_JDG@@@@QAE@PBD0@Z 100aa0f0 f i Mission01.obj
 0001:000a9130       ?Create@?$ScriptRegistrant@VM01_HON_Easy_Spawned_Guy_02_JDG@@@@UAEPAVScriptImpClass@@XZ 100aa130 f i Mission01.obj
 0001:000a91d0       ??0?$ScriptRegistrant@VM01_HON_Easy_Spawned_Guy_03_JDG@@@@QAE@PBD0@Z 100aa1d0 f i Mission01.obj
 0001:000a9210       ?Create@?$ScriptRegistrant@VM01_HON_Easy_Spawned_Guy_03_JDG@@@@UAEPAVScriptImpClass@@XZ 100aa210 f i Mission01.obj
 0001:000a92b0       ??0?$ScriptRegistrant@VM01_Whack_A_Mole_Enter_Zone_JDG@@@@QAE@PBD0@Z 100aa2b0 f i Mission01.obj
 0001:000a92f0       ?Create@?$ScriptRegistrant@VM01_Whack_A_Mole_Enter_Zone_JDG@@@@UAEPAVScriptImpClass@@XZ 100aa2f0 f i Mission01.obj
 0001:000a9390       ??0?$ScriptRegistrant@VM01_Whack_A_Mole_Exit_Zone_JDG@@@@QAE@PBD0@Z 100aa390 f i Mission01.obj
 0001:000a93d0       ?Create@?$ScriptRegistrant@VM01_Whack_A_Mole_Exit_Zone_JDG@@@@UAEPAVScriptImpClass@@XZ 100aa3d0 f i Mission01.obj
 0001:000a9470       ??0?$ScriptRegistrant@VM01_Whack_A_Mole_Minigunner_JDG@@@@QAE@PBD0@Z 100aa470 f i Mission01.obj
 0001:000a94b0       ?Create@?$ScriptRegistrant@VM01_Whack_A_Mole_Minigunner_JDG@@@@UAEPAVScriptImpClass@@XZ 100aa4b0 f i Mission01.obj
 0001:000a9550       ??0?$ScriptRegistrant@VM01_Left_Interrogation_Room_Enter_Zone_JDG@@@@QAE@PBD0@Z 100aa550 f i Mission01.obj
 0001:000a9590       ?Create@?$ScriptRegistrant@VM01_Left_Interrogation_Room_Enter_Zone_JDG@@@@UAEPAVScriptImpClass@@XZ 100aa590 f i Mission01.obj
 0001:000a9630       ??0?$ScriptRegistrant@VM01_Right_Interrogation_Room_Enter_Zone_JDG@@@@QAE@PBD0@Z 100aa630 f i Mission01.obj
 0001:000a9670       ?Create@?$ScriptRegistrant@VM01_Right_Interrogation_Room_Enter_Zone_JDG@@@@UAEPAVScriptImpClass@@XZ 100aa670 f i Mission01.obj
 0001:000a9710       ??0?$ScriptRegistrant@VM01_Interrogation_Room_L03_Keycard_JDG@@@@QAE@PBD0@Z 100aa710 f i Mission01.obj
 0001:000a9750       ?Create@?$ScriptRegistrant@VM01_Interrogation_Room_L03_Keycard_JDG@@@@UAEPAVScriptImpClass@@XZ 100aa750 f i Mission01.obj
 0001:000a97f0       ??0?$ScriptRegistrant@VM01_Interrogation_Room_Surprise_Guy_JDG@@@@QAE@PBD0@Z 100aa7f0 f i Mission01.obj
 0001:000a9830       ?Create@?$ScriptRegistrant@VM01_Interrogation_Room_Surprise_Guy_JDG@@@@UAEPAVScriptImpClass@@XZ 100aa830 f i Mission01.obj
 0001:000a98d0       ??0?$ScriptRegistrant@VM01_Medium_Tank_Tunnel_Squish_Guy_JDG@@@@QAE@PBD0@Z 100aa8d0 f i Mission01.obj
 0001:000a9910       ?Create@?$ScriptRegistrant@VM01_Medium_Tank_Tunnel_Squish_Guy_JDG@@@@UAEPAVScriptImpClass@@XZ 100aa910 f i Mission01.obj
 0001:000a99b0       ??0?$ScriptRegistrant@VM01_Billys_Conversation_Zone_JDG@@@@QAE@PBD0@Z 100aa9b0 f i Mission01.obj
 0001:000a99f0       ?Create@?$ScriptRegistrant@VM01_Billys_Conversation_Zone_JDG@@@@UAEPAVScriptImpClass@@XZ 100aa9f0 f i Mission01.obj
 0001:000a9a90       ??0?$ScriptRegistrant@VM01_Tank_Entering_Tunnel_Zone_JDG@@@@QAE@PBD0@Z 100aaa90 f i Mission01.obj
 0001:000a9ad0       ?Create@?$ScriptRegistrant@VM01_Tank_Entering_Tunnel_Zone_JDG@@@@UAEPAVScriptImpClass@@XZ 100aaad0 f i Mission01.obj
 0001:000a9b70       ??0?$ScriptRegistrant@VM01_Player_Is_Entering_Tailgun_Alley_JDG@@@@QAE@PBD0@Z 100aab70 f i Mission01.obj
 0001:000a9bb0       ?Create@?$ScriptRegistrant@VM01_Player_Is_Entering_Tailgun_Alley_JDG@@@@UAEPAVScriptImpClass@@XZ 100aabb0 f i Mission01.obj
 0001:000a9c50       ??0?$ScriptRegistrant@VM01_Player_Is_Entering_Tailgun_Alley_Backway_JDG@@@@QAE@PBD0@Z 100aac50 f i Mission01.obj
 0001:000a9c90       ?Create@?$ScriptRegistrant@VM01_Player_Is_Entering_Tailgun_Alley_Backway_JDG@@@@UAEPAVScriptImpClass@@XZ 100aac90 f i Mission01.obj
 0001:000a9d30       ??0?$ScriptRegistrant@VM01_TailGunner_01_JDG@@@@QAE@PBD0@Z 100aad30 f i Mission01.obj
 0001:000a9d70       ?Create@?$ScriptRegistrant@VM01_TailGunner_01_JDG@@@@UAEPAVScriptImpClass@@XZ 100aad70 f i Mission01.obj
 0001:000a9e10       ??0?$ScriptRegistrant@VM01_TailGunner_02_JDG@@@@QAE@PBD0@Z 100aae10 f i Mission01.obj
 0001:000a9e50       ?Create@?$ScriptRegistrant@VM01_TailGunner_02_JDG@@@@UAEPAVScriptImpClass@@XZ 100aae50 f i Mission01.obj
 0001:000a9ef0       ??0?$ScriptRegistrant@VM01_TailGunner_03_JDG@@@@QAE@PBD0@Z 100aaef0 f i Mission01.obj
 0001:000a9f30       ?Create@?$ScriptRegistrant@VM01_TailGunner_03_JDG@@@@UAEPAVScriptImpClass@@XZ 100aaf30 f i Mission01.obj
 0001:000a9fd0       ??0?$ScriptRegistrant@VM01_TailGun_01_JDG@@@@QAE@PBD0@Z 100aafd0 f i Mission01.obj
 0001:000aa010       ?Create@?$ScriptRegistrant@VM01_TailGun_01_JDG@@@@UAEPAVScriptImpClass@@XZ 100ab010 f i Mission01.obj
 0001:000aa0b0       ??0?$ScriptRegistrant@VM01_TailGun_02_JDG@@@@QAE@PBD0@Z 100ab0b0 f i Mission01.obj
 0001:000aa0f0       ?Create@?$ScriptRegistrant@VM01_TailGun_02_JDG@@@@UAEPAVScriptImpClass@@XZ 100ab0f0 f i Mission01.obj
 0001:000aa190       ??0?$ScriptRegistrant@VM01_TailGun_03_JDG@@@@QAE@PBD0@Z 100ab190 f i Mission01.obj
 0001:000aa1d0       ?Create@?$ScriptRegistrant@VM01_TailGun_03_JDG@@@@UAEPAVScriptImpClass@@XZ 100ab1d0 f i Mission01.obj
 0001:000aa270       ??0?$ScriptRegistrant@VM01_Tailgun_02_SpawnApache_Zone_JDG@@@@QAE@PBD0@Z 100ab270 f i Mission01.obj
 0001:000aa2b0       ?Create@?$ScriptRegistrant@VM01_Tailgun_02_SpawnApache_Zone_JDG@@@@UAEPAVScriptImpClass@@XZ 100ab2b0 f i Mission01.obj
 0001:000aa350       ??0?$ScriptRegistrant@VM01_Civ_To_Minigunner_Guy_JDG@@@@QAE@PBD0@Z 100ab350 f i Mission01.obj
 0001:000aa390       ?Create@?$ScriptRegistrant@VM01_Civ_To_Minigunner_Guy_JDG@@@@UAEPAVScriptImpClass@@XZ 100ab390 f i Mission01.obj
 0001:000aa430       ??0?$ScriptRegistrant@VM01_Comm_Base_Commander_JDG@@@@QAE@PBD0@Z 100ab430 f i Mission01.obj
 0001:000aa470       ?Create@?$ScriptRegistrant@VM01_Comm_Base_Commander_JDG@@@@UAEPAVScriptImpClass@@XZ 100ab470 f i Mission01.obj
 0001:000aa510       ??0?$ScriptRegistrant@VM01_Comm_Stationary_Tech_JDG@@@@QAE@PBD0@Z 100ab510 f i Mission01.obj
 0001:000aa550       ?Create@?$ScriptRegistrant@VM01_Comm_Stationary_Tech_JDG@@@@UAEPAVScriptImpClass@@XZ 100ab550 f i Mission01.obj
 0001:000aa5f0       ??0?$ScriptRegistrant@VM01_Comm_ComputerRoom_Tech_JDG@@@@QAE@PBD0@Z 100ab5f0 f i Mission01.obj
 0001:000aa630       ?Create@?$ScriptRegistrant@VM01_Comm_ComputerRoom_Tech_JDG@@@@UAEPAVScriptImpClass@@XZ 100ab630 f i Mission01.obj
 0001:000aa6d0       ??0?$ScriptRegistrant@VM01_Comm_Upstairs_Guard_JDG@@@@QAE@PBD0@Z 100ab6d0 f i Mission01.obj
 0001:000aa710       ?Create@?$ScriptRegistrant@VM01_Comm_Upstairs_Guard_JDG@@@@UAEPAVScriptImpClass@@XZ 100ab710 f i Mission01.obj
 0001:000aa7b0       ??0?$ScriptRegistrant@VM01_Comm_Base_Commander_Conv_Start_Zone_JDG@@@@QAE@PBD0@Z 100ab7b0 f i Mission01.obj
 0001:000aa7f0       ?Create@?$ScriptRegistrant@VM01_Comm_Base_Commander_Conv_Start_Zone_JDG@@@@UAEPAVScriptImpClass@@XZ 100ab7f0 f i Mission01.obj
 0001:000aa890       ??0?$ScriptRegistrant@VM01_Comm_Kane_n_Havoc_Conv_Start_Zone_JDG@@@@QAE@PBD0@Z 100ab890 f i Mission01.obj
 0001:000aa8d0       ?Create@?$ScriptRegistrant@VM01_Comm_Kane_n_Havoc_Conv_Start_Zone_JDG@@@@UAEPAVScriptImpClass@@XZ 100ab8d0 f i Mission01.obj
 0001:000aa970       ??0?$ScriptRegistrant@VM01_HON_MCT_Placeholder_JDG@@@@QAE@PBD0@Z 100ab970 f i Mission01.obj
 0001:000aa9b0       ?Create@?$ScriptRegistrant@VM01_HON_MCT_Placeholder_JDG@@@@UAEPAVScriptImpClass@@XZ 100ab9b0 f i Mission01.obj
 0001:000aaa50       ??0?$ScriptRegistrant@VM01_Comm_MCT_Placeholder_JDG@@@@QAE@PBD0@Z 100aba50 f i Mission01.obj
 0001:000aaa90       ?Create@?$ScriptRegistrant@VM01_Comm_MCT_Placeholder_JDG@@@@UAEPAVScriptImpClass@@XZ 100aba90 f i Mission01.obj
 0001:000aab30       ??0?$ScriptRegistrant@VM01_GDI_Toolshed_PatrolGuy_JDG@@@@QAE@PBD0@Z 100abb30 f i Mission01.obj
 0001:000aab70       ?Create@?$ScriptRegistrant@VM01_GDI_Toolshed_PatrolGuy_JDG@@@@UAEPAVScriptImpClass@@XZ 100abb70 f i Mission01.obj
 0001:000aac10       ??0?$ScriptRegistrant@VM01_GDI_Base_Spawner_Controller_JDG@@@@QAE@PBD0@Z 100abc10 f i Mission01.obj
 0001:000aac50       ?Create@?$ScriptRegistrant@VM01_GDI_Base_Spawner_Controller_JDG@@@@UAEPAVScriptImpClass@@XZ 100abc50 f i Mission01.obj
 0001:000aacf0       ??0?$ScriptRegistrant@VM01_GDI_Base_Spawner_Guy_JDG@@@@QAE@PBD0@Z 100abcf0 f i Mission01.obj
 0001:000aad30       ?Create@?$ScriptRegistrant@VM01_GDI_Base_Spawner_Guy_JDG@@@@UAEPAVScriptImpClass@@XZ 100abd30 f i Mission01.obj
 0001:000aadd0       ??0?$ScriptRegistrant@VM01_Tailgun_Run_Spawner_Controller_JDG@@@@QAE@PBD0@Z 100abdd0 f i Mission01.obj
 0001:000aae10       ?Create@?$ScriptRegistrant@VM01_Tailgun_Run_Spawner_Controller_JDG@@@@UAEPAVScriptImpClass@@XZ 100abe10 f i Mission01.obj
 0001:000aaeb0       ??0?$ScriptRegistrant@VM01_TailgunRun_Spawner_Guy_JDG@@@@QAE@PBD0@Z 100abeb0 f i Mission01.obj
 0001:000aaef0       ?Create@?$ScriptRegistrant@VM01_TailgunRun_Spawner_Guy_JDG@@@@UAEPAVScriptImpClass@@XZ 100abef0 f i Mission01.obj
 0001:000aaf90       ??0?$ScriptRegistrant@VM01_ChurchArea_Spawner_Controller_JDG@@@@QAE@PBD0@Z 100abf90 f i Mission01.obj
 0001:000aafd0       ?Create@?$ScriptRegistrant@VM01_ChurchArea_Spawner_Controller_JDG@@@@UAEPAVScriptImpClass@@XZ 100abfd0 f i Mission01.obj
 0001:000ab070       ??0?$ScriptRegistrant@VM01_ChurchArea_Spawner_Guy_JDG@@@@QAE@PBD0@Z 100ac070 f i Mission01.obj
 0001:000ab0b0       ?Create@?$ScriptRegistrant@VM01_ChurchArea_Spawner_Guy_JDG@@@@UAEPAVScriptImpClass@@XZ 100ac0b0 f i Mission01.obj
 0001:000ab150       ??0?$ScriptRegistrant@VM01_Turn_on_the_Hand_of_Nod_Zone_JDG@@@@QAE@PBD0@Z 100ac150 f i Mission01.obj
 0001:000ab190       ?Create@?$ScriptRegistrant@VM01_Turn_on_the_Hand_of_Nod_Zone_JDG@@@@UAEPAVScriptImpClass@@XZ 100ac190 f i Mission01.obj
 0001:000ab230       ??0?$ScriptRegistrant@VM01_TailgunRun_NOD_Commander_JDG@@@@QAE@PBD0@Z 100ac230 f i Mission01.obj
 0001:000ab270       ?Create@?$ScriptRegistrant@VM01_TailgunRun_NOD_Commander_JDG@@@@UAEPAVScriptImpClass@@XZ 100ac270 f i Mission01.obj
 0001:000ab310       ??0?$ScriptRegistrant@VM01_ChurchArea_NOD_Commander_JDG@@@@QAE@PBD0@Z 100ac310 f i Mission01.obj
 0001:000ab350       ?Create@?$ScriptRegistrant@VM01_ChurchArea_NOD_Commander_JDG@@@@UAEPAVScriptImpClass@@XZ 100ac350 f i Mission01.obj
 0001:000ab3f0       ??0?$ScriptRegistrant@VM01_GDI_Base_Artillery_Controller_JDG@@@@QAE@PBD0@Z 100ac3f0 f i Mission01.obj
 0001:000ab430       ?Create@?$ScriptRegistrant@VM01_GDI_Base_Artillery_Controller_JDG@@@@UAEPAVScriptImpClass@@XZ 100ac430 f i Mission01.obj
 0001:000ab4d0       ??0?$ScriptRegistrant@VM01_Nod_GuardTower_01_Enter_Zone_JDG@@@@QAE@PBD0@Z 100ac4d0 f i Mission01.obj
 0001:000ab510       ?Create@?$ScriptRegistrant@VM01_Nod_GuardTower_01_Enter_Zone_JDG@@@@UAEPAVScriptImpClass@@XZ 100ac510 f i Mission01.obj
 0001:000ab5b0       ??0?$ScriptRegistrant@VM01_Nod_GuardTower_02_Enter_Zone_JDG@@@@QAE@PBD0@Z 100ac5b0 f i Mission01.obj
 0001:000ab5f0       ?Create@?$ScriptRegistrant@VM01_Nod_GuardTower_02_Enter_Zone_JDG@@@@UAEPAVScriptImpClass@@XZ 100ac5f0 f i Mission01.obj
 0001:000ab690       ??0?$ScriptRegistrant@VM01_Nod_GuardTower_03_Enter_Zone_JDG@@@@QAE@PBD0@Z 100ac690 f i Mission01.obj
 0001:000ab6d0       ?Create@?$ScriptRegistrant@VM01_Nod_GuardTower_03_Enter_Zone_JDG@@@@UAEPAVScriptImpClass@@XZ 100ac6d0 f i Mission01.obj
 0001:000ab770       ??0?$ScriptRegistrant@VM01_GuardTower_Sniper_Target_JDG@@@@QAE@PBD0@Z 100ac770 f i Mission01.obj
 0001:000ab7b0       ?Create@?$ScriptRegistrant@VM01_GuardTower_Sniper_Target_JDG@@@@UAEPAVScriptImpClass@@XZ 100ac7b0 f i Mission01.obj
 0001:000ab850       ??0?$ScriptRegistrant@VM01_Gunboat_Spawn_Hovercraft_Zone_JDG@@@@QAE@PBD0@Z 100ac850 f i Mission01.obj
 0001:000ab890       ?Create@?$ScriptRegistrant@VM01_Gunboat_Spawn_Hovercraft_Zone_JDG@@@@UAEPAVScriptImpClass@@XZ 100ac890 f i Mission01.obj
 0001:000ab930       ??0?$ScriptRegistrant@VM01_BasalBuilding_Population_JDG@@@@QAE@PBD0@Z 100ac930 f i Mission01.obj
 0001:000ab970       ?Create@?$ScriptRegistrant@VM01_BasalBuilding_Population_JDG@@@@UAEPAVScriptImpClass@@XZ 100ac970 f i Mission01.obj
 0001:000aba10       ??0?$ScriptRegistrant@VM01_HarvesterScript_New_JDG@@@@QAE@PBD0@Z 100aca10 f i Mission01.obj
 0001:000aba50       ?Create@?$ScriptRegistrant@VM01_HarvesterScript_New_JDG@@@@UAEPAVScriptImpClass@@XZ 100aca50 f i Mission01.obj
 0001:000abaf0       ??0?$ScriptRegistrant@VM01_TibField_Guard01_New_JDG@@@@QAE@PBD0@Z 100acaf0 f i Mission01.obj
 0001:000abb30       ?Create@?$ScriptRegistrant@VM01_TibField_Guard01_New_JDG@@@@UAEPAVScriptImpClass@@XZ 100acb30 f i Mission01.obj
 0001:000abbd0       ??0?$ScriptRegistrant@VM01_Barn_Babushkas_Conversation_Zone_JDG@@@@QAE@PBD0@Z 100acbd0 f i Mission01.obj
 0001:000abc10       ?Create@?$ScriptRegistrant@VM01_Barn_Babushkas_Conversation_Zone_JDG@@@@UAEPAVScriptImpClass@@XZ 100acc10 f i Mission01.obj
 0001:000abcb0       ??0?$ScriptRegistrant@VM01_Barn_Point_Guard_01_JDG@@@@QAE@PBD0@Z 100accb0 f i Mission01.obj
 0001:000abcf0       ?Create@?$ScriptRegistrant@VM01_Barn_Point_Guard_01_JDG@@@@UAEPAVScriptImpClass@@XZ 100accf0 f i Mission01.obj
 0001:000abd90       ??0?$ScriptRegistrant@VM01_Barn_Point_Guard_02_JDG@@@@QAE@PBD0@Z 100acd90 f i Mission01.obj
 0001:000abdd0       ?Create@?$ScriptRegistrant@VM01_Barn_Point_Guard_02_JDG@@@@UAEPAVScriptImpClass@@XZ 100acdd0 f i Mission01.obj
 0001:000abe70       ??0?$ScriptRegistrant@VM01_Barn_Door_Guard_JDG@@@@QAE@PBD0@Z 100ace70 f i Mission01.obj
 0001:000abeb0       ?Create@?$ScriptRegistrant@VM01_Barn_Door_Guard_JDG@@@@UAEPAVScriptImpClass@@XZ 100aceb0 f i Mission01.obj
 0001:000abf50       ??0?$ScriptRegistrant@VM01_Barn_Talk_Guard_01_JDG@@@@QAE@PBD0@Z 100acf50 f i Mission01.obj
 0001:000abf90       ?Create@?$ScriptRegistrant@VM01_Barn_Talk_Guard_01_JDG@@@@UAEPAVScriptImpClass@@XZ 100acf90 f i Mission01.obj
 0001:000ac030       ??0?$ScriptRegistrant@VM01_BarnArea_AI_ExitZone_JDG@@@@QAE@PBD0@Z 100ad030 f i Mission01.obj
 0001:000ac070       ?Create@?$ScriptRegistrant@VM01_BarnArea_AI_ExitZone_JDG@@@@UAEPAVScriptImpClass@@XZ 100ad070 f i Mission01.obj
 0001:000ac110       ??0?$ScriptRegistrant@VM01_TurretBeach_GDI_Guy_01_JDG@@@@QAE@PBD0@Z 100ad110 f i Mission01.obj
 0001:000ac150       ?Create@?$ScriptRegistrant@VM01_TurretBeach_GDI_Guy_01_JDG@@@@UAEPAVScriptImpClass@@XZ 100ad150 f i Mission01.obj
 0001:000ac1f0       ??0?$ScriptRegistrant@VM01_TurretBeach_GDI_Guy_02_JDG@@@@QAE@PBD0@Z 100ad1f0 f i Mission01.obj
 0001:000ac230       ?Create@?$ScriptRegistrant@VM01_TurretBeach_GDI_Guy_02_JDG@@@@UAEPAVScriptImpClass@@XZ 100ad230 f i Mission01.obj
 0001:000ac2d0       ??0?$ScriptRegistrant@VM01_DetentionPen_CivDeathMonitor@@@@QAE@PBD0@Z 100ad2d0 f i Mission01.obj
 0001:000ac310       ?Create@?$ScriptRegistrant@VM01_DetentionPen_CivDeathMonitor@@@@UAEPAVScriptImpClass@@XZ 100ad310 f i Mission01.obj
 0001:000ac3b0       ??0?$ScriptRegistrant@VM01_DetentionPen_GDIDeathMonitor@@@@QAE@PBD0@Z 100ad3b0 f i Mission01.obj
 0001:000ac3f0       ?Create@?$ScriptRegistrant@VM01_DetentionPen_GDIDeathMonitor@@@@UAEPAVScriptImpClass@@XZ 100ad3f0 f i Mission01.obj
 0001:000ac490       ??0?$ScriptRegistrant@VM01_DetentionPen_Evac_Controller01_JDG@@@@QAE@PBD0@Z 100ad490 f i Mission01.obj
 0001:000ac4d0       ?Create@?$ScriptRegistrant@VM01_DetentionPen_Evac_Controller01_JDG@@@@UAEPAVScriptImpClass@@XZ 100ad4d0 f i Mission01.obj
 0001:000ac570       ??0?$ScriptRegistrant@VM01_DetentionCiv_Air_Evac_Waypath_JDG@@@@QAE@PBD0@Z 100ad570 f i Mission01.obj
 0001:000ac5b0       ?Create@?$ScriptRegistrant@VM01_DetentionCiv_Air_Evac_Waypath_JDG@@@@UAEPAVScriptImpClass@@XZ 100ad5b0 f i Mission01.obj
 0001:000ac650       ??0?$ScriptRegistrant@VM01_DetentionCiv_Air_Evac_Chopper_JDG@@@@QAE@PBD0@Z 100ad650 f i Mission01.obj
 0001:000ac690       ?Create@?$ScriptRegistrant@VM01_DetentionCiv_Air_Evac_Chopper_JDG@@@@UAEPAVScriptImpClass@@XZ 100ad690 f i Mission01.obj
 0001:000ac730       ??0?$ScriptRegistrant@VM01_DetentionPen_Evac_Controller02_JDG@@@@QAE@PBD0@Z 100ad730 f i Mission01.obj
 0001:000ac770       ?Create@?$ScriptRegistrant@VM01_DetentionPen_Evac_Controller02_JDG@@@@UAEPAVScriptImpClass@@XZ 100ad770 f i Mission01.obj
 0001:000ac810       ??0?$ScriptRegistrant@VM01_DetentionGDI_Air_Evac_Waypath_JDG@@@@QAE@PBD0@Z 100ad810 f i Mission01.obj
 0001:000ac850       ?Create@?$ScriptRegistrant@VM01_DetentionGDI_Air_Evac_Waypath_JDG@@@@UAEPAVScriptImpClass@@XZ 100ad850 f i Mission01.obj
 0001:000ac8f0       ??0?$ScriptRegistrant@VM01_DetentionGDI_Air_Evac_Chopper_JDG@@@@QAE@PBD0@Z 100ad8f0 f i Mission01.obj
 0001:000ac930       ?Create@?$ScriptRegistrant@VM01_DetentionGDI_Air_Evac_Chopper_JDG@@@@UAEPAVScriptImpClass@@XZ 100ad930 f i Mission01.obj
 0001:000ac9d0       ??0?$ScriptRegistrant@VM01_Nod_Chinook_Reinforcement_Guy_JDG@@@@QAE@PBD0@Z 100ad9d0 f i Mission01.obj
 0001:000aca10       ?Create@?$ScriptRegistrant@VM01_Nod_Chinook_Reinforcement_Guy_JDG@@@@UAEPAVScriptImpClass@@XZ 100ada10 f i Mission01.obj
 0001:000acab0       ??0?$ScriptRegistrant@VM01_Hunt_The_Player_JDG@@@@QAE@PBD0@Z 100adab0 f i Mission01.obj
 0001:000acaf0       ?Create@?$ScriptRegistrant@VM01_Hunt_The_Player_JDG@@@@UAEPAVScriptImpClass@@XZ 100adaf0 f i Mission01.obj
 0001:000acb90       ??0?$ScriptRegistrant@VM01_HON_Escorts_Warroom_MCT_Commander_JDG@@@@QAE@PBD0@Z 100adb90 f i Mission01.obj
 0001:000acbd0       ?Create@?$ScriptRegistrant@VM01_HON_Escorts_Warroom_MCT_Commander_JDG@@@@UAEPAVScriptImpClass@@XZ 100adbd0 f i Mission01.obj
 0001:000acc70       ??0?$ScriptRegistrant@VM01_HON_Escorts_Warroom_MCT_Protector01_JDG@@@@QAE@PBD0@Z 100adc70 f i Mission01.obj
 0001:000accb0       ?Create@?$ScriptRegistrant@VM01_HON_Escorts_Warroom_MCT_Protector01_JDG@@@@UAEPAVScriptImpClass@@XZ 100adcb0 f i Mission01.obj
 0001:000acd50       ??0?$ScriptRegistrant@VM01_HON_Escorts_Warroom_MCT_Protector02_JDG@@@@QAE@PBD0@Z 100add50 f i Mission01.obj
 0001:000acd90       ?Create@?$ScriptRegistrant@VM01_HON_Escorts_Warroom_MCT_Protector02_JDG@@@@UAEPAVScriptImpClass@@XZ 100add90 f i Mission01.obj
 0001:000ace30       ??0?$ScriptRegistrant@VM01_HON_Engineer02_JDG@@@@QAE@PBD0@Z 100ade30 f i Mission01.obj
 0001:000ace70       ?Create@?$ScriptRegistrant@VM01_HON_Engineer02_JDG@@@@UAEPAVScriptImpClass@@XZ 100ade70 f i Mission01.obj
 0001:000acf10       ??0?$ScriptRegistrant@VM01_HON_Chinook_Spawned_Soldier_03_GDI_JDG@@@@QAE@PBD0@Z 100adf10 f i Mission01.obj
 0001:000acf50       ?Create@?$ScriptRegistrant@VM01_HON_Chinook_Spawned_Soldier_03_GDI_JDG@@@@UAEPAVScriptImpClass@@XZ 100adf50 f i Mission01.obj
 0001:000acff0       ??0?$ScriptRegistrant@VM01_HON_Chinook_Spawned_Soldier_04_GDI_JDG@@@@QAE@PBD0@Z 100adff0 f i Mission01.obj
 0001:000ad030       ?Create@?$ScriptRegistrant@VM01_HON_Chinook_Spawned_Soldier_04_GDI_JDG@@@@UAEPAVScriptImpClass@@XZ 100ae030 f i Mission01.obj
 0001:000ad0d0       ??0?$ScriptRegistrant@VM01_BuggyNew_Controller_JDG@@@@QAE@PBD0@Z 100ae0d0 f i Mission01.obj
 0001:000ad110       ?Create@?$ScriptRegistrant@VM01_BuggyNew_Controller_JDG@@@@UAEPAVScriptImpClass@@XZ 100ae110 f i Mission01.obj
 0001:000ad1b0       ??0?$ScriptRegistrant@VM01_BuggyScript_New_JDG@@@@QAE@PBD0@Z 100ae1b0 f i Mission01.obj
 0001:000ad1f0       ?Create@?$ScriptRegistrant@VM01_BuggyScript_New_JDG@@@@UAEPAVScriptImpClass@@XZ 100ae1f0 f i Mission01.obj
 0001:000ad290       ??0?$ScriptRegistrant@VM01_Priest_Conversation_Zone_JDG@@@@QAE@PBD0@Z 100ae290 f i Mission01.obj
 0001:000ad2d0       ?Create@?$ScriptRegistrant@VM01_Priest_Conversation_Zone_JDG@@@@UAEPAVScriptImpClass@@XZ 100ae2d0 f i Mission01.obj
 0001:000ad370       ??0?$ScriptRegistrant@VM01_Loveshack_Nun_Conversation_Zone_JDG@@@@QAE@PBD0@Z 100ae370 f i Mission01.obj
 0001:000ad3b0       ?Create@?$ScriptRegistrant@VM01_Loveshack_Nun_Conversation_Zone_JDG@@@@UAEPAVScriptImpClass@@XZ 100ae3b0 f i Mission01.obj
 0001:000ad450       ??0?$ScriptRegistrant@VM01_Interior_Nun_Conversation_Zone_JDG@@@@QAE@PBD0@Z 100ae450 f i Mission01.obj
 0001:000ad490       ?Create@?$ScriptRegistrant@VM01_Interior_Nun_Conversation_Zone_JDG@@@@UAEPAVScriptImpClass@@XZ 100ae490 f i Mission01.obj
 0001:000ad530       ??0?$ScriptRegistrant@VM01_Church_Guard_MiniGunner_JDG@@@@QAE@PBD0@Z 100ae530 f i Mission01.obj
 0001:000ad570       ?Create@?$ScriptRegistrant@VM01_Church_Guard_MiniGunner_JDG@@@@UAEPAVScriptImpClass@@XZ 100ae570 f i Mission01.obj
 0001:000ad610       ??0?$ScriptRegistrant@VM01_Church_Loveshack_InterrogationConv_Zone_JDG@@@@QAE@PBD0@Z 100ae610 f i Mission01.obj
 0001:000ad650       ?Create@?$ScriptRegistrant@VM01_Church_Loveshack_InterrogationConv_Zone_JDG@@@@UAEPAVScriptImpClass@@XZ 100ae650 f i Mission01.obj
 0001:000ad6f0       ??0?$ScriptRegistrant@VM01_GDI_Escort_Conversation_Controller_GDI@@@@QAE@PBD0@Z 100ae6f0 f i Mission01.obj
 0001:000ad730       ?Create@?$ScriptRegistrant@VM01_GDI_Escort_Conversation_Controller_GDI@@@@UAEPAVScriptImpClass@@XZ 100ae730 f i Mission01.obj
 0001:000ad7d0       ??0?$ScriptRegistrant@VM01_CHURCH_Chinook_Spawned_Soldier01_GDI@@@@QAE@PBD0@Z 100ae7d0 f i Mission01.obj
 0001:000ad810       ?Create@?$ScriptRegistrant@VM01_CHURCH_Chinook_Spawned_Soldier01_GDI@@@@UAEPAVScriptImpClass@@XZ 100ae810 f i Mission01.obj
 0001:000ad8b0       ??0?$ScriptRegistrant@VM01_CHURCH_Chinook_Spawned_Soldier02_GDI@@@@QAE@PBD0@Z 100ae8b0 f i Mission01.obj
 0001:000ad8f0       ?Create@?$ScriptRegistrant@VM01_CHURCH_Chinook_Spawned_Soldier02_GDI@@@@UAEPAVScriptImpClass@@XZ 100ae8f0 f i Mission01.obj
 0001:000ad990       ??0?$ScriptRegistrant@VM01_COMM_Chinook_Spawned_Soldier_GDI@@@@QAE@PBD0@Z 100ae990 f i Mission01.obj
 0001:000ad9d0       ?Create@?$ScriptRegistrant@VM01_COMM_Chinook_Spawned_Soldier_GDI@@@@UAEPAVScriptImpClass@@XZ 100ae9d0 f i Mission01.obj
 0001:000ada70       ??0?$ScriptRegistrant@VM01_Barn_Truck_JDG@@@@QAE@PBD0@Z 100aea70 f i Mission01.obj
 0001:000adab0       ?Create@?$ScriptRegistrant@VM01_Barn_Truck_JDG@@@@UAEPAVScriptImpClass@@XZ 100aeab0 f i Mission01.obj
 0001:000adb50       ??0?$ScriptRegistrant@VM01_GDIBase_EvacMonitor_JDG@@@@QAE@PBD0@Z 100aeb50 f i Mission01.obj
 0001:000adb90       ?Create@?$ScriptRegistrant@VM01_GDIBase_EvacMonitor_JDG@@@@UAEPAVScriptImpClass@@XZ 100aeb90 f i Mission01.obj
 0001:000adc30       ??0?$ScriptRegistrant@VM01_ChurchArea_EvacMonitor_JDG@@@@QAE@PBD0@Z 100aec30 f i Mission01.obj
 0001:000adc70       ?Create@?$ScriptRegistrant@VM01_ChurchArea_EvacMonitor_JDG@@@@UAEPAVScriptImpClass@@XZ 100aec70 f i Mission01.obj
 0001:000add10       ??0?$ScriptRegistrant@VM01_MovieProjector_JDG@@@@QAE@PBD0@Z 100aed10 f i Mission01.obj
 0001:000add50       ?Create@?$ScriptRegistrant@VM01_MovieProjector_JDG@@@@UAEPAVScriptImpClass@@XZ 100aed50 f i Mission01.obj
 0001:000addf0       ??0?$ScriptRegistrant@VM01_Propaganda_Sounds_Controller_JDG@@@@QAE@PBD0@Z 100aedf0 f i Mission01.obj
 0001:000ade30       ?Create@?$ScriptRegistrant@VM01_Propaganda_Sounds_Controller_JDG@@@@UAEPAVScriptImpClass@@XZ 100aee30 f i Mission01.obj
 0001:000aded0       ??0?$ScriptRegistrant@VM01_BackPath_NodGuy_JDG@@@@QAE@PBD0@Z 100aeed0 f i Mission01.obj
 0001:000adf10       ?Create@?$ScriptRegistrant@VM01_BackPath_NodGuy_JDG@@@@UAEPAVScriptImpClass@@XZ 100aef10 f i Mission01.obj
 0001:000adfb0       ??0?$ScriptRegistrant@VM01_Comm_Repair_Engineer_JDG@@@@QAE@PBD0@Z 100aefb0 f i Mission01.obj
 0001:000adff0       ?Create@?$ScriptRegistrant@VM01_Comm_Repair_Engineer_JDG@@@@UAEPAVScriptImpClass@@XZ 100aeff0 f i Mission01.obj
 0001:000ae090       ??0?$ScriptRegistrant@VM01_Comm_Center_Building_Script_JDG@@@@QAE@PBD0@Z 100af090 f i Mission01.obj
 0001:000ae0d0       ?Create@?$ScriptRegistrant@VM01_Comm_Center_Building_Script_JDG@@@@UAEPAVScriptImpClass@@XZ 100af0d0 f i Mission01.obj
 0001:000ae170       ??0?$ScriptRegistrant@VM01_PaintballRoom_ChatterController_JDG@@@@QAE@PBD0@Z 100af170 f i Mission01.obj
 0001:000ae1b0       ?Create@?$ScriptRegistrant@VM01_PaintballRoom_ChatterController_JDG@@@@UAEPAVScriptImpClass@@XZ 100af1b0 f i Mission01.obj
 0001:000ae250       ??0?$ScriptRegistrant@VM01_HON_Paintball_Team_01_JDG@@@@QAE@PBD0@Z 100af250 f i Mission01.obj
 0001:000ae290       ?Create@?$ScriptRegistrant@VM01_HON_Paintball_Team_01_JDG@@@@UAEPAVScriptImpClass@@XZ 100af290 f i Mission01.obj
 0001:000ae330       ??0?$ScriptRegistrant@VM01_HON_Paintball_Team_02_JDG@@@@QAE@PBD0@Z 100af330 f i Mission01.obj
 0001:000ae370       ?Create@?$ScriptRegistrant@VM01_HON_Paintball_Team_02_JDG@@@@UAEPAVScriptImpClass@@XZ 100af370 f i Mission01.obj
 0001:000ae410       ??0?$ScriptRegistrant@VM01_HON_Dojo_Trainer_JDG@@@@QAE@PBD0@Z 100af410 f i Mission01.obj
 0001:000ae450       ?Create@?$ScriptRegistrant@VM01_HON_Dojo_Trainer_JDG@@@@UAEPAVScriptImpClass@@XZ 100af450 f i Mission01.obj
 0001:000ae4f0       ??0?$ScriptRegistrant@VM01_HON_Dojo_Civ_01_JDG@@@@QAE@PBD0@Z 100af4f0 f i Mission01.obj
 0001:000ae530       ?Create@?$ScriptRegistrant@VM01_HON_Dojo_Civ_01_JDG@@@@UAEPAVScriptImpClass@@XZ 100af530 f i Mission01.obj
 0001:000ae5d0       ??0?$ScriptRegistrant@VM01_Nod_GuardTower_Tailgun_JDG@@@@QAE@PBD0@Z 100af5d0 f i Mission01.obj
 0001:000ae610       ?Create@?$ScriptRegistrant@VM01_Nod_GuardTower_Tailgun_JDG@@@@UAEPAVScriptImpClass@@XZ 100af610 f i Mission01.obj
 0001:000ae6b0       ??0?$ScriptRegistrant@VM01_Comm_Mainframe_PogZone_01_JDG@@@@QAE@PBD0@Z 100af6b0 f i Mission01.obj
 0001:000ae6f0       ?Create@?$ScriptRegistrant@VM01_Comm_Mainframe_PogZone_01_JDG@@@@UAEPAVScriptImpClass@@XZ 100af6f0 f i Mission01.obj
 0001:000ae790       ??0?$ScriptRegistrant@VM01_Comm_Mainframe_PogZone_02_JDG@@@@QAE@PBD0@Z 100af790 f i Mission01.obj
 0001:000ae7d0       ?Create@?$ScriptRegistrant@VM01_Comm_Mainframe_PogZone_02_JDG@@@@UAEPAVScriptImpClass@@XZ 100af7d0 f i Mission01.obj
 0001:000ae870       ??0?$ScriptRegistrant@VM01_Comm_Mainframe_PogZone_03_JDG@@@@QAE@PBD0@Z 100af870 f i Mission01.obj
 0001:000ae8b0       ?Create@?$ScriptRegistrant@VM01_Comm_Mainframe_PogZone_03_JDG@@@@UAEPAVScriptImpClass@@XZ 100af8b0 f i Mission01.obj
 0001:000ae950       ??0?$ScriptRegistrant@VM01_Comm_Center_Player_Terminal_Zone@@@@QAE@PBD0@Z 100af950 f i Mission01.obj
 0001:000ae990       ?Create@?$ScriptRegistrant@VM01_Comm_Center_Player_Terminal_Zone@@@@UAEPAVScriptImpClass@@XZ 100af990 f i Mission01.obj
 0001:000aea30       ??0?$ScriptRegistrant@VM01_Objective_Pog_Controller_JDG@@@@QAE@PBD0@Z 100afa30 f i Mission01.obj
 0001:000aea70       ?Create@?$ScriptRegistrant@VM01_Objective_Pog_Controller_JDG@@@@UAEPAVScriptImpClass@@XZ 100afa70 f i Mission01.obj
 0001:000aeb10       ??0?$ScriptRegistrant@VM01_GDIBase_FirstChinook_Script_JDG@@@@QAE@PBD0@Z 100afb10 f i Mission01.obj
 0001:000aeb50       ?Create@?$ScriptRegistrant@VM01_GDIBase_FirstChinook_Script_JDG@@@@UAEPAVScriptImpClass@@XZ 100afb50 f i Mission01.obj
 0001:000aebf0       ??0?$ScriptRegistrant@VM01_Church_EvacController_JDG@@@@QAE@PBD0@Z 100afbf0 f i Mission01.obj
 0001:000aec30       ?Create@?$ScriptRegistrant@VM01_Church_EvacController_JDG@@@@UAEPAVScriptImpClass@@XZ 100afc30 f i Mission01.obj
 0001:000aecd0       ??0?$ScriptRegistrant@VM01_ChurchArea_Air_Evac_Rope_JDG@@@@QAE@PBD0@Z 100afcd0 f i Mission01.obj
 0001:000aed10       ?Create@?$ScriptRegistrant@VM01_ChurchArea_Air_Evac_Rope_JDG@@@@UAEPAVScriptImpClass@@XZ 100afd10 f i Mission01.obj
 0001:000aedb0       ??0?$ScriptRegistrant@VM01_ChurchArea_Air_Evac_Waypath_JDG@@@@QAE@PBD0@Z 100afdb0 f i Mission01.obj
 0001:000aedf0       ?Create@?$ScriptRegistrant@VM01_ChurchArea_Air_Evac_Waypath_JDG@@@@UAEPAVScriptImpClass@@XZ 100afdf0 f i Mission01.obj
 0001:000aee90       ??0?$ScriptRegistrant@VM01_ChurchArea_Air_Evac_Chopper_JDG@@@@QAE@PBD0@Z 100afe90 f i Mission01.obj
 0001:000aeed0       ?Create@?$ScriptRegistrant@VM01_ChurchArea_Air_Evac_Chopper_JDG@@@@UAEPAVScriptImpClass@@XZ 100afed0 f i Mission01.obj
 0001:000aef70       ??0?$ScriptRegistrant@VM01_Church_Priest_JDG@@@@QAE@PBD0@Z 100aff70 f i Mission01.obj
 0001:000aefb0       ?Create@?$ScriptRegistrant@VM01_Church_Priest_JDG@@@@UAEPAVScriptImpClass@@XZ 100affb0 f i Mission01.obj
 0001:000af050       ??0?$ScriptRegistrant@VM01_Church_Interior_Nun_JDG@@@@QAE@PBD0@Z 100b0050 f i Mission01.obj
 0001:000af090       ?Create@?$ScriptRegistrant@VM01_Church_Interior_Nun_JDG@@@@UAEPAVScriptImpClass@@XZ 100b0090 f i Mission01.obj
 0001:000af130       ??0?$ScriptRegistrant@VM01_Church_LoveShack_Nun_JDG@@@@QAE@PBD0@Z 100b0130 f i Mission01.obj
 0001:000af170       ?Create@?$ScriptRegistrant@VM01_Church_LoveShack_Nun_JDG@@@@UAEPAVScriptImpClass@@XZ 100b0170 f i Mission01.obj
 0001:000af210       ??0?$ScriptRegistrant@VM01_BarnArea_Air_Evac_Rope_JDG@@@@QAE@PBD0@Z 100b0210 f i Mission01.obj
 0001:000af250       ?Create@?$ScriptRegistrant@VM01_BarnArea_Air_Evac_Rope_JDG@@@@UAEPAVScriptImpClass@@XZ 100b0250 f i Mission01.obj
 0001:000af2f0       ??0?$ScriptRegistrant@VM01_BarnArea_Air_Evac_Waypath_JDG@@@@QAE@PBD0@Z 100b02f0 f i Mission01.obj
 0001:000af330       ?Create@?$ScriptRegistrant@VM01_BarnArea_Air_Evac_Waypath_JDG@@@@UAEPAVScriptImpClass@@XZ 100b0330 f i Mission01.obj
 0001:000af3d0       ??0?$ScriptRegistrant@VM01_BarnArea_Air_Evac_Chopper_JDG@@@@QAE@PBD0@Z 100b03d0 f i Mission01.obj
 0001:000af410       ?Create@?$ScriptRegistrant@VM01_BarnArea_Air_Evac_Chopper_JDG@@@@UAEPAVScriptImpClass@@XZ 100b0410 f i Mission01.obj
 0001:000af4b0       ??0?$ScriptRegistrant@VM01_Barn_Prisoner_01_JDG@@@@QAE@PBD0@Z 100b04b0 f i Mission01.obj
 0001:000af4f0       ?Create@?$ScriptRegistrant@VM01_Barn_Prisoner_01_JDG@@@@UAEPAVScriptImpClass@@XZ 100b04f0 f i Mission01.obj
 0001:000af590       ??0?$ScriptRegistrant@VM01_Barn_Prisoner_02_JDG@@@@QAE@PBD0@Z 100b0590 f i Mission01.obj
 0001:000af5d0       ?Create@?$ScriptRegistrant@VM01_Barn_Prisoner_02_JDG@@@@UAEPAVScriptImpClass@@XZ 100b05d0 f i Mission01.obj
 0001:000af670       ??0?$ScriptRegistrant@VM01_Barn_Prisoner_03_JDG@@@@QAE@PBD0@Z 100b0670 f i Mission01.obj
 0001:000af6b0       ?Create@?$ScriptRegistrant@VM01_Barn_Prisoner_03_JDG@@@@UAEPAVScriptImpClass@@XZ 100b06b0 f i Mission01.obj
 0001:000af750       ??0?$ScriptRegistrant@VM01_GDIBasePOW_Air_Evac_Rope_JDG@@@@QAE@PBD0@Z 100b0750 f i Mission01.obj
 0001:000af790       ?Create@?$ScriptRegistrant@VM01_GDIBasePOW_Air_Evac_Rope_JDG@@@@UAEPAVScriptImpClass@@XZ 100b0790 f i Mission01.obj
 0001:000af830       ??0?$ScriptRegistrant@VM01_GDIBasePOW_Air_Evac_Waypath_JDG@@@@QAE@PBD0@Z 100b0830 f i Mission01.obj
 0001:000af870       ?Create@?$ScriptRegistrant@VM01_GDIBasePOW_Air_Evac_Waypath_JDG@@@@UAEPAVScriptImpClass@@XZ 100b0870 f i Mission01.obj
 0001:000af910       ??0?$ScriptRegistrant@VM01_Evac_TroopBone_JDG@@@@QAE@PBD0@Z 100b0910 f i Mission01.obj
 0001:000af950       ?Create@?$ScriptRegistrant@VM01_Evac_TroopBone_JDG@@@@UAEPAVScriptImpClass@@XZ 100b0950 f i Mission01.obj
 0001:000af9f0       ??0?$ScriptRegistrant@VM01_GDIBaseCommander_Air_Evac_Waypath_JDG@@@@QAE@PBD0@Z 100b09f0 f i Mission01.obj
 0001:000afa30       ?Create@?$ScriptRegistrant@VM01_GDIBaseCommander_Air_Evac_Waypath_JDG@@@@UAEPAVScriptImpClass@@XZ 100b0a30 f i Mission01.obj
 0001:000afad0       ??0?$ScriptRegistrant@VM01_GDIBaseCommander_Air_Evac_Rope_JDG@@@@QAE@PBD0@Z 100b0ad0 f i Mission01.obj
 0001:000afb10       ?Create@?$ScriptRegistrant@VM01_GDIBaseCommander_Air_Evac_Rope_JDG@@@@UAEPAVScriptImpClass@@XZ 100b0b10 f i Mission01.obj
 0001:000afbb0       ??0?$ScriptRegistrant@VM01_TriggerZone_GDIBase_BaseCommander_JDG@@@@QAE@PBD0@Z 100b0bb0 f i Mission01.obj
 0001:000afbf0       ?Create@?$ScriptRegistrant@VM01_TriggerZone_GDIBase_BaseCommander_JDG@@@@UAEPAVScriptImpClass@@XZ 100b0bf0 f i Mission01.obj
 0001:000afc90       ??0?$ScriptRegistrant@VM01_GDIBase_FirstChinookFlamethrowerGuy_JDG@@@@QAE@PBD0@Z 100b0c90 f i Mission01.obj
 0001:000afcd0       ?Create@?$ScriptRegistrant@VM01_GDIBase_FirstChinookFlamethrowerGuy_JDG@@@@UAEPAVScriptImpClass@@XZ 100b0cd0 f i Mission01.obj
 0001:000afd70       ??0?$ScriptRegistrant@VM01_TibCave_StartZone_JDG@@@@QAE@PBD0@Z 100b0d70 f i Mission01.obj
 0001:000afdb0       ?Create@?$ScriptRegistrant@VM01_TibCave_StartZone_JDG@@@@UAEPAVScriptImpClass@@XZ 100b0db0 f i Mission01.obj
 0001:000afe50       ??0?$ScriptRegistrant@VM01_Visceroid01_JDG@@@@QAE@PBD0@Z 100b0e50 f i Mission01.obj
 0001:000afe90       ?Create@?$ScriptRegistrant@VM01_Visceroid01_JDG@@@@UAEPAVScriptImpClass@@XZ 100b0e90 f i Mission01.obj
 0001:000aff30       ??0?$ScriptRegistrant@VM01_Visceroid02_JDG@@@@QAE@PBD0@Z 100b0f30 f i Mission01.obj
 0001:000aff70       ?Create@?$ScriptRegistrant@VM01_Visceroid02_JDG@@@@UAEPAVScriptImpClass@@XZ 100b0f70 f i Mission01.obj
 0001:000b0010       ??0?$ScriptRegistrant@VM01_Visceroid03_JDG@@@@QAE@PBD0@Z 100b1010 f i Mission01.obj
 0001:000b0050       ?Create@?$ScriptRegistrant@VM01_Visceroid03_JDG@@@@UAEPAVScriptImpClass@@XZ 100b1050 f i Mission01.obj
 0001:000b00f0       ??0?$ScriptRegistrant@VM01_Visceroid_NodGuy01_JDG@@@@QAE@PBD0@Z 100b10f0 f i Mission01.obj
 0001:000b0130       ?Create@?$ScriptRegistrant@VM01_Visceroid_NodGuy01_JDG@@@@UAEPAVScriptImpClass@@XZ 100b1130 f i Mission01.obj
 0001:000b01d0       ??0?$ScriptRegistrant@VM01_Visceroid_NodGuy02_JDG@@@@QAE@PBD0@Z 100b11d0 f i Mission01.obj
 0001:000b0210       ?Create@?$ScriptRegistrant@VM01_Visceroid_NodGuy02_JDG@@@@UAEPAVScriptImpClass@@XZ 100b1210 f i Mission01.obj
 0001:000b02b0       ??0?$ScriptRegistrant@VM01_Tiberium_Cave_Spawn_Helicopter_Zone_JDG@@@@QAE@PBD0@Z 100b12b0 f i Mission01.obj
 0001:000b02f0       ?Create@?$ScriptRegistrant@VM01_Tiberium_Cave_Spawn_Helicopter_Zone_JDG@@@@UAEPAVScriptImpClass@@XZ 100b12f0 f i Mission01.obj
 0001:000b0390       ??0?$ScriptRegistrant@VM01_TiberiumCave_UpThere_NodGuy_JDG@@@@QAE@PBD0@Z 100b1390 f i Mission01.obj
 0001:000b03d0       ?Create@?$ScriptRegistrant@VM01_TiberiumCave_UpThere_NodGuy_JDG@@@@UAEPAVScriptImpClass@@XZ 100b13d0 f i Mission01.obj
 0001:000b0470       ??0?$ScriptRegistrant@VM01_Detention_GuardTower_Enter_Zone_JDG@@@@QAE@PBD0@Z 100b1470 f i Mission01.obj
 0001:000b04b0       ?Create@?$ScriptRegistrant@VM01_Detention_GuardTower_Enter_Zone_JDG@@@@UAEPAVScriptImpClass@@XZ 100b14b0 f i Mission01.obj
 0001:000b0550       ??0?$ScriptRegistrant@VM01_PrisonPen_POW_JDG@@@@QAE@PBD0@Z 100b1550 f i Mission01.obj
 0001:000b0590       ?Create@?$ScriptRegistrant@VM01_PrisonPen_POW_JDG@@@@UAEPAVScriptImpClass@@XZ 100b1590 f i Mission01.obj
 0001:000b0630       ??0?$ScriptRegistrant@VM01_PrisonPen_Civilian_JDG@@@@QAE@PBD0@Z 100b1630 f i Mission01.obj
 0001:000b0670       ?Create@?$ScriptRegistrant@VM01_PrisonPen_Civilian_JDG@@@@UAEPAVScriptImpClass@@XZ 100b1670 f i Mission01.obj
 0001:000b0710       ??0?$ScriptRegistrant@VM01_BarnArea_NOD_Commander_Trigger_Zone_JDG@@@@QAE@PBD0@Z 100b1710 f i Mission01.obj
 0001:000b0750       ?Create@?$ScriptRegistrant@VM01_BarnArea_NOD_Commander_Trigger_Zone_JDG@@@@UAEPAVScriptImpClass@@XZ 100b1750 f i Mission01.obj
 0001:000b07f0       ??0?$ScriptRegistrant@VM01_GDI_GuardTower_NOD_Commander_JDG@@@@QAE@PBD0@Z 100b17f0 f i Mission01.obj
 0001:000b0830       ?Create@?$ScriptRegistrant@VM01_GDI_GuardTower_NOD_Commander_JDG@@@@UAEPAVScriptImpClass@@XZ 100b1830 f i Mission01.obj
 0001:000b08d0       ??0?$ScriptRegistrant@VM01_Nod_Commander_Conversation_Controller_GDI@@@@QAE@PBD0@Z 100b18d0 f i Mission01.obj
 0001:000b0910       ?Create@?$ScriptRegistrant@VM01_Nod_Commander_Conversation_Controller_GDI@@@@UAEPAVScriptImpClass@@XZ 100b1910 f i Mission01.obj
 0001:000b09b0       ??0?$ScriptRegistrant@VM01_GDIBase_LightTank_PastTunnelZone_JDG@@@@QAE@PBD0@Z 100b19b0 f i Mission01.obj
 0001:000b09f0       ?Create@?$ScriptRegistrant@VM01_GDIBase_LightTank_PastTunnelZone_JDG@@@@UAEPAVScriptImpClass@@XZ 100b19f0 f i Mission01.obj
 0001:000b0a90       ??0?$ScriptRegistrant@VM01_KeyCard01_Script_JDG@@@@QAE@PBD0@Z 100b1a90 f i Mission01.obj
 0001:000b0ad0       ?Create@?$ScriptRegistrant@VM01_KeyCard01_Script_JDG@@@@UAEPAVScriptImpClass@@XZ 100b1ad0 f i Mission01.obj
 0001:000b0b70       ??0?$ScriptRegistrant@VM01_GDIBase_AI_ExitZone_JDG@@@@QAE@PBD0@Z 100b1b70 f i Mission01.obj
 0001:000b0bb0       ?Create@?$ScriptRegistrant@VM01_GDIBase_AI_ExitZone_JDG@@@@UAEPAVScriptImpClass@@XZ 100b1bb0 f i Mission01.obj
 0001:000b0c50       ??0?$ScriptRegistrant@VM01_GDIBase_LightTank_JDG@@@@QAE@PBD0@Z 100b1c50 f i Mission01.obj
 0001:000b0c90       ?Create@?$ScriptRegistrant@VM01_GDIBase_LightTank_JDG@@@@UAEPAVScriptImpClass@@XZ 100b1c90 f i Mission01.obj
 0001:000b0d30       ??0?$ScriptRegistrant@VM01_GDIBase_BackPath_NodGuy_JDG@@@@QAE@PBD0@Z 100b1d30 f i Mission01.obj
 0001:000b0d70       ?Create@?$ScriptRegistrant@VM01_GDIBase_BackPath_NodGuy_JDG@@@@UAEPAVScriptImpClass@@XZ 100b1d70 f i Mission01.obj
 0001:000b0e10       ??0?$ScriptRegistrant@VM01_Sinking_Gunboat_JDG@@@@QAE@PBD0@Z 100b1e10 f i Mission01.obj
 0001:000b0e50       ?Create@?$ScriptRegistrant@VM01_Sinking_Gunboat_JDG@@@@UAEPAVScriptImpClass@@XZ 100b1e50 f i Mission01.obj
 0001:000b0ef0       ??0?$ScriptRegistrant@VM01_PlayerEntering_BarnArea_Zone_JDG@@@@QAE@PBD0@Z 100b1ef0 f i Mission01.obj
 0001:000b0f30       ?Create@?$ScriptRegistrant@VM01_PlayerEntering_BarnArea_Zone_JDG@@@@UAEPAVScriptImpClass@@XZ 100b1f30 f i Mission01.obj
 0001:000b0fd0       ??0?$ScriptRegistrant@VM01_PlayerLeaving_BarnArea_Zone_JDG@@@@QAE@PBD0@Z 100b1fd0 f i Mission01.obj
 0001:000b1010       ?Create@?$ScriptRegistrant@VM01_PlayerLeaving_BarnArea_Zone_JDG@@@@UAEPAVScriptImpClass@@XZ 100b2010 f i Mission01.obj
 0001:000b10b0       ??0?$ScriptRegistrant@VM01_Barn_EntryZone_JDG@@@@QAE@PBD0@Z 100b20b0 f i Mission01.obj
 0001:000b10f0       ?Create@?$ScriptRegistrant@VM01_Barn_EntryZone_JDG@@@@UAEPAVScriptImpClass@@XZ 100b20f0 f i Mission01.obj
 0001:000b1190       ??0?$ScriptRegistrant@VM01_GDI_BaseCommander_Backside_EntryZone_JDG@@@@QAE@PBD0@Z 100b2190 f i Mission01.obj
 0001:000b11d0       ?Create@?$ScriptRegistrant@VM01_GDI_BaseCommander_Backside_EntryZone_JDG@@@@UAEPAVScriptImpClass@@XZ 100b21d0 f i Mission01.obj
 0001:000b1270       ??0?$ScriptRegistrant@VM01_Obelisk_UpdateDisc_JDG@@@@QAE@PBD0@Z 100b2270 f i Mission01.obj
 0001:000b12b0       ?Create@?$ScriptRegistrant@VM01_Obelisk_UpdateDisc_JDG@@@@UAEPAVScriptImpClass@@XZ 100b22b0 f i Mission01.obj
 0001:000b1350       ??0?$ScriptRegistrant@VM01_BarnArea_EvacMonitor_JDG@@@@QAE@PBD0@Z 100b2350 f i Mission01.obj
 0001:000b1390       ?Create@?$ScriptRegistrant@VM01_BarnArea_EvacMonitor_JDG@@@@UAEPAVScriptImpClass@@XZ 100b2390 f i Mission01.obj
 0001:000b1430       ??0?$ScriptRegistrant@VM01_HON_RedKey_Zone_JDG@@@@QAE@PBD0@Z 100b2430 f i Mission01.obj
 0001:000b1470       ?Create@?$ScriptRegistrant@VM01_HON_RedKey_Zone_JDG@@@@UAEPAVScriptImpClass@@XZ 100b2470 f i Mission01.obj
 0001:000b1510       ??0?$ScriptRegistrant@VM01_Comm_Center_Pen_Gate@@@@QAE@PBD0@Z 100b2510 f i Mission01.obj
 0001:000b1550       ?Create@?$ScriptRegistrant@VM01_Comm_Center_Pen_Gate@@@@UAEPAVScriptImpClass@@XZ 100b2550 f i Mission01.obj
 0001:000b15f0       ??0?$ScriptRegistrant@VM01_CommCenter_SAMSite_Script@@@@QAE@PBD0@Z 100b25f0 f i Mission01.obj
 0001:000b1630       ?Create@?$ScriptRegistrant@VM01_CommCenter_SAMSite_Script@@@@UAEPAVScriptImpClass@@XZ 100b2630 f i Mission01.obj
 0001:000b16d0       ??0?$ScriptRegistrant@VM01_Commander_Shack_Zone_JDG@@@@QAE@PBD0@Z 100b26d0 f i Mission01.obj
 0001:000b1710       ?Create@?$ScriptRegistrant@VM01_Commander_Shack_Zone_JDG@@@@UAEPAVScriptImpClass@@XZ 100b2710 f i Mission01.obj
 0001:000b17b0       ??0?$ScriptRegistrant@VM01_TurretBeach_Engineer_JDG@@@@QAE@PBD0@Z 100b27b0 f i Mission01.obj
 0001:000b17f0       ?Create@?$ScriptRegistrant@VM01_TurretBeach_Engineer_JDG@@@@UAEPAVScriptImpClass@@XZ 100b27f0 f i Mission01.obj
 0001:000b1890       ??0?$ScriptRegistrant@VM01_TurretBeach_Chinook_Spawned_Soldier_NOD@@@@QAE@PBD0@Z 100b2890 f i Mission01.obj
 0001:000b18d0       ?Create@?$ScriptRegistrant@VM01_TurretBeach_Chinook_Spawned_Soldier_NOD@@@@UAEPAVScriptImpClass@@XZ 100b28d0 f i Mission01.obj
 0001:000b1970       ??0?$ScriptRegistrant@VM01_FP_NodBase_Dogfight_Contoller_JDG@@@@QAE@PBD0@Z 100b2970 f i Mission01.obj
 0001:000b19b0       ?Create@?$ScriptRegistrant@VM01_FP_NodBase_Dogfight_Contoller_JDG@@@@UAEPAVScriptImpClass@@XZ 100b29b0 f i Mission01.obj
 0001:000b1a50       ??0?$ScriptRegistrant@VM01_FP_BaseToBase_NorthSouth_Contoller_JDG@@@@QAE@PBD0@Z 100b2a50 f i Mission01.obj
 0001:000b1a90       ?Create@?$ScriptRegistrant@VM01_FP_BaseToBase_NorthSouth_Contoller_JDG@@@@UAEPAVScriptImpClass@@XZ 100b2a90 f i Mission01.obj
 0001:000b1b30       ??0?$ScriptRegistrant@VM01_FP_BaseToBase_SouthNorth_Contoller_JDG@@@@QAE@PBD0@Z 100b2b30 f i Mission01.obj
 0001:000b1b70       ?Create@?$ScriptRegistrant@VM01_FP_BaseToBase_SouthNorth_Contoller_JDG@@@@UAEPAVScriptImpClass@@XZ 100b2b70 f i Mission01.obj
 0001:000b1c10       ??0?$ScriptRegistrant@VM01_FP_NodBase_EastWest_Contoller_JDG@@@@QAE@PBD0@Z 100b2c10 f i Mission01.obj
 0001:000b1c50       ?Create@?$ScriptRegistrant@VM01_FP_NodBase_EastWest_Contoller_JDG@@@@UAEPAVScriptImpClass@@XZ 100b2c50 f i Mission01.obj
 0001:000b1cf0       ??0?$ScriptRegistrant@VM01_FP_NodBase_WestEast_Contoller_JDG@@@@QAE@PBD0@Z 100b2cf0 f i Mission01.obj
 0001:000b1d30       ?Create@?$ScriptRegistrant@VM01_FP_NodBase_WestEast_Contoller_JDG@@@@UAEPAVScriptImpClass@@XZ 100b2d30 f i Mission01.obj
 0001:000b1dd0       ??0?$ScriptRegistrant@VM01_FP_NodBase_NorthSouth_Contoller_JDG@@@@QAE@PBD0@Z 100b2dd0 f i Mission01.obj
 0001:000b1e10       ?Create@?$ScriptRegistrant@VM01_FP_NodBase_NorthSouth_Contoller_JDG@@@@UAEPAVScriptImpClass@@XZ 100b2e10 f i Mission01.obj
 0001:000b1eb0       ??0?$ScriptRegistrant@VM01_FP_NodBase_SouthNorth_Contoller_JDG@@@@QAE@PBD0@Z 100b2eb0 f i Mission01.obj
 0001:000b1ef0       ?Create@?$ScriptRegistrant@VM01_FP_NodBase_SouthNorth_Contoller_JDG@@@@UAEPAVScriptImpClass@@XZ 100b2ef0 f i Mission01.obj
 0001:000b1f90       ??0?$ScriptRegistrant@VM01_FP_GDIOcean_NorthSouth_Contoller_JDG@@@@QAE@PBD0@Z 100b2f90 f i Mission01.obj
 0001:000b1fd0       ?Create@?$ScriptRegistrant@VM01_FP_GDIOcean_NorthSouth_Contoller_JDG@@@@UAEPAVScriptImpClass@@XZ 100b2fd0 f i Mission01.obj
 0001:000b2070       ??0?$ScriptRegistrant@VM01_FP_GDIOcean_SouthNorth_Contoller_JDG@@@@QAE@PBD0@Z 100b3070 f i Mission01.obj
 0001:000b20b0       ?Create@?$ScriptRegistrant@VM01_FP_GDIOcean_SouthNorth_Contoller_JDG@@@@UAEPAVScriptImpClass@@XZ 100b30b0 f i Mission01.obj
 0001:000b2150       ??0?$ScriptRegistrant@VM01_Deco_LightTanks_JDG@@@@QAE@PBD0@Z 100b3150 f i Mission01.obj
 0001:000b2190       ?Create@?$ScriptRegistrant@VM01_Deco_LightTanks_JDG@@@@UAEPAVScriptImpClass@@XZ 100b3190 f i Mission01.obj
 0001:000b2230       ??0?$ScriptRegistrant@VM01_Airstrike_Controller_JDG@@@@QAE@PBD0@Z 100b3230 f i Mission01.obj
 0001:000b2270       ?Create@?$ScriptRegistrant@VM01_Airstrike_Controller_JDG@@@@UAEPAVScriptImpClass@@XZ 100b3270 f i Mission01.obj
 0001:000b2310       ??0?$ScriptRegistrant@VM01_GDIBase_RealLightTank_JDG@@@@QAE@PBD0@Z 100b3310 f i Mission01.obj
 0001:000b2350       ?Create@?$ScriptRegistrant@VM01_GDIBase_RealLightTank_JDG@@@@UAEPAVScriptImpClass@@XZ 100b3350 f i Mission01.obj
 0001:000b23f0       ??0?$ScriptRegistrant@VM01_RealLightTank_TriggerZone_JDG@@@@QAE@PBD0@Z 100b33f0 f i Mission01.obj
 0001:000b2430       ?Create@?$ScriptRegistrant@VM01_RealLightTank_TriggerZone_JDG@@@@UAEPAVScriptImpClass@@XZ 100b3430 f i Mission01.obj
 0001:000b24d0       ??0?$ScriptRegistrant@VM01_First_AutoRifle_JDG@@@@QAE@PBD0@Z 100b34d0 f i Mission01.obj
 0001:000b2510       ?Create@?$ScriptRegistrant@VM01_First_AutoRifle_JDG@@@@UAEPAVScriptImpClass@@XZ 100b3510 f i Mission01.obj
 0001:000b25b0       ??0?$ScriptRegistrant@VM01_Announce_First_ObjectiveZone_JDG@@@@QAE@PBD0@Z 100b35b0 f i Mission01.obj
 0001:000b25f0       ?Create@?$ScriptRegistrant@VM01_Announce_First_ObjectiveZone_JDG@@@@UAEPAVScriptImpClass@@XZ 100b35f0 f i Mission01.obj
 0001:000b2690       ??0?$ScriptRegistrant@VM01_SniperRifle_01_JDG@@@@QAE@PBD0@Z 100b3690 f i Mission01.obj
 0001:000b26d0       ?Create@?$ScriptRegistrant@VM01_SniperRifle_01_JDG@@@@UAEPAVScriptImpClass@@XZ 100b36d0 f i Mission01.obj
 0001:000b2770       ??0?$ScriptRegistrant@VM01_SniperRifle_01_Target_JDG@@@@QAE@PBD0@Z 100b3770 f i Mission01.obj
 0001:000b27b0       ?Create@?$ScriptRegistrant@VM01_SniperRifle_01_Target_JDG@@@@UAEPAVScriptImpClass@@XZ 100b37b0 f i Mission01.obj
 0001:000b2850       ??0?$ScriptRegistrant@VM01_SniperRifle_02_JDG@@@@QAE@PBD0@Z 100b3850 f i Mission01.obj
 0001:000b2890       ?Create@?$ScriptRegistrant@VM01_SniperRifle_02_JDG@@@@UAEPAVScriptImpClass@@XZ 100b3890 f i Mission01.obj
 0001:000b2930       ??0?$ScriptRegistrant@VM01_SniperRifle_02_AirdropZone_JDG@@@@QAE@PBD0@Z 100b3930 f i Mission01.obj
 0001:000b2970       ?Create@?$ScriptRegistrant@VM01_SniperRifle_02_AirdropZone_JDG@@@@UAEPAVScriptImpClass@@XZ 100b3970 f i Mission01.obj
 0001:000b2a10       ??0?$ScriptRegistrant@VM01_C4_TutorialScript_JDG@@@@QAE@PBD0@Z 100b3a10 f i Mission01.obj
 0001:000b2a50       ?Create@?$ScriptRegistrant@VM01_C4_TutorialScript_JDG@@@@UAEPAVScriptImpClass@@XZ 100b3a50 f i Mission01.obj
 0001:000b2af0       ??0?$ScriptRegistrant@VM01_Use_Ladder_Zone_JDG@@@@QAE@PBD0@Z 100b3af0 f i Mission01.obj
 0001:000b2b30       ?Create@?$ScriptRegistrant@VM01_Use_Ladder_Zone_JDG@@@@UAEPAVScriptImpClass@@XZ 100b3b30 f i Mission01.obj
 0001:000b2bd0       ??0?$ScriptRegistrant@VM01_AccessDenied_Zone_JDG@@@@QAE@PBD0@Z 100b3bd0 f i Mission01.obj
 0001:000b2c10       ?Create@?$ScriptRegistrant@VM01_AccessDenied_Zone_JDG@@@@UAEPAVScriptImpClass@@XZ 100b3c10 f i Mission01.obj
 0001:000b2cb0       ??0?$ScriptRegistrant@VM01_GDIBase_FirstChinookMinigunnerGuy_JDG@@@@QAE@PBD0@Z 100b3cb0 f i Mission01.obj
 0001:000b2cf0       ?Create@?$ScriptRegistrant@VM01_GDIBase_FirstChinookMinigunnerGuy_JDG@@@@UAEPAVScriptImpClass@@XZ 100b3cf0 f i Mission01.obj
 0001:000b2d90       ??0?$ScriptRegistrant@VM01_QuickSave_Zone_JDG@@@@QAE@PBD0@Z 100b3d90 f i Mission01.obj
 0001:000b2dd0       ?Create@?$ScriptRegistrant@VM01_QuickSave_Zone_JDG@@@@UAEPAVScriptImpClass@@XZ 100b3dd0 f i Mission01.obj
 0001:000b2e70       ??0?$ScriptRegistrant@VM01_GDIBaseCommander_Air_Evac_Chopper_JDG@@@@QAE@PBD0@Z 100b3e70 f i Mission01.obj
 0001:000b2eb0       ?Create@?$ScriptRegistrant@VM01_GDIBaseCommander_Air_Evac_Chopper_JDG@@@@UAEPAVScriptImpClass@@XZ 100b3eb0 f i Mission01.obj
 0001:000b2f50       ??0?$ScriptRegistrant@VM01_GDIBaseCommander_EvacController_JDG@@@@QAE@PBD0@Z 100b3f50 f i Mission01.obj
 0001:000b2f90       ?Create@?$ScriptRegistrant@VM01_GDIBaseCommander_EvacController_JDG@@@@UAEPAVScriptImpClass@@XZ 100b3f90 f i Mission01.obj
 0001:000b3030       ??0?$ScriptRegistrant@VM01_Base_Nod_Minigunner_JDG@@@@QAE@PBD0@Z 100b4030 f i Mission01.obj
 0001:000b3070       ?Create@?$ScriptRegistrant@VM01_Base_Nod_Minigunner_JDG@@@@UAEPAVScriptImpClass@@XZ 100b4070 f i Mission01.obj
 0001:000b3110       ??0?$ScriptRegistrant@VM01_POW_Nod_Minigunner01_JDG@@@@QAE@PBD0@Z 100b4110 f i Mission01.obj
 0001:000b3150       ?Create@?$ScriptRegistrant@VM01_POW_Nod_Minigunner01_JDG@@@@UAEPAVScriptImpClass@@XZ 100b4150 f i Mission01.obj
 0001:000b31f0       ??0?$ScriptRegistrant@VM01_GDIBase_POWEncounter02_Controller_JDG@@@@QAE@PBD0@Z 100b41f0 f i Mission01.obj
 0001:000b3230       ?Create@?$ScriptRegistrant@VM01_GDIBase_POWEncounter02_Controller_JDG@@@@UAEPAVScriptImpClass@@XZ 100b4230 f i Mission01.obj
 0001:000b32d0       ??0?$ScriptRegistrant@VM01_GDIBasePOW_Air_Evac_Chopper_JDG@@@@QAE@PBD0@Z 100b42d0 f i Mission01.obj
 0001:000b3310       ?Create@?$ScriptRegistrant@VM01_GDIBasePOW_Air_Evac_Chopper_JDG@@@@UAEPAVScriptImpClass@@XZ 100b4310 f i Mission01.obj
 0001:000b33b0       ??0?$ScriptRegistrant@VM01_ConDropZone_JDG@@@@QAE@PBD0@Z 100b43b0 f i Mission01.obj
 0001:000b33f0       ?Create@?$ScriptRegistrant@VM01_ConDropZone_JDG@@@@UAEPAVScriptImpClass@@XZ 100b43f0 f i Mission01.obj
 0001:000b3490       ??0?$ScriptRegistrant@VM01_ConYard_Dropoff_Dude_JDG@@@@QAE@PBD0@Z 100b4490 f i Mission01.obj
 0001:000b34d0       ?Create@?$ScriptRegistrant@VM01_ConYard_Dropoff_Dude_JDG@@@@UAEPAVScriptImpClass@@XZ 100b44d0 f i Mission01.obj
 0001:000b3570       ??0?$ScriptRegistrant@VM01_C130_Dropoff_Dude_JDG@@@@QAE@PBD0@Z 100b4570 f i Mission01.obj
 0001:000b35b0       ?Create@?$ScriptRegistrant@VM01_C130_Dropoff_Dude_JDG@@@@UAEPAVScriptImpClass@@XZ 100b45b0 f i Mission01.obj
 0001:000b3650       ??0?$ScriptRegistrant@VM01_Base_GDI_Fodder_JDG@@@@QAE@PBD0@Z 100b4650 f i Mission01.obj
 0001:000b3690       ?Create@?$ScriptRegistrant@VM01_Base_GDI_Fodder_JDG@@@@UAEPAVScriptImpClass@@XZ 100b4690 f i Mission01.obj
 0001:000b3730       ??0?$ScriptRegistrant@VM01_Base_StartZone_JDG@@@@QAE@PBD0@Z 100b4730 f i Mission01.obj
 0001:000b3770       ?Create@?$ScriptRegistrant@VM01_Base_StartZone_JDG@@@@UAEPAVScriptImpClass@@XZ 100b4770 f i Mission01.obj
 0001:000b3810       ??0?$ScriptRegistrant@VM01_Nod_Truck_JDG@@@@QAE@PBD0@Z 100b4810 f i Mission01.obj
 0001:000b3850       ?Create@?$ScriptRegistrant@VM01_Nod_Truck_JDG@@@@UAEPAVScriptImpClass@@XZ 100b4850 f i Mission01.obj
 0001:000b38f0       ??0?$ScriptRegistrant@VM01_C4_Tutorial_Zone_JDG@@@@QAE@PBD0@Z 100b48f0 f i Mission01.obj
 0001:000b3930       ?Create@?$ScriptRegistrant@VM01_C4_Tutorial_Zone_JDG@@@@UAEPAVScriptImpClass@@XZ 100b4930 f i Mission01.obj
 0001:000b39d0       ??0?$ScriptRegistrant@VM01_Mainframe_Tutorial_Zone_JDG@@@@QAE@PBD0@Z 100b49d0 f i Mission01.obj
 0001:000b3a10       ?Create@?$ScriptRegistrant@VM01_Mainframe_Tutorial_Zone_JDG@@@@UAEPAVScriptImpClass@@XZ 100b4a10 f i Mission01.obj
 0001:000b3ab0       ??0?$ScriptRegistrant@VM01_GateSwitch_Tutorial_Zone_JDG@@@@QAE@PBD0@Z 100b4ab0 f i Mission01.obj
 0001:000b3af0       ?Create@?$ScriptRegistrant@VM01_GateSwitch_Tutorial_Zone_JDG@@@@UAEPAVScriptImpClass@@XZ 100b4af0 f i Mission01.obj
 0001:000b3b90       ??0?$ScriptRegistrant@VM01_BarnArea_NOD_Commander_Trigger_Zone02_JDG@@@@QAE@PBD0@Z 100b4b90 f i Mission01.obj
 0001:000b3bd0       ?Create@?$ScriptRegistrant@VM01_BarnArea_NOD_Commander_Trigger_Zone02_JDG@@@@UAEPAVScriptImpClass@@XZ 100b4bd0 f i Mission01.obj
 0001:000b3c70       ??0?$ScriptRegistrant@VM01_TurretBeach_Turret_01_Script_JDG@@@@QAE@PBD0@Z 100b4c70 f i Mission01.obj
 0001:000b3cb0       ?Create@?$ScriptRegistrant@VM01_TurretBeach_Turret_01_Script_JDG@@@@UAEPAVScriptImpClass@@XZ 100b4cb0 f i Mission01.obj
 0001:000b3d50       ??0?$ScriptRegistrant@VM01_GunboatAction_Controller_JDG@@@@QAE@PBD0@Z 100b4d50 f i Mission01.obj
 0001:000b3d90       ?Create@?$ScriptRegistrant@VM01_GunboatAction_Controller_JDG@@@@UAEPAVScriptImpClass@@XZ 100b4d90 f i Mission01.obj
 0001:000b3e30       ??0?$ScriptRegistrant@VM01_Initial_Gunboat_Script_JDG@@@@QAE@PBD0@Z 100b4e30 f i Mission01.obj
 0001:000b3e70       ?Create@?$ScriptRegistrant@VM01_Initial_Gunboat_Script_JDG@@@@UAEPAVScriptImpClass@@XZ 100b4e70 f i Mission01.obj
 0001:000b3f10       ??0?$ScriptRegistrant@VM01_GDIBase_BaseCommander_JDG@@@@QAE@PBD0@Z 100b4f10 f i Mission01.obj
 0001:000b3f50       ?Create@?$ScriptRegistrant@VM01_GDIBase_BaseCommander_JDG@@@@UAEPAVScriptImpClass@@XZ 100b4f50 f i Mission01.obj
 0001:000b3ff0       ??0?$ScriptRegistrant@VM01_Base_GDI_Grenadier_JDG@@@@QAE@PBD0@Z 100b4ff0 f i Mission01.obj
 0001:000b4030       ?Create@?$ScriptRegistrant@VM01_Base_GDI_Grenadier_JDG@@@@UAEPAVScriptImpClass@@XZ 100b5030 f i Mission01.obj
 0001:000b40d0       ??0?$ScriptRegistrant@VM01_MediumTank_ReminderZone_JDG@@@@QAE@PBD0@Z 100b50d0 f i Mission01.obj
 0001:000b4110       ?Create@?$ScriptRegistrant@VM01_MediumTank_ReminderZone_JDG@@@@UAEPAVScriptImpClass@@XZ 100b5110 f i Mission01.obj
 0001:000b41b0       ??0?$ScriptRegistrant@VM01_Base_POW01_JDG@@@@QAE@PBD0@Z 100b51b0 f i Mission01.obj
 0001:000b41f0       ?Create@?$ScriptRegistrant@VM01_Base_POW01_JDG@@@@UAEPAVScriptImpClass@@XZ 100b51f0 f i Mission01.obj
 0001:000b4290       ??0?$ScriptRegistrant@VM01_Base_POW02_JDG@@@@QAE@PBD0@Z 100b5290 f i Mission01.obj
 0001:000b42d0       ?Create@?$ScriptRegistrant@VM01_Base_POW02_JDG@@@@UAEPAVScriptImpClass@@XZ 100b52d0 f i Mission01.obj
 0001:000b4370       ??0?$ScriptRegistrant@VM01_GDIBase_POW_Conversation_Controller_JDG@@@@QAE@PBD0@Z 100b5370 f i Mission01.obj
 0001:000b43b0       ?Create@?$ScriptRegistrant@VM01_GDIBase_POW_Conversation_Controller_JDG@@@@UAEPAVScriptImpClass@@XZ 100b53b0 f i Mission01.obj
 0001:000b4450       ??0?$ScriptRegistrant@VM01_GDI_BeachGuy01_JDG@@@@QAE@PBD0@Z 100b5450 f i Mission01.obj
 0001:000b4490       ?Create@?$ScriptRegistrant@VM01_GDI_BeachGuy01_JDG@@@@UAEPAVScriptImpClass@@XZ 100b5490 f i Mission01.obj
 0001:000b4530       ??0?$ScriptRegistrant@VM01_Announce_TankAirstrikeZone_JDG@@@@QAE@PBD0@Z 100b5530 f i Mission01.obj
 0001:000b4570       ?Create@?$ScriptRegistrant@VM01_Announce_TankAirstrikeZone_JDG@@@@UAEPAVScriptImpClass@@XZ 100b5570 f i Mission01.obj
 0001:000b4610       ??0?$ScriptRegistrant@VM01_GDI_GuardTower_02_Enter_Zone_JDG@@@@QAE@PBD0@Z 100b5610 f i Mission01.obj
 0001:000b4650       ?Create@?$ScriptRegistrant@VM01_GDI_GuardTower_02_Enter_Zone_JDG@@@@UAEPAVScriptImpClass@@XZ 100b5650 f i Mission01.obj
 0001:000b46f0       ??0?$ScriptRegistrant@VM01_GDI_GuardTower02_SniperRifle_JDG@@@@QAE@PBD0@Z 100b56f0 f i Mission01.obj
 0001:000b4730       ?Create@?$ScriptRegistrant@VM01_GDI_GuardTower02_SniperRifle_JDG@@@@UAEPAVScriptImpClass@@XZ 100b5730 f i Mission01.obj
 0001:000b47d0       ??0?$ScriptRegistrant@VM01_GuardTower02_Sniper_Target01_JDG@@@@QAE@PBD0@Z 100b57d0 f i Mission01.obj
 0001:000b4810       ?Create@?$ScriptRegistrant@VM01_GuardTower02_Sniper_Target01_JDG@@@@UAEPAVScriptImpClass@@XZ 100b5810 f i Mission01.obj
 0001:000b48b0       ??0?$ScriptRegistrant@VM01_GuardTower02_Sniper_TowerZone_JDG@@@@QAE@PBD0@Z 100b58b0 f i Mission01.obj
 0001:000b48f0       ?Create@?$ScriptRegistrant@VM01_GuardTower02_Sniper_TowerZone_JDG@@@@UAEPAVScriptImpClass@@XZ 100b58f0 f i Mission01.obj
 0001:000b4990       ??0?$ScriptRegistrant@VM01_GuardTower02_NewSniperTarget_JDG@@@@QAE@PBD0@Z 100b5990 f i Mission01.obj
 0001:000b49d0       ?Create@?$ScriptRegistrant@VM01_GuardTower02_NewSniperTarget_JDG@@@@UAEPAVScriptImpClass@@XZ 100b59d0 f i Mission01.obj
 0001:000b4a70       ??0?$ScriptRegistrant@VM01_GuardTower02_Sniper_Target02_JDG@@@@QAE@PBD0@Z 100b5a70 f i Mission01.obj
 0001:000b4ab0       ?Create@?$ScriptRegistrant@VM01_GuardTower02_Sniper_Target02_JDG@@@@UAEPAVScriptImpClass@@XZ 100b5ab0 f i Mission01.obj
 0001:000b4b50       ??0?$ScriptRegistrant@VM01_TurnOff_TankReminder_Zone_JDG@@@@QAE@PBD0@Z 100b5b50 f i Mission01.obj
 0001:000b4b90       ?Create@?$ScriptRegistrant@VM01_TurnOff_TankReminder_Zone_JDG@@@@UAEPAVScriptImpClass@@XZ 100b5b90 f i Mission01.obj
 0001:000b4c30       ??0?$ScriptRegistrant@VM01_HON_Escorts_Warroom_MCT_ZoneController_JDG@@@@QAE@PBD0@Z 100b5c30 f i Mission01.obj
 0001:000b4c70       ?Create@?$ScriptRegistrant@VM01_HON_Escorts_Warroom_MCT_ZoneController_JDG@@@@UAEPAVScriptImpClass@@XZ 100b5c70 f i Mission01.obj
 0001:000b4d10       ??0?$ScriptRegistrant@VM01_HON_Chinook_Spawned_Soldier_01_GDI_JDG@@@@QAE@PBD0@Z 100b5d10 f i Mission01.obj
 0001:000b4d50       ?Create@?$ScriptRegistrant@VM01_HON_Chinook_Spawned_Soldier_01_GDI_JDG@@@@UAEPAVScriptImpClass@@XZ 100b5d50 f i Mission01.obj
 0001:000b4df0       ??0?$ScriptRegistrant@VM01_HON_Chinook_Spawned_Soldier_02_GDI_JDG@@@@QAE@PBD0@Z 100b5df0 f i Mission01.obj
 0001:000b4e30       ?Create@?$ScriptRegistrant@VM01_HON_Chinook_Spawned_Soldier_02_GDI_JDG@@@@UAEPAVScriptImpClass@@XZ 100b5e30 f i Mission01.obj
 0001:000b4ed0       ??0?$ScriptRegistrant@VM01_GiveMCTSpeech_Zone_JDG@@@@QAE@PBD0@Z 100b5ed0 f i Mission01.obj
 0001:000b4f10       ?Create@?$ScriptRegistrant@VM01_GiveMCTSpeech_Zone_JDG@@@@UAEPAVScriptImpClass@@XZ 100b5f10 f i Mission01.obj
 0001:000b4fb0       ??0?$ScriptRegistrant@VM01_Havoc_In_WarroomZone_JDG@@@@QAE@PBD0@Z 100b5fb0 f i Mission01.obj
 0001:000b4ff0       ?Create@?$ScriptRegistrant@VM01_Havoc_In_WarroomZone_JDG@@@@UAEPAVScriptImpClass@@XZ 100b5ff0 f i Mission01.obj
 0001:000b5090       ??0?$ScriptRegistrant@VM01_Havoc_Out_WarroomZone_JDG@@@@QAE@PBD0@Z 100b6090 f i Mission01.obj
 0001:000b50d0       ?Create@?$ScriptRegistrant@VM01_Havoc_Out_WarroomZone_JDG@@@@UAEPAVScriptImpClass@@XZ 100b60d0 f i Mission01.obj
 0001:000b5170       ??0?$ScriptRegistrant@VM01_HON_WarroomController_JDG@@@@QAE@PBD0@Z 100b6170 f i Mission01.obj
 0001:000b51b0       ?Create@?$ScriptRegistrant@VM01_HON_WarroomController_JDG@@@@UAEPAVScriptImpClass@@XZ 100b61b0 f i Mission01.obj
 0001:000b5250       ??0?$ScriptRegistrant@VM01_Medium_Tank01_JDG@@@@QAE@PBD0@Z 100b6250 f i Mission01.obj
 0001:000b5290       ?Create@?$ScriptRegistrant@VM01_Medium_Tank01_JDG@@@@UAEPAVScriptImpClass@@XZ 100b6290 f i Mission01.obj
 0001:000b5330       ??0?$ScriptRegistrant@VM01_CantBring_MediumTank_ThroughHereZone_JDG@@@@QAE@PBD0@Z 100b6330 f i Mission01.obj
 0001:000b5370       ?Create@?$ScriptRegistrant@VM01_CantBring_MediumTank_ThroughHereZone_JDG@@@@UAEPAVScriptImpClass@@XZ 100b6370 f i Mission01.obj
 0001:000b5410       ??0?$ScriptRegistrant@VM01_Medium_Tank_JDG@@@@QAE@PBD0@Z 100b6410 f i Mission01.obj
 0001:000b5450       ?Create@?$ScriptRegistrant@VM01_Medium_Tank_JDG@@@@UAEPAVScriptImpClass@@XZ 100b6450 f i Mission01.obj
 0001:000b54f0       ??0?$ScriptRegistrant@VM01_TurretBeach_FodderHovercraft_Controller_JDG@@@@QAE@PBD0@Z 100b64f0 f i Mission01.obj
 0001:000b5530       ?Create@?$ScriptRegistrant@VM01_TurretBeach_FodderHovercraft_Controller_JDG@@@@UAEPAVScriptImpClass@@XZ 100b6530 f i Mission01.obj
 0001:000b55d0       ??0?$ScriptRegistrant@VM01_Hovercraft_Explosion_Controller_JDG@@@@QAE@PBD0@Z 100b65d0 f i Mission01.obj
 0001:000b5610       ?Create@?$ScriptRegistrant@VM01_Hovercraft_Explosion_Controller_JDG@@@@UAEPAVScriptImpClass@@XZ 100b6610 f i Mission01.obj
 0001:000b56b0       ??0?$ScriptRegistrant@VM01_FodderHovercraft_Script_JDG@@@@QAE@PBD0@Z 100b66b0 f i Mission01.obj
 0001:000b56f0       ?Create@?$ScriptRegistrant@VM01_FodderHovercraft_Script_JDG@@@@UAEPAVScriptImpClass@@XZ 100b66f0 f i Mission01.obj
 0001:000b5790       ??0?$ScriptRegistrant@VM01_Beach_Datadisc_JDG@@@@QAE@PBD0@Z 100b6790 f i Mission01.obj
 0001:000b57d0       ?Create@?$ScriptRegistrant@VM01_Beach_Datadisc_JDG@@@@UAEPAVScriptImpClass@@XZ 100b67d0 f i Mission01.obj
 0001:000b5870       ??0?$ScriptRegistrant@VM01_TibCave01_Datadisc_JDG@@@@QAE@PBD0@Z 100b6870 f i Mission01.obj
 0001:000b58b0       ?Create@?$ScriptRegistrant@VM01_TibCave01_Datadisc_JDG@@@@UAEPAVScriptImpClass@@XZ 100b68b0 f i Mission01.obj
 0001:000b5950       ??0?$ScriptRegistrant@VM01_Shed_Datadisc_JDG@@@@QAE@PBD0@Z 100b6950 f i Mission01.obj
 0001:000b5990       ?Create@?$ScriptRegistrant@VM01_Shed_Datadisc_JDG@@@@UAEPAVScriptImpClass@@XZ 100b6990 f i Mission01.obj
 0001:000b5a30       ??0?$ScriptRegistrant@VM01_TibCave02_Datadisc_JDG@@@@QAE@PBD0@Z 100b6a30 f i Mission01.obj
 0001:000b5a70       ?Create@?$ScriptRegistrant@VM01_TibCave02_Datadisc_JDG@@@@UAEPAVScriptImpClass@@XZ 100b6a70 f i Mission01.obj
 0001:000b5b10       ??0?$ScriptRegistrant@VM01_Priest_Datadisc_JDG@@@@QAE@PBD0@Z 100b6b10 f i Mission01.obj
 0001:000b5b50       ?Create@?$ScriptRegistrant@VM01_Priest_Datadisc_JDG@@@@UAEPAVScriptImpClass@@XZ 100b6b50 f i Mission01.obj
 0001:000b5bf0       ??0?$ScriptRegistrant@VM01_Medlab_Datadisc_JDG@@@@QAE@PBD0@Z 100b6bf0 f i Mission01.obj
 0001:000b5c30       ?Create@?$ScriptRegistrant@VM01_Medlab_Datadisc_JDG@@@@UAEPAVScriptImpClass@@XZ 100b6c30 f i Mission01.obj
 0001:000b5cd0       ??0?$ScriptRegistrant@VM01_DataDisc_TextController_JDG@@@@QAE@PBD0@Z 100b6cd0 f i Mission01.obj
 0001:000b5d10       ?Create@?$ScriptRegistrant@VM01_DataDisc_TextController_JDG@@@@UAEPAVScriptImpClass@@XZ 100b6d10 f i Mission01.obj
 0001:000b5db0       ??0?$ScriptRegistrant@VM01_Duncan_Assailer_JDG@@@@QAE@PBD0@Z 100b6db0 f i Mission01.obj
 0001:000b5df0       ?Create@?$ScriptRegistrant@VM01_Duncan_Assailer_JDG@@@@UAEPAVScriptImpClass@@XZ 100b6df0 f i Mission01.obj
 0001:000b5e90       ??0?$ScriptRegistrant@VM01_Duncan_InHere_ConvController_JDG@@@@QAE@PBD0@Z 100b6e90 f i Mission01.obj
 0001:000b5ed0       ?Create@?$ScriptRegistrant@VM01_Duncan_InHere_ConvController_JDG@@@@UAEPAVScriptImpClass@@XZ 100b6ed0 f i Mission01.obj
 0001:000b5f70       ??0?$ScriptRegistrant@VM01_BackPath_EntranceZone_JDG@@@@QAE@PBD0@Z 100b6f70 f i Mission01.obj
 0001:000b5fb0       ?Create@?$ScriptRegistrant@VM01_BackPath_EntranceZone_JDG@@@@UAEPAVScriptImpClass@@XZ 100b6fb0 f i Mission01.obj
 0001:000b6050       ??0?$ScriptRegistrant@VM01_Base_GDI_Minigunner_JDG@@@@QAE@PBD0@Z 100b7050 f i Mission01.obj
 0001:000b6090       ?Create@?$ScriptRegistrant@VM01_Base_GDI_Minigunner_JDG@@@@UAEPAVScriptImpClass@@XZ 100b7090 f i Mission01.obj
 0001:000b6130       ??_G?$ScriptRegistrant@VM01_Mission_Controller_JDG@@@@UAEPAXI@Z 100b7130 f i Mission01.obj
 0001:000b6130       ??_E?$ScriptRegistrant@VM01_Mission_Controller_JDG@@@@UAEPAXI@Z 100b7130 f i Mission01.obj
 0001:000b6180       ??0M01_Mission_Controller_JDG@@QAE@XZ 100b7180 f i Mission01.obj
 0001:000b61b0       ?Register_Auto_Save_Variables@M01_Mission_Controller_JDG@@UAEXXZ 100b71b0 f i Mission01.obj
 0001:000b6a80       ?Created@M01_Mission_Controller_JDG@@UAEXPAVScriptableGameObj@@@Z 100b7a80 f i Mission01.obj
 0001:000b6f40       ?Custom@M01_Mission_Controller_JDG@@UAEXPAVScriptableGameObj@@HH0@Z 100b7f40 f i Mission01.obj
 0001:000bd2f0       ?Action_Complete@M01_Mission_Controller_JDG@@UAEXPAVScriptableGameObj@@HW4ActionCompleteReason@@@Z 100be2f0 f i Mission01.obj
 0001:000bd6f0       ??_G?$ScriptRegistrant@VM01_HON_Medlab_DropOff_Guy_JDG@@@@UAEPAXI@Z 100be6f0 f i Mission01.obj
 0001:000bd6f0       ??_E?$ScriptRegistrant@VM01_HON_Medlab_DropOff_Guy_JDG@@@@UAEPAXI@Z 100be6f0 f i Mission01.obj
 0001:000bd740       ??0M01_HON_Medlab_DropOff_Guy_JDG@@QAE@XZ 100be740 f i Mission01.obj
 0001:000bd770       ?Created@M01_HON_Medlab_DropOff_Guy_JDG@@EAEXPAVScriptableGameObj@@@Z 100be770 f i Mission01.obj
 0001:000bd7c0       ?Animation_Complete@M01_HON_Medlab_DropOff_Guy_JDG@@EAEXPAVScriptableGameObj@@PBD@Z 100be7c0 f i Mission01.obj
 0001:000bd880       ?Action_Complete@M01_HON_Medlab_DropOff_Guy_JDG@@EAEXPAVScriptableGameObj@@HW4ActionCompleteReason@@@Z 100be880 f i Mission01.obj
 0001:000bd960       ??_G?$ScriptRegistrant@VM01_Hand_of_Nod_Building_Script_JDG@@@@UAEPAXI@Z 100be960 f i Mission01.obj
 0001:000bd960       ??_E?$ScriptRegistrant@VM01_Hand_of_Nod_Building_Script_JDG@@@@UAEPAXI@Z 100be960 f i Mission01.obj
 0001:000bd9b0       ??0M01_Hand_of_Nod_Building_Script_JDG@@QAE@XZ 100be9b0 f i Mission01.obj
 0001:000bd9e0       ?Register_Auto_Save_Variables@M01_Hand_of_Nod_Building_Script_JDG@@UAEXXZ 100be9e0 f i Mission01.obj
 0001:000bda10       ?Created@M01_Hand_of_Nod_Building_Script_JDG@@UAEXPAVScriptableGameObj@@@Z 100bea10 f i Mission01.obj
 0001:000bda80       ?Killed@M01_Hand_of_Nod_Building_Script_JDG@@UAEXPAVScriptableGameObj@@0@Z 100bea80 f i Mission01.obj
 0001:000bdbc0       ?Damaged@M01_Hand_of_Nod_Building_Script_JDG@@UAEXPAVScriptableGameObj@@0M@Z 100bebc0 f i Mission01.obj
 0001:000bdcc0       ??_G?$ScriptRegistrant@VM01_Flyover_Generic_Script_JDG@@@@UAEPAXI@Z 100becc0 f i Mission01.obj
 0001:000bdcc0       ??_E?$ScriptRegistrant@VM01_Flyover_Generic_Script_JDG@@@@UAEPAXI@Z 100becc0 f i Mission01.obj
 0001:000bdd10       ??0M01_Flyover_Generic_Script_JDG@@QAE@XZ 100bed10 f i Mission01.obj
 0001:000bdd40       ?Created@M01_Flyover_Generic_Script_JDG@@EAEXPAVScriptableGameObj@@@Z 100bed40 f i Mission01.obj
 0001:000bde70       ??_E?$ScriptRegistrant@VM01_Ambient_Sound_Controller_JDG@@@@UAEPAXI@Z 100bee70 f i Mission01.obj
 0001:000bde70       ??_G?$ScriptRegistrant@VM01_Ambient_Sound_Controller_JDG@@@@UAEPAXI@Z 100bee70 f i Mission01.obj
 0001:000bdec0       ??0M01_Ambient_Sound_Controller_JDG@@QAE@XZ 100beec0 f i Mission01.obj
 0001:000bdef0       ?Register_Auto_Save_Variables@M01_Ambient_Sound_Controller_JDG@@UAEXXZ 100beef0 f i Mission01.obj
 0001:000be000       ?Created@M01_Ambient_Sound_Controller_JDG@@UAEXPAVScriptableGameObj@@@Z 100bf000 f i Mission01.obj
 0001:000be0c0       ?Custom@M01_Ambient_Sound_Controller_JDG@@UAEXPAVScriptableGameObj@@HH0@Z 100bf0c0 f i Mission01.obj
 0001:000becf0       ??_E?$ScriptRegistrant@VM01_Entering_Church_Area_Zone@@@@UAEPAXI@Z 100bfcf0 f i Mission01.obj
 0001:000becf0       ??_G?$ScriptRegistrant@VM01_Entering_Church_Area_Zone@@@@UAEPAXI@Z 100bfcf0 f i Mission01.obj
 0001:000bed40       ??0M01_Entering_Church_Area_Zone@@QAE@XZ 100bfd40 f i Mission01.obj
 0001:000bed70       ?Entered@M01_Entering_Church_Area_Zone@@EAEXPAVScriptableGameObj@@0@Z 100bfd70 f i Mission01.obj
 0001:000beec0       ??_G?$ScriptRegistrant@VM01_Hand_Of_Nod_Interior_Zone@@@@UAEPAXI@Z 100bfec0 f i Mission01.obj
 0001:000beec0       ??_E?$ScriptRegistrant@VM01_Hand_Of_Nod_Interior_Zone@@@@UAEPAXI@Z 100bfec0 f i Mission01.obj
 0001:000bef10       ??0M01_Hand_Of_Nod_Interior_Zone@@QAE@XZ 100bff10 f i Mission01.obj
 0001:000bef40       ?Entered@M01_Hand_Of_Nod_Interior_Zone@@EAEXPAVScriptableGameObj@@0@Z 100bff40 f i Mission01.obj
 0001:000befd0       ??_E?$ScriptRegistrant@VM01_Hand_Of_Nod_Exterior_Zone@@@@UAEPAXI@Z 100bffd0 f i Mission01.obj
 0001:000befd0       ??_G?$ScriptRegistrant@VM01_Hand_Of_Nod_Exterior_Zone@@@@UAEPAXI@Z 100bffd0 f i Mission01.obj
 0001:000bf020       ??0M01_Hand_Of_Nod_Exterior_Zone@@QAE@XZ 100c0020 f i Mission01.obj
 0001:000bf050       ?Entered@M01_Hand_Of_Nod_Exterior_Zone@@EAEXPAVScriptableGameObj@@0@Z 100c0050 f i Mission01.obj
 0001:000bf0e0       ??_G?$ScriptRegistrant@VM01_Comm_Center_Interior_Zone@@@@UAEPAXI@Z 100c00e0 f i Mission01.obj
 0001:000bf0e0       ??_E?$ScriptRegistrant@VM01_Comm_Center_Interior_Zone@@@@UAEPAXI@Z 100c00e0 f i Mission01.obj
 0001:000bf130       ??0M01_Comm_Center_Interior_Zone@@QAE@XZ 100c0130 f i Mission01.obj
 0001:000bf160       ?Entered@M01_Comm_Center_Interior_Zone@@EAEXPAVScriptableGameObj@@0@Z 100c0160 f i Mission01.obj
 0001:000bf1f0       ??_E?$ScriptRegistrant@VM01_Comm_Center_Exterior_Zone@@@@UAEPAXI@Z 100c01f0 f i Mission01.obj
 0001:000bf1f0       ??_G?$ScriptRegistrant@VM01_Comm_Center_Exterior_Zone@@@@UAEPAXI@Z 100c01f0 f i Mission01.obj
 0001:000bf240       ??0M01_Comm_Center_Exterior_Zone@@QAE@XZ 100c0240 f i Mission01.obj
 0001:000bf270       ?Entered@M01_Comm_Center_Exterior_Zone@@EAEXPAVScriptableGameObj@@0@Z 100c0270 f i Mission01.obj
 0001:000bf300       ??_E?$ScriptRegistrant@VM01_Tunnel_Interior_Zone@@@@UAEPAXI@Z 100c0300 f i Mission01.obj
 0001:000bf300       ??_G?$ScriptRegistrant@VM01_Tunnel_Interior_Zone@@@@UAEPAXI@Z 100c0300 f i Mission01.obj
 0001:000bf350       ??0M01_Tunnel_Interior_Zone@@QAE@XZ 100c0350 f i Mission01.obj
 0001:000bf380       ?Entered@M01_Tunnel_Interior_Zone@@EAEXPAVScriptableGameObj@@0@Z 100c0380 f i Mission01.obj
 0001:000bf410       ??_G?$ScriptRegistrant@VM01_Tunnel_Exterior_Zone@@@@UAEPAXI@Z 100c0410 f i Mission01.obj
 0001:000bf410       ??_E?$ScriptRegistrant@VM01_Tunnel_Exterior_Zone@@@@UAEPAXI@Z 100c0410 f i Mission01.obj
 0001:000bf460       ??0M01_Tunnel_Exterior_Zone@@QAE@XZ 100c0460 f i Mission01.obj
 0001:000bf490       ?Entered@M01_Tunnel_Exterior_Zone@@EAEXPAVScriptableGameObj@@0@Z 100c0490 f i Mission01.obj
 0001:000bf520       ??_E?$ScriptRegistrant@VM01_Waterfall_Interior_Zone@@@@UAEPAXI@Z 100c0520 f i Mission01.obj
 0001:000bf520       ??_G?$ScriptRegistrant@VM01_Waterfall_Interior_Zone@@@@UAEPAXI@Z 100c0520 f i Mission01.obj
 0001:000bf570       ??0M01_Waterfall_Interior_Zone@@QAE@XZ 100c0570 f i Mission01.obj
 0001:000bf5a0       ?Entered@M01_Waterfall_Interior_Zone@@EAEXPAVScriptableGameObj@@0@Z 100c05a0 f i Mission01.obj
 0001:000bf630       ??_G?$ScriptRegistrant@VM01_Waterfall_Exterior_Zone@@@@UAEPAXI@Z 100c0630 f i Mission01.obj
 0001:000bf630       ??_E?$ScriptRegistrant@VM01_Waterfall_Exterior_Zone@@@@UAEPAXI@Z 100c0630 f i Mission01.obj
 0001:000bf680       ??0M01_Waterfall_Exterior_Zone@@QAE@XZ 100c0680 f i Mission01.obj
 0001:000bf6b0       ?Entered@M01_Waterfall_Exterior_Zone@@EAEXPAVScriptableGameObj@@0@Z 100c06b0 f i Mission01.obj
 0001:000bf740       ??_E?$ScriptRegistrant@VM01_Player_is_Leaving_GDI_Base_Zone@@@@UAEPAXI@Z 100c0740 f i Mission01.obj
 0001:000bf740       ??_G?$ScriptRegistrant@VM01_Player_is_Leaving_GDI_Base_Zone@@@@UAEPAXI@Z 100c0740 f i Mission01.obj
 0001:000bf790       ??0M01_Player_is_Leaving_GDI_Base_Zone@@QAE@XZ 100c0790 f i Mission01.obj
 0001:000bf7c0       ?Register_Auto_Save_Variables@M01_Player_is_Leaving_GDI_Base_Zone@@UAEXXZ 100c07c0 f i Mission01.obj
 0001:000bf7f0       ?Created@M01_Player_is_Leaving_GDI_Base_Zone@@UAEXPAVScriptableGameObj@@@Z 100c07f0 f i Mission01.obj
 0001:000bf820       ?Entered@M01_Player_is_Leaving_GDI_Base_Zone@@UAEXPAVScriptableGameObj@@0@Z 100c0820 f i Mission01.obj
 0001:000bf910       ??_G?$ScriptRegistrant@VM01_Player_is_Entering_GDI_Base_Zone@@@@UAEPAXI@Z 100c0910 f i Mission01.obj
 0001:000bf910       ??_E?$ScriptRegistrant@VM01_Player_is_Entering_GDI_Base_Zone@@@@UAEPAXI@Z 100c0910 f i Mission01.obj
 0001:000bf960       ??0M01_Player_is_Entering_GDI_Base_Zone@@QAE@XZ 100c0960 f i Mission01.obj
 0001:000bf990       ?Entered@M01_Player_is_Entering_GDI_Base_Zone@@EAEXPAVScriptableGameObj@@0@Z 100c0990 f i Mission01.obj
 0001:000bfa20       ??_E?$ScriptRegistrant@VM01_Lose_Any_Church_Escorts_Zone@@@@UAEPAXI@Z 100c0a20 f i Mission01.obj
 0001:000bfa20       ??_G?$ScriptRegistrant@VM01_Lose_Any_Church_Escorts_Zone@@@@UAEPAXI@Z 100c0a20 f i Mission01.obj
 0001:000bfa70       ??0M01_Lose_Any_Church_Escorts_Zone@@QAE@XZ 100c0a70 f i Mission01.obj
 0001:000bfaa0       ?Entered@M01_Lose_Any_Church_Escorts_Zone@@EAEXPAVScriptableGameObj@@0@Z 100c0aa0 f i Mission01.obj
 0001:000bfb30       ??_G?$ScriptRegistrant@VM01_Lose_Any_Church_Escorts_Zone_02@@@@UAEPAXI@Z 100c0b30 f i Mission01.obj
 0001:000bfb30       ??_E?$ScriptRegistrant@VM01_Lose_Any_Church_Escorts_Zone_02@@@@UAEPAXI@Z 100c0b30 f i Mission01.obj
 0001:000bfb80       ??0M01_Lose_Any_Church_Escorts_Zone_02@@QAE@XZ 100c0b80 f i Mission01.obj
 0001:000bfbb0       ?Entered@M01_Lose_Any_Church_Escorts_Zone_02@@EAEXPAVScriptableGameObj@@0@Z 100c0bb0 f i Mission01.obj
 0001:000bfc40       ??_G?$ScriptRegistrant@VM01_Lose_Any_HON_Escorts_Zone@@@@UAEPAXI@Z 100c0c40 f i Mission01.obj
 0001:000bfc40       ??_E?$ScriptRegistrant@VM01_Lose_Any_HON_Escorts_Zone@@@@UAEPAXI@Z 100c0c40 f i Mission01.obj
 0001:000bfc90       ??0M01_Lose_Any_HON_Escorts_Zone@@QAE@XZ 100c0c90 f i Mission01.obj
 0001:000bfcc0       ?Entered@M01_Lose_Any_HON_Escorts_Zone@@EAEXPAVScriptableGameObj@@0@Z 100c0cc0 f i Mission01.obj
 0001:000bfd50       ??_E?$ScriptRegistrant@VM01_Lose_Any_HON_Escorts_Zone_02@@@@UAEPAXI@Z 100c0d50 f i Mission01.obj
 0001:000bfd50       ??_G?$ScriptRegistrant@VM01_Lose_Any_HON_Escorts_Zone_02@@@@UAEPAXI@Z 100c0d50 f i Mission01.obj
 0001:000bfda0       ??0M01_Lose_Any_HON_Escorts_Zone_02@@QAE@XZ 100c0da0 f i Mission01.obj
 0001:000bfdd0       ?Entered@M01_Lose_Any_HON_Escorts_Zone_02@@EAEXPAVScriptableGameObj@@0@Z 100c0dd0 f i Mission01.obj
 0001:000bfe60       ??_G?$ScriptRegistrant@VM01_Announce_Prisoner_Objective_Zone@@@@UAEPAXI@Z 100c0e60 f i Mission01.obj
 0001:000bfe60       ??_E?$ScriptRegistrant@VM01_Announce_Prisoner_Objective_Zone@@@@UAEPAXI@Z 100c0e60 f i Mission01.obj
 0001:000bfeb0       ??0M01_Announce_Prisoner_Objective_Zone@@QAE@XZ 100c0eb0 f i Mission01.obj
 0001:000bfee0       ?Entered@M01_Announce_Prisoner_Objective_Zone@@EAEXPAVScriptableGameObj@@0@Z 100c0ee0 f i Mission01.obj
 0001:000bff80       ??_E?$ScriptRegistrant@VM01_Scramble_Radar_Zone@@@@UAEPAXI@Z 100c0f80 f i Mission01.obj
 0001:000bff80       ??_G?$ScriptRegistrant@VM01_Scramble_Radar_Zone@@@@UAEPAXI@Z 100c0f80 f i Mission01.obj
 0001:000bffd0       ??0M01_Scramble_Radar_Zone@@QAE@XZ 100c0fd0 f i Mission01.obj
 0001:000c0000       ?Entered@M01_Scramble_Radar_Zone@@EAEXPAVScriptableGameObj@@0@Z 100c1000 f i Mission01.obj
 0001:000c0090       ??_G?$ScriptRegistrant@VM01_UnScramble_Radar_Zone@@@@UAEPAXI@Z 100c1090 f i Mission01.obj
 0001:000c0090       ??_E?$ScriptRegistrant@VM01_UnScramble_Radar_Zone@@@@UAEPAXI@Z 100c1090 f i Mission01.obj
 0001:000c00e0       ??0M01_UnScramble_Radar_Zone@@QAE@XZ 100c10e0 f i Mission01.obj
 0001:000c0110       ?Entered@M01_UnScramble_Radar_Zone@@EAEXPAVScriptableGameObj@@0@Z 100c1110 f i Mission01.obj
 0001:000c01a0       ??_E?$ScriptRegistrant@VM01_HON_Commander_Guy@@@@UAEPAXI@Z 100c11a0 f i Mission01.obj
 0001:000c01a0       ??_G?$ScriptRegistrant@VM01_HON_Commander_Guy@@@@UAEPAXI@Z 100c11a0 f i Mission01.obj
 0001:000c01f0       ??0M01_HON_Commander_Guy@@QAE@XZ 100c11f0 f i Mission01.obj
 0001:000c0220       ?Killed@M01_HON_Commander_Guy@@EAEXPAVScriptableGameObj@@0@Z 100c1220 f i Mission01.obj
 0001:000c0280       ??_E?$ScriptRegistrant@VM01_COMM_Commander_Guy@@@@UAEPAXI@Z 100c1280 f i Mission01.obj
 0001:000c0280       ??_G?$ScriptRegistrant@VM01_COMM_Commander_Guy@@@@UAEPAXI@Z 100c1280 f i Mission01.obj
 0001:000c02d0       ??0M01_COMM_Commander_Guy@@QAE@XZ 100c12d0 f i Mission01.obj
 0001:000c0300       ?Killed@M01_COMM_Commander_Guy@@EAEXPAVScriptableGameObj@@0@Z 100c1300 f i Mission01.obj
 0001:000c0360       ??_G?$ScriptRegistrant@VM01_HandOfNod_SAMSite_Script@@@@UAEPAXI@Z 100c1360 f i Mission01.obj
 0001:000c0360       ??_E?$ScriptRegistrant@VM01_HandOfNod_SAMSite_Script@@@@UAEPAXI@Z 100c1360 f i Mission01.obj
 0001:000c03b0       ??0M01_HandOfNod_SAMSite_Script@@QAE@XZ 100c13b0 f i Mission01.obj
 0001:000c03e0       ?Damaged@M01_HandOfNod_SAMSite_Script@@EAEXPAVScriptableGameObj@@0M@Z 100c13e0 f i Mission01.obj
 0001:000c0480       ?Killed@M01_HandOfNod_SAMSite_Script@@EAEXPAVScriptableGameObj@@0@Z 100c1480 f i Mission01.obj
 0001:000c04e0       ??_E?$ScriptRegistrant@VM01_Destroyed_SAMSITE_JDG@@@@UAEPAXI@Z 100c14e0 f i Mission01.obj
 0001:000c04e0       ??_G?$ScriptRegistrant@VM01_Destroyed_SAMSITE_JDG@@@@UAEPAXI@Z 100c14e0 f i Mission01.obj
 0001:000c0530       ??0M01_Destroyed_SAMSITE_JDG@@QAE@XZ 100c1530 f i Mission01.obj
 0001:000c0560       ?Created@M01_Destroyed_SAMSITE_JDG@@EAEXPAVScriptableGameObj@@@Z 100c1560 f i Mission01.obj
 0001:000c0630       ??_E?$ScriptRegistrant@VM01_CommCenter_Evacuator_JDG@@@@UAEPAXI@Z 100c1630 f i Mission01.obj
 0001:000c0630       ??_G?$ScriptRegistrant@VM01_CommCenter_Evacuator_JDG@@@@UAEPAXI@Z 100c1630 f i Mission01.obj
 0001:000c0680       ??0M01_CommCenter_Evacuator_JDG@@QAE@XZ 100c1680 f i Mission01.obj
 0001:000c06b0       ?Created@M01_CommCenter_Evacuator_JDG@@EAEXPAVScriptableGameObj@@@Z 100c16b0 f i Mission01.obj
 0001:000c0880       ?Set@Vector3@@QAEXMMM@Z    100c1880 f i Mission01.obj
 0001:000c08c0       ?Damaged@M01_CommCenter_Evacuator_JDG@@EAEXPAVScriptableGameObj@@0M@Z 100c18c0 f i Mission01.obj
 0001:000c0960       ?Action_Complete@M01_CommCenter_Evacuator_JDG@@EAEXPAVScriptableGameObj@@HW4ActionCompleteReason@@@Z 100c1960 f i Mission01.obj
 0001:000c09b0       ??_G?$ScriptRegistrant@VM01_HON_FrontDoor_Evacuator_JDG@@@@UAEPAXI@Z 100c19b0 f i Mission01.obj
 0001:000c09b0       ??_E?$ScriptRegistrant@VM01_HON_FrontDoor_Evacuator_JDG@@@@UAEPAXI@Z 100c19b0 f i Mission01.obj
 0001:000c0a00       ??0M01_HON_FrontDoor_Evacuator_JDG@@QAE@XZ 100c1a00 f i Mission01.obj
 0001:000c0a30       ?Created@M01_HON_FrontDoor_Evacuator_JDG@@EAEXPAVScriptableGameObj@@@Z 100c1a30 f i Mission01.obj
 0001:000c0af0       ?Damaged@M01_HON_FrontDoor_Evacuator_JDG@@EAEXPAVScriptableGameObj@@0M@Z 100c1af0 f i Mission01.obj
 0001:000c0b90       ?Action_Complete@M01_HON_FrontDoor_Evacuator_JDG@@EAEXPAVScriptableGameObj@@HW4ActionCompleteReason@@@Z 100c1b90 f i Mission01.obj
 0001:000c0de0       ??_E?$ScriptRegistrant@VM01_HON_BackDoor_Evacuator_JDG@@@@UAEPAXI@Z 100c1de0 f i Mission01.obj
 0001:000c0de0       ??_G?$ScriptRegistrant@VM01_HON_BackDoor_Evacuator_JDG@@@@UAEPAXI@Z 100c1de0 f i Mission01.obj
 0001:000c0e30       ??0M01_HON_BackDoor_Evacuator_JDG@@QAE@XZ 100c1e30 f i Mission01.obj
 0001:000c0e60       ?Created@M01_HON_BackDoor_Evacuator_JDG@@EAEXPAVScriptableGameObj@@@Z 100c1e60 f i Mission01.obj
 0001:000c0fc0       ?Damaged@M01_HON_BackDoor_Evacuator_JDG@@EAEXPAVScriptableGameObj@@0M@Z 100c1fc0 f i Mission01.obj
 0001:000c1060       ?Action_Complete@M01_HON_BackDoor_Evacuator_JDG@@EAEXPAVScriptableGameObj@@HW4ActionCompleteReason@@@Z 100c2060 f i Mission01.obj
 0001:000c10b0       ??_E?$ScriptRegistrant@VM01_HON_Dorm_Crapper_JDG@@@@UAEPAXI@Z 100c20b0 f i Mission01.obj
 0001:000c10b0       ??_G?$ScriptRegistrant@VM01_HON_Dorm_Crapper_JDG@@@@UAEPAXI@Z 100c20b0 f i Mission01.obj
 0001:000c1100       ??0M01_HON_Dorm_Crapper_JDG@@QAE@XZ 100c2100 f i Mission01.obj
 0001:000c1130       ?Created@M01_HON_Dorm_Crapper_JDG@@EAEXPAVScriptableGameObj@@@Z 100c2130 f i Mission01.obj
 0001:000c1180       ?Damaged@M01_HON_Dorm_Crapper_JDG@@EAEXPAVScriptableGameObj@@0M@Z 100c2180 f i Mission01.obj
 0001:000c1220       ?Custom@M01_HON_Dorm_Crapper_JDG@@EAEXPAVScriptableGameObj@@HH0@Z 100c2220 f i Mission01.obj
 0001:000c1500       ?Action_Complete@M01_HON_Dorm_Crapper_JDG@@EAEXPAVScriptableGameObj@@HW4ActionCompleteReason@@@Z 100c2500 f i Mission01.obj
 0001:000c1620       ?Killed@M01_HON_Dorm_Crapper_JDG@@EAEXPAVScriptableGameObj@@0@Z 100c2620 f i Mission01.obj
 0001:000c1680       ??_E?$ScriptRegistrant@VM01_HON_Dorm_FlameGuy_JDG@@@@UAEPAXI@Z 100c2680 f i Mission01.obj
 0001:000c1680       ??_G?$ScriptRegistrant@VM01_HON_Dorm_FlameGuy_JDG@@@@UAEPAXI@Z 100c2680 f i Mission01.obj
 0001:000c16d0       ??0M01_HON_Dorm_FlameGuy_JDG@@QAE@XZ 100c26d0 f i Mission01.obj
 0001:000c1700       ?Created@M01_HON_Dorm_FlameGuy_JDG@@EAEXPAVScriptableGameObj@@@Z 100c2700 f i Mission01.obj
 0001:000c1750       ?Damaged@M01_HON_Dorm_FlameGuy_JDG@@EAEXPAVScriptableGameObj@@0M@Z 100c2750 f i Mission01.obj
 0001:000c17f0       ?Custom@M01_HON_Dorm_FlameGuy_JDG@@EAEXPAVScriptableGameObj@@HH0@Z 100c27f0 f i Mission01.obj
 0001:000c1b20       ?Action_Complete@M01_HON_Dorm_FlameGuy_JDG@@EAEXPAVScriptableGameObj@@HW4ActionCompleteReason@@@Z 100c2b20 f i Mission01.obj
 0001:000c1b80       ??_G?$ScriptRegistrant@VM01_HON_Dorm_ChemGuy_JDG@@@@UAEPAXI@Z 100c2b80 f i Mission01.obj
 0001:000c1b80       ??_E?$ScriptRegistrant@VM01_HON_Dorm_ChemGuy_JDG@@@@UAEPAXI@Z 100c2b80 f i Mission01.obj
 0001:000c1bd0       ??0M01_HON_Dorm_ChemGuy_JDG@@QAE@XZ 100c2bd0 f i Mission01.obj
 0001:000c1c00       ?Created@M01_HON_Dorm_ChemGuy_JDG@@EAEXPAVScriptableGameObj@@@Z 100c2c00 f i Mission01.obj
 0001:000c1c50       ?Damaged@M01_HON_Dorm_ChemGuy_JDG@@EAEXPAVScriptableGameObj@@0M@Z 100c2c50 f i Mission01.obj
 0001:000c1cf0       ?Custom@M01_HON_Dorm_ChemGuy_JDG@@EAEXPAVScriptableGameObj@@HH0@Z 100c2cf0 f i Mission01.obj
 0001:000c2020       ?Action_Complete@M01_HON_Dorm_ChemGuy_JDG@@EAEXPAVScriptableGameObj@@HW4ActionCompleteReason@@@Z 100c3020 f i Mission01.obj
 0001:000c2080       ??_G?$ScriptRegistrant@VM01_HON_Dorm_RocketGuy_JDG@@@@UAEPAXI@Z 100c3080 f i Mission01.obj
 0001:000c2080       ??_E?$ScriptRegistrant@VM01_HON_Dorm_RocketGuy_JDG@@@@UAEPAXI@Z 100c3080 f i Mission01.obj
 0001:000c20d0       ??0M01_HON_Dorm_RocketGuy_JDG@@QAE@XZ 100c30d0 f i Mission01.obj
 0001:000c2100       ?Created@M01_HON_Dorm_RocketGuy_JDG@@EAEXPAVScriptableGameObj@@@Z 100c3100 f i Mission01.obj
 0001:000c2150       ?Damaged@M01_HON_Dorm_RocketGuy_JDG@@EAEXPAVScriptableGameObj@@0M@Z 100c3150 f i Mission01.obj
 0001:000c21f0       ?Custom@M01_HON_Dorm_RocketGuy_JDG@@EAEXPAVScriptableGameObj@@HH0@Z 100c31f0 f i Mission01.obj
 0001:000c2520       ?Action_Complete@M01_HON_Dorm_RocketGuy_JDG@@EAEXPAVScriptableGameObj@@HW4ActionCompleteReason@@@Z 100c3520 f i Mission01.obj
 0001:000c2570       ??_E?$ScriptRegistrant@VM01_HON_Dorm_MiniGunner_JDG@@@@UAEPAXI@Z 100c3570 f i Mission01.obj
 0001:000c2570       ??_G?$ScriptRegistrant@VM01_HON_Dorm_MiniGunner_JDG@@@@UAEPAXI@Z 100c3570 f i Mission01.obj
 0001:000c25c0       ??0M01_HON_Dorm_MiniGunner_JDG@@QAE@XZ 100c35c0 f i Mission01.obj
 0001:000c25f0       ?Created@M01_HON_Dorm_MiniGunner_JDG@@EAEXPAVScriptableGameObj@@@Z 100c35f0 f i Mission01.obj
 0001:000c2640       ?Damaged@M01_HON_Dorm_MiniGunner_JDG@@EAEXPAVScriptableGameObj@@0M@Z 100c3640 f i Mission01.obj
 0001:000c26e0       ?Custom@M01_HON_Dorm_MiniGunner_JDG@@EAEXPAVScriptableGameObj@@HH0@Z 100c36e0 f i Mission01.obj
 0001:000c2a10       ?Action_Complete@M01_HON_Dorm_MiniGunner_JDG@@EAEXPAVScriptableGameObj@@HW4ActionCompleteReason@@@Z 100c3a10 f i Mission01.obj
 0001:000c2a60       ??_G?$ScriptRegistrant@VM01_HON_Cafeteria_Eating_Guy_JDG@@@@UAEPAXI@Z 100c3a60 f i Mission01.obj
 0001:000c2a60       ??_E?$ScriptRegistrant@VM01_HON_Cafeteria_Eating_Guy_JDG@@@@UAEPAXI@Z 100c3a60 f i Mission01.obj
 0001:000c2ab0       ??0M01_HON_Cafeteria_Eating_Guy_JDG@@QAE@XZ 100c3ab0 f i Mission01.obj
 0001:000c2ae0       ?Register_Auto_Save_Variables@M01_HON_Cafeteria_Eating_Guy_JDG@@UAEXXZ 100c3ae0 f i Mission01.obj
 0001:000c2b10       ?Created@M01_HON_Cafeteria_Eating_Guy_JDG@@UAEXPAVScriptableGameObj@@@Z 100c3b10 f i Mission01.obj
 0001:000c2b70       ?Damaged@M01_HON_Cafeteria_Eating_Guy_JDG@@UAEXPAVScriptableGameObj@@0M@Z 100c3b70 f i Mission01.obj
 0001:000c2c10       ?Custom@M01_HON_Cafeteria_Eating_Guy_JDG@@UAEXPAVScriptableGameObj@@HH0@Z 100c3c10 f i Mission01.obj
 0001:000c2f40       ?Action_Complete@M01_HON_Cafeteria_Eating_Guy_JDG@@UAEXPAVScriptableGameObj@@HW4ActionCompleteReason@@@Z 100c3f40 f i Mission01.obj
 0001:000c2f90       ??_G?$ScriptRegistrant@VM01_HON_Cafeteria_Walking_Guy_JDG@@@@UAEPAXI@Z 100c3f90 f i Mission01.obj
 0001:000c2f90       ??_E?$ScriptRegistrant@VM01_HON_Cafeteria_Walking_Guy_JDG@@@@UAEPAXI@Z 100c3f90 f i Mission01.obj
 0001:000c2fe0       ??0M01_HON_Cafeteria_Walking_Guy_JDG@@QAE@XZ 100c3fe0 f i Mission01.obj
 0001:000c3010       ?Created@M01_HON_Cafeteria_Walking_Guy_JDG@@EAEXPAVScriptableGameObj@@@Z 100c4010 f i Mission01.obj
 0001:000c3050       ?Damaged@M01_HON_Cafeteria_Walking_Guy_JDG@@EAEXPAVScriptableGameObj@@0M@Z 100c4050 f i Mission01.obj
 0001:000c30f0       ?Custom@M01_HON_Cafeteria_Walking_Guy_JDG@@EAEXPAVScriptableGameObj@@HH0@Z 100c40f0 f i Mission01.obj
 0001:000c3460       ?Action_Complete@M01_HON_Cafeteria_Walking_Guy_JDG@@EAEXPAVScriptableGameObj@@HW4ActionCompleteReason@@@Z 100c4460 f i Mission01.obj
 0001:000c3770       ?Set_Face_Location@ActionParamsStruct@@QAEXABVVector3@@M@Z 100c4770 f i Mission01.obj
 0001:000c37b0       ??_G?$ScriptRegistrant@VM01_Hand_Of_Nod_Grunt_Zone@@@@UAEPAXI@Z 100c47b0 f i Mission01.obj
 0001:000c37b0       ??_E?$ScriptRegistrant@VM01_Hand_Of_Nod_Grunt_Zone@@@@UAEPAXI@Z 100c47b0 f i Mission01.obj
 0001:000c3800       ??0M01_Hand_Of_Nod_Grunt_Zone@@QAE@XZ 100c4800 f i Mission01.obj
 0001:000c3830       ?Entered@M01_Hand_Of_Nod_Grunt_Zone@@EAEXPAVScriptableGameObj@@0@Z 100c4830 f i Mission01.obj
 0001:000c38c0       ??_G?$ScriptRegistrant@VM01_Hand_Of_Nod_Dojo_Zone@@@@UAEPAXI@Z 100c48c0 f i Mission01.obj
 0001:000c38c0       ??_E?$ScriptRegistrant@VM01_Hand_Of_Nod_Dojo_Zone@@@@UAEPAXI@Z 100c48c0 f i Mission01.obj
 0001:000c3910       ??0M01_Hand_Of_Nod_Dojo_Zone@@QAE@XZ 100c4910 f i Mission01.obj
 0001:000c3940       ?Entered@M01_Hand_Of_Nod_Dojo_Zone@@EAEXPAVScriptableGameObj@@0@Z 100c4940 f i Mission01.obj
 0001:000c39d0       ??_E?$ScriptRegistrant@VM01_Church_LoveShack_MiniGunner_JDG@@@@UAEPAXI@Z 100c49d0 f i Mission01.obj
 0001:000c39d0       ??_G?$ScriptRegistrant@VM01_Church_LoveShack_MiniGunner_JDG@@@@UAEPAXI@Z 100c49d0 f i Mission01.obj
 0001:000c3a20       ??0M01_Church_LoveShack_MiniGunner_JDG@@QAE@XZ 100c4a20 f i Mission01.obj
 0001:000c3a50       ?Created@M01_Church_LoveShack_MiniGunner_JDG@@EAEXPAVScriptableGameObj@@@Z 100c4a50 f i Mission01.obj
 0001:000c3a90       ?Damaged@M01_Church_LoveShack_MiniGunner_JDG@@EAEXPAVScriptableGameObj@@0M@Z 100c4a90 f i Mission01.obj
 0001:000c3c10       ?Killed@M01_Church_LoveShack_MiniGunner_JDG@@EAEXPAVScriptableGameObj@@0@Z 100c4c10 f i Mission01.obj
 0001:000c3cd0       ?Custom@M01_Church_LoveShack_MiniGunner_JDG@@EAEXPAVScriptableGameObj@@HH0@Z 100c4cd0 f i Mission01.obj
 0001:000c3db0       ??_G?$ScriptRegistrant@VM01_Church_Exterior_MiniGunner_JDG@@@@UAEPAXI@Z 100c4db0 f i Mission01.obj
 0001:000c3db0       ??_E?$ScriptRegistrant@VM01_Church_Exterior_MiniGunner_JDG@@@@UAEPAXI@Z 100c4db0 f i Mission01.obj
 0001:000c3e00       ??0M01_Church_Exterior_MiniGunner_JDG@@QAE@XZ 100c4e00 f i Mission01.obj
 0001:000c3e30       ?Created@M01_Church_Exterior_MiniGunner_JDG@@EAEXPAVScriptableGameObj@@@Z 100c4e30 f i Mission01.obj
 0001:000c3e70       ?Custom@M01_Church_Exterior_MiniGunner_JDG@@EAEXPAVScriptableGameObj@@HH0@Z 100c4e70 f i Mission01.obj
 0001:000c3f60       ?Damaged@M01_Church_Exterior_MiniGunner_JDG@@EAEXPAVScriptableGameObj@@0M@Z 100c4f60 f i Mission01.obj
 0001:000c40e0       ?Action_Complete@M01_Church_Exterior_MiniGunner_JDG@@EAEXPAVScriptableGameObj@@HW4ActionCompleteReason@@@Z 100c50e0 f i Mission01.obj
 0001:000c4560       ?M01_Choose_Idle_Animation@@YAPADXZ 100c5560 f i Mission01.obj
 0001:000c4620       ??_G?$ScriptRegistrant@VM01_Church_Balcony_MiniGunner_JDG@@@@UAEPAXI@Z 100c5620 f i Mission01.obj
 0001:000c4620       ??_E?$ScriptRegistrant@VM01_Church_Balcony_MiniGunner_JDG@@@@UAEPAXI@Z 100c5620 f i Mission01.obj
 0001:000c4670       ??0M01_Church_Balcony_MiniGunner_JDG@@QAE@XZ 100c5670 f i Mission01.obj
 0001:000c46a0       ?Created@M01_Church_Balcony_MiniGunner_JDG@@EAEXPAVScriptableGameObj@@@Z 100c56a0 f i Mission01.obj
 0001:000c46e0       ?Custom@M01_Church_Balcony_MiniGunner_JDG@@EAEXPAVScriptableGameObj@@HH0@Z 100c56e0 f i Mission01.obj
 0001:000c47d0       ?Action_Complete@M01_Church_Balcony_MiniGunner_JDG@@EAEXPAVScriptableGameObj@@HW4ActionCompleteReason@@@Z 100c57d0 f i Mission01.obj
 0001:000c4c50       ??_E?$ScriptRegistrant@VM01_Announce_Hand_of_Nod_Zone@@@@UAEPAXI@Z 100c5c50 f i Mission01.obj
 0001:000c4c50       ??_G?$ScriptRegistrant@VM01_Announce_Hand_of_Nod_Zone@@@@UAEPAXI@Z 100c5c50 f i Mission01.obj
 0001:000c4ca0       ??0M01_Announce_Hand_of_Nod_Zone@@QAE@XZ 100c5ca0 f i Mission01.obj
 0001:000c4cd0       ?Entered@M01_Announce_Hand_of_Nod_Zone@@EAEXPAVScriptableGameObj@@0@Z 100c5cd0 f i Mission01.obj
 0001:000c4e10       ??_E?$ScriptRegistrant@VM01_Announce_Barn_Objective_Zone@@@@UAEPAXI@Z 100c5e10 f i Mission01.obj
 0001:000c4e10       ??_G?$ScriptRegistrant@VM01_Announce_Barn_Objective_Zone@@@@UAEPAXI@Z 100c5e10 f i Mission01.obj
 0001:000c4e60       ??0M01_Announce_Barn_Objective_Zone@@QAE@XZ 100c5e60 f i Mission01.obj
 0001:000c4e90       ?Entered@M01_Announce_Barn_Objective_Zone@@EAEXPAVScriptableGameObj@@0@Z 100c5e90 f i Mission01.obj
 0001:000c4f00       ??_E?$ScriptRegistrant@VM01_Tiberium_Cave_Helicopter_JDG@@@@UAEPAXI@Z 100c5f00 f i Mission01.obj
 0001:000c4f00       ??_G?$ScriptRegistrant@VM01_Tiberium_Cave_Helicopter_JDG@@@@UAEPAXI@Z 100c5f00 f i Mission01.obj
 0001:000c4f50       ??0M01_Tiberium_Cave_Helicopter_JDG@@QAE@XZ 100c5f50 f i Mission01.obj
 0001:000c4f80       ?Created@M01_Tiberium_Cave_Helicopter_JDG@@EAEXPAVScriptableGameObj@@@Z 100c5f80 f i Mission01.obj
 0001:000c50d0       ?Custom@M01_Tiberium_Cave_Helicopter_JDG@@EAEXPAVScriptableGameObj@@HH0@Z 100c60d0 f i Mission01.obj
 0001:000c5390       ??_E?$ScriptRegistrant@VM01_Player_Is_Crossing_Bridge_Zone@@@@UAEPAXI@Z 100c6390 f i Mission01.obj
 0001:000c5390       ??_G?$ScriptRegistrant@VM01_Player_Is_Crossing_Bridge_Zone@@@@UAEPAXI@Z 100c6390 f i Mission01.obj
 0001:000c53e0       ??0M01_Player_Is_Crossing_Bridge_Zone@@QAE@XZ 100c63e0 f i Mission01.obj
 0001:000c5410       ?Entered@M01_Player_Is_Crossing_Bridge_Zone@@EAEXPAVScriptableGameObj@@0@Z 100c6410 f i Mission01.obj
 0001:000c5600       ??_E?$ScriptRegistrant@VM01_Player_Is_Crossing_Bridge_Via_Cave_Zone@@@@UAEPAXI@Z 100c6600 f i Mission01.obj
 0001:000c5600       ??_G?$ScriptRegistrant@VM01_Player_Is_Crossing_Bridge_Via_Cave_Zone@@@@UAEPAXI@Z 100c6600 f i Mission01.obj
 0001:000c5650       ??0M01_Player_Is_Crossing_Bridge_Via_Cave_Zone@@QAE@XZ 100c6650 f i Mission01.obj
 0001:000c5680       ?Entered@M01_Player_Is_Crossing_Bridge_Via_Cave_Zone@@EAEXPAVScriptableGameObj@@0@Z 100c6680 f i Mission01.obj
 0001:000c5870       ??_E?$ScriptRegistrant@VM01_Player_Is_Crossing_Bridge_Via_Church_Zone@@@@UAEPAXI@Z 100c6870 f i Mission01.obj
 0001:000c5870       ??_G?$ScriptRegistrant@VM01_Player_Is_Crossing_Bridge_Via_Church_Zone@@@@UAEPAXI@Z 100c6870 f i Mission01.obj
 0001:000c58c0       ??0M01_Player_Is_Crossing_Bridge_Via_Church_Zone@@QAE@XZ 100c68c0 f i Mission01.obj
 0001:000c58f0       ?Entered@M01_Player_Is_Crossing_Bridge_Via_Church_Zone@@EAEXPAVScriptableGameObj@@0@Z 100c68f0 f i Mission01.obj
 0001:000c5ae0       ??_E?$ScriptRegistrant@VM01_Flamethrower_Point_Guard_JDG@@@@UAEPAXI@Z 100c6ae0 f i Mission01.obj
 0001:000c5ae0       ??_G?$ScriptRegistrant@VM01_Flamethrower_Point_Guard_JDG@@@@UAEPAXI@Z 100c6ae0 f i Mission01.obj
 0001:000c5b30       ??0M01_Flamethrower_Point_Guard_JDG@@QAE@XZ 100c6b30 f i Mission01.obj
 0001:000c5b70       ?Register_Auto_Save_Variables@M01_Flamethrower_Point_Guard_JDG@@UAEXXZ 100c6b70 f i Mission01.obj
 0001:000c5bf0       ?Created@M01_Flamethrower_Point_Guard_JDG@@UAEXPAVScriptableGameObj@@@Z 100c6bf0 f i Mission01.obj
 0001:000c5d30       ?Custom@M01_Flamethrower_Point_Guard_JDG@@UAEXPAVScriptableGameObj@@HH0@Z 100c6d30 f i Mission01.obj
 0001:000c5e70       ?Set_Face_Location@ActionParamsStruct@@QAEXABVVector3@@MM@Z 100c6e70 f i Mission01.obj
 0001:000c5f10       ?Sound_Heard@M01_Flamethrower_Point_Guard_JDG@@UAEXPAVScriptableGameObj@@ABVCombatSound@@@Z 100c6f10 f i Mission01.obj
 0001:000c5f60       ?Enemy_Seen@M01_Flamethrower_Point_Guard_JDG@@UAEXPAVScriptableGameObj@@0@Z 100c6f60 f i Mission01.obj
 0001:000c5fa0       ?Damaged@M01_Flamethrower_Point_Guard_JDG@@UAEXPAVScriptableGameObj@@0M@Z 100c6fa0 f i Mission01.obj
 0001:000c6060       ??_G?$ScriptRegistrant@VM01_MiniGunner_Point_Guard_JDG@@@@UAEPAXI@Z 100c7060 f i Mission01.obj
 0001:000c6060       ??_E?$ScriptRegistrant@VM01_MiniGunner_Point_Guard_JDG@@@@UAEPAXI@Z 100c7060 f i Mission01.obj
 0001:000c60b0       ??0M01_MiniGunner_Point_Guard_JDG@@QAE@XZ 100c70b0 f i Mission01.obj
 0001:000c60e0       ??_G?$ScriptRegistrant@VM01_HON_Easy_Spawned_Guy_01_JDG@@@@UAEPAXI@Z 100c70e0 f i Mission01.obj
 0001:000c60e0       ??_E?$ScriptRegistrant@VM01_HON_Easy_Spawned_Guy_01_JDG@@@@UAEPAXI@Z 100c70e0 f i Mission01.obj
 0001:000c6130       ??0M01_HON_Easy_Spawned_Guy_01_JDG@@QAE@XZ 100c7130 f i Mission01.obj
 0001:000c6160       ?Register_Auto_Save_Variables@M01_HON_Easy_Spawned_Guy_01_JDG@@UAEXXZ 100c7160 f i Mission01.obj
 0001:000c61b0       ?Created@M01_HON_Easy_Spawned_Guy_01_JDG@@UAEXPAVScriptableGameObj@@@Z 100c71b0 f i Mission01.obj
 0001:000c6280       ?Damaged@M01_HON_Easy_Spawned_Guy_01_JDG@@UAEXPAVScriptableGameObj@@0M@Z 100c7280 f i Mission01.obj
 0001:000c63b0       ?Killed@M01_HON_Easy_Spawned_Guy_01_JDG@@UAEXPAVScriptableGameObj@@0@Z 100c73b0 f i Mission01.obj
 0001:000c6450       ?Enemy_Seen@M01_HON_Easy_Spawned_Guy_01_JDG@@UAEXPAVScriptableGameObj@@0@Z 100c7450 f i Mission01.obj
 0001:000c6530       ?Sound_Heard@M01_HON_Easy_Spawned_Guy_01_JDG@@UAEXPAVScriptableGameObj@@ABVCombatSound@@@Z 100c7530 f i Mission01.obj
 0001:000c66a0       ?Custom@M01_HON_Easy_Spawned_Guy_01_JDG@@UAEXPAVScriptableGameObj@@HH0@Z 100c76a0 f i Mission01.obj
 0001:000c6820       ?Action_Complete@M01_HON_Easy_Spawned_Guy_01_JDG@@UAEXPAVScriptableGameObj@@HW4ActionCompleteReason@@@Z 100c7820 f i Mission01.obj
 0001:000c6890       ??_E?$ScriptRegistrant@VM01_HON_Easy_Spawned_Guy_02_JDG@@@@UAEPAXI@Z 100c7890 f i Mission01.obj
 0001:000c6890       ??_G?$ScriptRegistrant@VM01_HON_Easy_Spawned_Guy_02_JDG@@@@UAEPAXI@Z 100c7890 f i Mission01.obj
 0001:000c68e0       ??0M01_HON_Easy_Spawned_Guy_02_JDG@@QAE@XZ 100c78e0 f i Mission01.obj
 0001:000c6910       ?Register_Auto_Save_Variables@M01_HON_Easy_Spawned_Guy_02_JDG@@UAEXXZ 100c7910 f i Mission01.obj
 0001:000c6960       ?Created@M01_HON_Easy_Spawned_Guy_02_JDG@@UAEXPAVScriptableGameObj@@@Z 100c7960 f i Mission01.obj
 0001:000c6a30       ?Damaged@M01_HON_Easy_Spawned_Guy_02_JDG@@UAEXPAVScriptableGameObj@@0M@Z 100c7a30 f i Mission01.obj
 0001:000c6b60       ?Killed@M01_HON_Easy_Spawned_Guy_02_JDG@@UAEXPAVScriptableGameObj@@0@Z 100c7b60 f i Mission01.obj
 0001:000c6c00       ?Enemy_Seen@M01_HON_Easy_Spawned_Guy_02_JDG@@UAEXPAVScriptableGameObj@@0@Z 100c7c00 f i Mission01.obj
 0001:000c6ce0       ?Sound_Heard@M01_HON_Easy_Spawned_Guy_02_JDG@@UAEXPAVScriptableGameObj@@ABVCombatSound@@@Z 100c7ce0 f i Mission01.obj
 0001:000c6e50       ?Custom@M01_HON_Easy_Spawned_Guy_02_JDG@@UAEXPAVScriptableGameObj@@HH0@Z 100c7e50 f i Mission01.obj
 0001:000c6fd0       ?Action_Complete@M01_HON_Easy_Spawned_Guy_02_JDG@@UAEXPAVScriptableGameObj@@HW4ActionCompleteReason@@@Z 100c7fd0 f i Mission01.obj
 0001:000c7040       ??_G?$ScriptRegistrant@VM01_HON_Easy_Spawned_Guy_03_JDG@@@@UAEPAXI@Z 100c8040 f i Mission01.obj
 0001:000c7040       ??_E?$ScriptRegistrant@VM01_HON_Easy_Spawned_Guy_03_JDG@@@@UAEPAXI@Z 100c8040 f i Mission01.obj
 0001:000c7090       ??0M01_HON_Easy_Spawned_Guy_03_JDG@@QAE@XZ 100c8090 f i Mission01.obj
 0001:000c70c0       ?Register_Auto_Save_Variables@M01_HON_Easy_Spawned_Guy_03_JDG@@UAEXXZ 100c80c0 f i Mission01.obj
 0001:000c7110       ?Created@M01_HON_Easy_Spawned_Guy_03_JDG@@UAEXPAVScriptableGameObj@@@Z 100c8110 f i Mission01.obj
 0001:000c71e0       ?Damaged@M01_HON_Easy_Spawned_Guy_03_JDG@@UAEXPAVScriptableGameObj@@0M@Z 100c81e0 f i Mission01.obj
 0001:000c7310       ?Killed@M01_HON_Easy_Spawned_Guy_03_JDG@@UAEXPAVScriptableGameObj@@0@Z 100c8310 f i Mission01.obj
 0001:000c73b0       ?Enemy_Seen@M01_HON_Easy_Spawned_Guy_03_JDG@@UAEXPAVScriptableGameObj@@0@Z 100c83b0 f i Mission01.obj
 0001:000c7490       ?Sound_Heard@M01_HON_Easy_Spawned_Guy_03_JDG@@UAEXPAVScriptableGameObj@@ABVCombatSound@@@Z 100c8490 f i Mission01.obj
 0001:000c7600       ?Custom@M01_HON_Easy_Spawned_Guy_03_JDG@@UAEXPAVScriptableGameObj@@HH0@Z 100c8600 f i Mission01.obj
 0001:000c7780       ?Action_Complete@M01_HON_Easy_Spawned_Guy_03_JDG@@UAEXPAVScriptableGameObj@@HW4ActionCompleteReason@@@Z 100c8780 f i Mission01.obj
 0001:000c7840       ??_E?$ScriptRegistrant@VM01_Whack_A_Mole_Enter_Zone_JDG@@@@UAEPAXI@Z 100c8840 f i Mission01.obj
 0001:000c7840       ??_G?$ScriptRegistrant@VM01_Whack_A_Mole_Enter_Zone_JDG@@@@UAEPAXI@Z 100c8840 f i Mission01.obj
 0001:000c7890       ??0M01_Whack_A_Mole_Enter_Zone_JDG@@QAE@XZ 100c8890 f i Mission01.obj
 0001:000c78c0       ?Entered@M01_Whack_A_Mole_Enter_Zone_JDG@@EAEXPAVScriptableGameObj@@0@Z 100c88c0 f i Mission01.obj
 0001:000c79a0       ??_E?$ScriptRegistrant@VM01_Whack_A_Mole_Exit_Zone_JDG@@@@UAEPAXI@Z 100c89a0 f i Mission01.obj
 0001:000c79a0       ??_G?$ScriptRegistrant@VM01_Whack_A_Mole_Exit_Zone_JDG@@@@UAEPAXI@Z 100c89a0 f i Mission01.obj
 0001:000c79f0       ??0M01_Whack_A_Mole_Exit_Zone_JDG@@QAE@XZ 100c89f0 f i Mission01.obj
 0001:000c7a20       ?Register_Auto_Save_Variables@M01_Whack_A_Mole_Exit_Zone_JDG@@UAEXXZ 100c8a20 f i Mission01.obj
 0001:000c7a50       ?Created@M01_Whack_A_Mole_Exit_Zone_JDG@@UAEXPAVScriptableGameObj@@@Z 100c8a50 f i Mission01.obj
 0001:000c7a80       ?Custom@M01_Whack_A_Mole_Exit_Zone_JDG@@UAEXPAVScriptableGameObj@@HH0@Z 100c8a80 f i Mission01.obj
 0001:000c7ab0       ?Entered@M01_Whack_A_Mole_Exit_Zone_JDG@@UAEXPAVScriptableGameObj@@0@Z 100c8ab0 f i Mission01.obj
 0001:000c7b70       ??_G?$ScriptRegistrant@VM01_Whack_A_Mole_Minigunner_JDG@@@@UAEPAXI@Z 100c8b70 f i Mission01.obj
 0001:000c7b70       ??_E?$ScriptRegistrant@VM01_Whack_A_Mole_Minigunner_JDG@@@@UAEPAXI@Z 100c8b70 f i Mission01.obj
 0001:000c7bc0       ??0M01_Whack_A_Mole_Minigunner_JDG@@QAE@XZ 100c8bc0 f i Mission01.obj
 0001:000c7bf0       ?Register_Auto_Save_Variables@M01_Whack_A_Mole_Minigunner_JDG@@UAEXXZ 100c8bf0 f i Mission01.obj
 0001:000c7ca0       ?Created@M01_Whack_A_Mole_Minigunner_JDG@@UAEXPAVScriptableGameObj@@@Z 100c8ca0 f i Mission01.obj
 0001:000c7da0       ?Custom@M01_Whack_A_Mole_Minigunner_JDG@@UAEXPAVScriptableGameObj@@HH0@Z 100c8da0 f i Mission01.obj
 0001:000c80f0       ?Action_Complete@M01_Whack_A_Mole_Minigunner_JDG@@UAEXPAVScriptableGameObj@@HW4ActionCompleteReason@@@Z 100c90f0 f i Mission01.obj
 0001:000c82e0       ?Damaged@M01_Whack_A_Mole_Minigunner_JDG@@UAEXPAVScriptableGameObj@@0M@Z 100c92e0 f i Mission01.obj
 0001:000c8420       ??_G?$ScriptRegistrant@VM01_Left_Interrogation_Room_Enter_Zone_JDG@@@@UAEPAXI@Z 100c9420 f i Mission01.obj
 0001:000c8420       ??_E?$ScriptRegistrant@VM01_Left_Interrogation_Room_Enter_Zone_JDG@@@@UAEPAXI@Z 100c9420 f i Mission01.obj
 0001:000c8470       ??0M01_Left_Interrogation_Room_Enter_Zone_JDG@@QAE@XZ 100c9470 f i Mission01.obj
 0001:000c84a0       ?Entered@M01_Left_Interrogation_Room_Enter_Zone_JDG@@EAEXPAVScriptableGameObj@@0@Z 100c94a0 f i Mission01.obj
 0001:000c85d0       ??_G?$ScriptRegistrant@VM01_Right_Interrogation_Room_Enter_Zone_JDG@@@@UAEPAXI@Z 100c95d0 f i Mission01.obj
 0001:000c85d0       ??_E?$ScriptRegistrant@VM01_Right_Interrogation_Room_Enter_Zone_JDG@@@@UAEPAXI@Z 100c95d0 f i Mission01.obj
 0001:000c8620       ??0M01_Right_Interrogation_Room_Enter_Zone_JDG@@QAE@XZ 100c9620 f i Mission01.obj
 0001:000c8650       ?Entered@M01_Right_Interrogation_Room_Enter_Zone_JDG@@EAEXPAVScriptableGameObj@@0@Z 100c9650 f i Mission01.obj
 0001:000c8780       ??_E?$ScriptRegistrant@VM01_Interrogation_Room_L03_Keycard_JDG@@@@UAEPAXI@Z 100c9780 f i Mission01.obj
 0001:000c8780       ??_G?$ScriptRegistrant@VM01_Interrogation_Room_L03_Keycard_JDG@@@@UAEPAXI@Z 100c9780 f i Mission01.obj
 0001:000c87d0       ??0M01_Interrogation_Room_L03_Keycard_JDG@@QAE@XZ 100c97d0 f i Mission01.obj
 0001:000c8800       ?Created@M01_Interrogation_Room_L03_Keycard_JDG@@EAEXPAVScriptableGameObj@@@Z 100c9800 f i Mission01.obj
 0001:000c8840       ??_E?$ScriptRegistrant@VM01_Interrogation_Room_Surprise_Guy_JDG@@@@UAEPAXI@Z 100c9840 f i Mission01.obj
 0001:000c8840       ??_G?$ScriptRegistrant@VM01_Interrogation_Room_Surprise_Guy_JDG@@@@UAEPAXI@Z 100c9840 f i Mission01.obj
 0001:000c8890       ??0M01_Interrogation_Room_Surprise_Guy_JDG@@QAE@XZ 100c9890 f i Mission01.obj
 0001:000c88d0       ?Register_Auto_Save_Variables@M01_Interrogation_Room_Surprise_Guy_JDG@@UAEXXZ 100c98d0 f i Mission01.obj
 0001:000c8920       ?Created@M01_Interrogation_Room_Surprise_Guy_JDG@@UAEXPAVScriptableGameObj@@@Z 100c9920 f i Mission01.obj
 0001:000c8960       ?Enemy_Seen@M01_Interrogation_Room_Surprise_Guy_JDG@@UAEXPAVScriptableGameObj@@0@Z 100c9960 f i Mission01.obj
 0001:000c8ae0       ?Custom@M01_Interrogation_Room_Surprise_Guy_JDG@@UAEXPAVScriptableGameObj@@HH0@Z 100c9ae0 f i Mission01.obj
 0001:000c8d70       ?Action_Complete@M01_Interrogation_Room_Surprise_Guy_JDG@@UAEXPAVScriptableGameObj@@HW4ActionCompleteReason@@@Z 100c9d70 f i Mission01.obj
 0001:000c8ed0       ??_G?$ScriptRegistrant@VM01_Medium_Tank_Tunnel_Squish_Guy_JDG@@@@UAEPAXI@Z 100c9ed0 f i Mission01.obj
 0001:000c8ed0       ??_E?$ScriptRegistrant@VM01_Medium_Tank_Tunnel_Squish_Guy_JDG@@@@UAEPAXI@Z 100c9ed0 f i Mission01.obj
 0001:000c8f20       ??0M01_Medium_Tank_Tunnel_Squish_Guy_JDG@@QAE@XZ 100c9f20 f i Mission01.obj
 0001:000c8f50       ?Created@M01_Medium_Tank_Tunnel_Squish_Guy_JDG@@EAEXPAVScriptableGameObj@@@Z 100c9f50 f i Mission01.obj
 0001:000c8fc0       ?Custom@M01_Medium_Tank_Tunnel_Squish_Guy_JDG@@EAEXPAVScriptableGameObj@@HH0@Z 100c9fc0 f i Mission01.obj
 0001:000c90c0       ??_G?$ScriptRegistrant@VM01_Billys_Conversation_Zone_JDG@@@@UAEPAXI@Z 100ca0c0 f i Mission01.obj
 0001:000c90c0       ??_E?$ScriptRegistrant@VM01_Billys_Conversation_Zone_JDG@@@@UAEPAXI@Z 100ca0c0 f i Mission01.obj
 0001:000c9110       ??0M01_Billys_Conversation_Zone_JDG@@QAE@XZ 100ca110 f i Mission01.obj
 0001:000c9140       ?Register_Auto_Save_Variables@M01_Billys_Conversation_Zone_JDG@@UAEXXZ 100ca140 f i Mission01.obj
 0001:000c9190       ?Created@M01_Billys_Conversation_Zone_JDG@@UAEXPAVScriptableGameObj@@@Z 100ca190 f i Mission01.obj
 0001:000c91c0       ?Custom@M01_Billys_Conversation_Zone_JDG@@UAEXPAVScriptableGameObj@@HH0@Z 100ca1c0 f i Mission01.obj
 0001:000c9320       ?Exited@M01_Billys_Conversation_Zone_JDG@@UAEXPAVScriptableGameObj@@0@Z 100ca320 f i Mission01.obj
 0001:000c9380       ?Entered@M01_Billys_Conversation_Zone_JDG@@UAEXPAVScriptableGameObj@@0@Z 100ca380 f i Mission01.obj
 0001:000c9410       ??_G?$ScriptRegistrant@VM01_Tank_Entering_Tunnel_Zone_JDG@@@@UAEPAXI@Z 100ca410 f i Mission01.obj
 0001:000c9410       ??_E?$ScriptRegistrant@VM01_Tank_Entering_Tunnel_Zone_JDG@@@@UAEPAXI@Z 100ca410 f i Mission01.obj
 0001:000c9460       ??0M01_Tank_Entering_Tunnel_Zone_JDG@@QAE@XZ 100ca460 f i Mission01.obj
 0001:000c9490       ?Register_Auto_Save_Variables@M01_Tank_Entering_Tunnel_Zone_JDG@@UAEXXZ 100ca490 f i Mission01.obj
 0001:000c94c0       ?Created@M01_Tank_Entering_Tunnel_Zone_JDG@@UAEXPAVScriptableGameObj@@@Z 100ca4c0 f i Mission01.obj
 0001:000c94f0       ?Custom@M01_Tank_Entering_Tunnel_Zone_JDG@@UAEXPAVScriptableGameObj@@HH0@Z 100ca4f0 f i Mission01.obj
 0001:000c9520       ?Entered@M01_Tank_Entering_Tunnel_Zone_JDG@@UAEXPAVScriptableGameObj@@0@Z 100ca520 f i Mission01.obj
 0001:000c9670       ??_E?$ScriptRegistrant@VM01_Player_Is_Entering_Tailgun_Alley_JDG@@@@UAEPAXI@Z 100ca670 f i Mission01.obj
 0001:000c9670       ??_G?$ScriptRegistrant@VM01_Player_Is_Entering_Tailgun_Alley_JDG@@@@UAEPAXI@Z 100ca670 f i Mission01.obj
 0001:000c96c0       ??0M01_Player_Is_Entering_Tailgun_Alley_JDG@@QAE@XZ 100ca6c0 f i Mission01.obj
 0001:000c96f0       ?Entered@M01_Player_Is_Entering_Tailgun_Alley_JDG@@EAEXPAVScriptableGameObj@@0@Z 100ca6f0 f i Mission01.obj
 0001:000c9a10       ??_E?$ScriptRegistrant@VM01_Player_Is_Entering_Tailgun_Alley_Backway_JDG@@@@UAEPAXI@Z 100caa10 f i Mission01.obj
 0001:000c9a10       ??_G?$ScriptRegistrant@VM01_Player_Is_Entering_Tailgun_Alley_Backway_JDG@@@@UAEPAXI@Z 100caa10 f i Mission01.obj
 0001:000c9a60       ??0M01_Player_Is_Entering_Tailgun_Alley_Backway_JDG@@QAE@XZ 100caa60 f i Mission01.obj
 0001:000c9a90       ?Entered@M01_Player_Is_Entering_Tailgun_Alley_Backway_JDG@@EAEXPAVScriptableGameObj@@0@Z 100caa90 f i Mission01.obj
 0001:000c9d20       ??_G?$ScriptRegistrant@VM01_TailGunner_01_JDG@@@@UAEPAXI@Z 100cad20 f i Mission01.obj
 0001:000c9d20       ??_E?$ScriptRegistrant@VM01_TailGunner_01_JDG@@@@UAEPAXI@Z 100cad20 f i Mission01.obj
 0001:000c9d70       ??0M01_TailGunner_01_JDG@@QAE@XZ 100cad70 f i Mission01.obj
 0001:000c9da0       ?Created@M01_TailGunner_01_JDG@@EAEXPAVScriptableGameObj@@@Z 100cada0 f i Mission01.obj
 0001:000c9ea0       ?Killed@M01_TailGunner_01_JDG@@EAEXPAVScriptableGameObj@@0@Z 100caea0 f i Mission01.obj
 0001:000c9f10       ?Action_Complete@M01_TailGunner_01_JDG@@EAEXPAVScriptableGameObj@@HW4ActionCompleteReason@@@Z 100caf10 f i Mission01.obj
 0001:000c9f90       ??_G?$ScriptRegistrant@VM01_TailGunner_02_JDG@@@@UAEPAXI@Z 100caf90 f i Mission01.obj
 0001:000c9f90       ??_E?$ScriptRegistrant@VM01_TailGunner_02_JDG@@@@UAEPAXI@Z 100caf90 f i Mission01.obj
 0001:000c9fe0       ??0M01_TailGunner_02_JDG@@QAE@XZ 100cafe0 f i Mission01.obj
 0001:000ca010       ?Created@M01_TailGunner_02_JDG@@EAEXPAVScriptableGameObj@@@Z 100cb010 f i Mission01.obj
 0001:000ca110       ?Killed@M01_TailGunner_02_JDG@@EAEXPAVScriptableGameObj@@0@Z 100cb110 f i Mission01.obj
 0001:000ca180       ?Action_Complete@M01_TailGunner_02_JDG@@EAEXPAVScriptableGameObj@@HW4ActionCompleteReason@@@Z 100cb180 f i Mission01.obj
 0001:000ca200       ??_E?$ScriptRegistrant@VM01_TailGunner_03_JDG@@@@UAEPAXI@Z 100cb200 f i Mission01.obj
 0001:000ca200       ??_G?$ScriptRegistrant@VM01_TailGunner_03_JDG@@@@UAEPAXI@Z 100cb200 f i Mission01.obj
 0001:000ca250       ??0M01_TailGunner_03_JDG@@QAE@XZ 100cb250 f i Mission01.obj
 0001:000ca280       ?Created@M01_TailGunner_03_JDG@@EAEXPAVScriptableGameObj@@@Z 100cb280 f i Mission01.obj
 0001:000ca380       ?Killed@M01_TailGunner_03_JDG@@EAEXPAVScriptableGameObj@@0@Z 100cb380 f i Mission01.obj
 0001:000ca3f0       ?Action_Complete@M01_TailGunner_03_JDG@@EAEXPAVScriptableGameObj@@HW4ActionCompleteReason@@@Z 100cb3f0 f i Mission01.obj
 0001:000ca470       ??_E?$ScriptRegistrant@VM01_TailGun_01_JDG@@@@UAEPAXI@Z 100cb470 f i Mission01.obj
 0001:000ca470       ??_G?$ScriptRegistrant@VM01_TailGun_01_JDG@@@@UAEPAXI@Z 100cb470 f i Mission01.obj
 0001:000ca4c0       ??0M01_TailGun_01_JDG@@QAE@XZ 100cb4c0 f i Mission01.obj
 0001:000ca4f0       ?Custom@M01_TailGun_01_JDG@@EAEXPAVScriptableGameObj@@HH0@Z 100cb4f0 f i Mission01.obj
 0001:000ca5c0       ??_G?$ScriptRegistrant@VM01_TailGun_02_JDG@@@@UAEPAXI@Z 100cb5c0 f i Mission01.obj
 0001:000ca5c0       ??_E?$ScriptRegistrant@VM01_TailGun_02_JDG@@@@UAEPAXI@Z 100cb5c0 f i Mission01.obj
 0001:000ca610       ??0M01_TailGun_02_JDG@@QAE@XZ 100cb610 f i Mission01.obj
